
kernel/kernel.bin:     file format elf32-i386


Disassembly of section .text:

00030500 <_start>:
   30500:	bc 80 84 03 00       	mov    $0x38480,%esp
   30505:	0f 01 05 40 90 03 00 	sgdtl  0x39040
   3050c:	e8 5f 0b 00 00       	call   31070 <init_Gdt_Idt>
   30511:	0f 01 15 40 90 03 00 	lgdtl  0x39040
   30518:	0f 01 1d 40 8b 03 00 	lidtl  0x38b40
   3051f:	ea 26 05 03 00 08 00 	ljmp   $0x8,$0x30526

00030526 <csinit>:
   30526:	e8 3f 0c 00 00       	call   3116a <sys_init>
   3052b:	66 b8 20 00          	mov    $0x20,%ax
   3052f:	0f 00 d8             	ltr    %ax
   30532:	31 c0                	xor    %eax,%eax
   30534:	66 8c d0             	mov    %ss,%ax
   30537:	a3 88 8f 03 00       	mov    %eax,0x38f88
   3053c:	c7 05 60 8f 03 00 15 	movl   $0x15,0x38f60
   30543:	00 00 00 
   30546:	ff 35 60 8f 03 00    	pushl  0x38f60
   3054c:	e8 ab 17 00 00       	call   31cfc <setTssEspReady>
   30551:	81 c4 04 00 00 00    	add    $0x4,%esp
   30557:	66 b8 43 00          	mov    $0x43,%ax
   3055b:	0f 00 d0             	lldt   %ax
   3055e:	c7 05 e4 ff 09 00 00 	movl   $0x0,0x9ffe4
   30565:	00 00 00 
   30568:	b6 0f                	mov    $0xf,%dh
   3056a:	b2 41                	mov    $0x41,%dl
   3056c:	65 66 89 15 1a 02 00 	mov    %dx,%gs:0x21a
   30573:	00 
   30574:	65 66 89 15 1c 02 00 	mov    %dx,%gs:0x21c
   3057b:	00 
   3057c:	65 66 89 15 1e 02 00 	mov    %dx,%gs:0x21e
   30583:	00 
   30584:	65 66 89 15 20 02 00 	mov    %dx,%gs:0x220
   3058b:	00 
   3058c:	65 66 89 15 26 02 00 	mov    %dx,%gs:0x226
   30593:	00 
   30594:	c7 05 48 8b 03 00 00 	movl   $0x0,0x38b48
   3059b:	00 00 00 
   3059e:	b8 0f 00 00 00       	mov    $0xf,%eax
   305a3:	50                   	push   %eax
   305a4:	b8 e7 03 00 00       	mov    $0x3e7,%eax
   305a9:	50                   	push   %eax
   305aa:	b8 07 00 00 00       	mov    $0x7,%eax
   305af:	50                   	push   %eax
   305b0:	b8 65 41 03 00       	mov    $0x34165,%eax
   305b5:	50                   	push   %eax
   305b6:	66 b8 1f 00          	mov    $0x1f,%ax
   305ba:	8e d8                	mov    %eax,%ds
   305bc:	66 b8 17 00          	mov    $0x17,%ax
   305c0:	8e c0                	mov    %eax,%es
   305c2:	fb                   	sti    
   305c3:	cb                   	lret   
   305c4:	e9 fb ff ff ff       	jmp    305c4 <csinit+0x9e>
   305c9:	90                   	nop
   305ca:	90                   	nop
   305cb:	90                   	nop

000305cc <setLDTEntry>:
   305cc:	55                   	push   %ebp
   305cd:	89 e5                	mov    %esp,%ebp
   305cf:	83 ec 04             	sub    $0x4,%esp
   305d2:	8b 45 18             	mov    0x18(%ebp),%eax
   305d5:	66 89 45 fc          	mov    %ax,-0x4(%ebp)
   305d9:	8b 45 0c             	mov    0xc(%ebp),%eax
   305dc:	c1 e0 03             	shl    $0x3,%eax
   305df:	03 45 08             	add    0x8(%ebp),%eax
   305e2:	8b 55 14             	mov    0x14(%ebp),%edx
   305e5:	66 89 10             	mov    %dx,(%eax)
   305e8:	8b 45 0c             	mov    0xc(%ebp),%eax
   305eb:	c1 e0 03             	shl    $0x3,%eax
   305ee:	03 45 08             	add    0x8(%ebp),%eax
   305f1:	8b 55 10             	mov    0x10(%ebp),%edx
   305f4:	66 89 50 02          	mov    %dx,0x2(%eax)
   305f8:	8b 45 0c             	mov    0xc(%ebp),%eax
   305fb:	c1 e0 03             	shl    $0x3,%eax
   305fe:	03 45 08             	add    0x8(%ebp),%eax
   30601:	8b 55 10             	mov    0x10(%ebp),%edx
   30604:	c1 ea 10             	shr    $0x10,%edx
   30607:	88 50 04             	mov    %dl,0x4(%eax)
   3060a:	8b 45 0c             	mov    0xc(%ebp),%eax
   3060d:	c1 e0 03             	shl    $0x3,%eax
   30610:	03 45 08             	add    0x8(%ebp),%eax
   30613:	0f b7 55 fc          	movzwl -0x4(%ebp),%edx
   30617:	88 50 05             	mov    %dl,0x5(%eax)
   3061a:	8b 45 0c             	mov    0xc(%ebp),%eax
   3061d:	c1 e0 03             	shl    $0x3,%eax
   30620:	03 45 08             	add    0x8(%ebp),%eax
   30623:	0f b7 55 fc          	movzwl -0x4(%ebp),%edx
   30627:	66 c1 ea 08          	shr    $0x8,%dx
   3062b:	89 d1                	mov    %edx,%ecx
   3062d:	83 e1 f0             	and    $0xfffffff0,%ecx
   30630:	8b 55 14             	mov    0x14(%ebp),%edx
   30633:	c1 ea 10             	shr    $0x10,%edx
   30636:	83 e2 0f             	and    $0xf,%edx
   30639:	09 ca                	or     %ecx,%edx
   3063b:	88 50 06             	mov    %dl,0x6(%eax)
   3063e:	8b 45 0c             	mov    0xc(%ebp),%eax
   30641:	c1 e0 03             	shl    $0x3,%eax
   30644:	03 45 08             	add    0x8(%ebp),%eax
   30647:	8b 55 10             	mov    0x10(%ebp),%edx
   3064a:	c1 ea 18             	shr    $0x18,%edx
   3064d:	88 50 07             	mov    %dl,0x7(%eax)
   30650:	c9                   	leave  
   30651:	c3                   	ret    

00030652 <set_process_regs>:
   30652:	55                   	push   %ebp
   30653:	89 e5                	mov    %esp,%ebp
   30655:	83 7d 08 00          	cmpl   $0x0,0x8(%ebp)
   30659:	0f 84 9a 00 00 00    	je     306f9 <set_process_regs+0xa7>
   3065f:	8b 55 0c             	mov    0xc(%ebp),%edx
   30662:	8b 45 08             	mov    0x8(%ebp),%eax
   30665:	89 50 34             	mov    %edx,0x34(%eax)
   30668:	8b 55 10             	mov    0x10(%ebp),%edx
   3066b:	8b 45 08             	mov    0x8(%ebp),%eax
   3066e:	89 50 38             	mov    %edx,0x38(%eax)
   30671:	8b 45 08             	mov    0x8(%ebp),%eax
   30674:	c7 40 2c 00 00 00 00 	movl   $0x0,0x2c(%eax)
   3067b:	8b 45 08             	mov    0x8(%ebp),%eax
   3067e:	c7 40 20 00 00 00 00 	movl   $0x0,0x20(%eax)
   30685:	8b 45 08             	mov    0x8(%ebp),%eax
   30688:	c7 40 28 00 00 00 00 	movl   $0x0,0x28(%eax)
   3068f:	8b 45 08             	mov    0x8(%ebp),%eax
   30692:	c7 40 24 00 00 00 00 	movl   $0x0,0x24(%eax)
   30699:	8b 45 08             	mov    0x8(%ebp),%eax
   3069c:	c7 40 10 00 00 00 00 	movl   $0x0,0x10(%eax)
   306a3:	8b 45 08             	mov    0x8(%ebp),%eax
   306a6:	c7 40 14 00 00 00 00 	movl   $0x0,0x14(%eax)
   306ad:	8b 45 08             	mov    0x8(%ebp),%eax
   306b0:	c7 40 18 00 00 00 00 	movl   $0x0,0x18(%eax)
   306b7:	8b 55 18             	mov    0x18(%ebp),%edx
   306ba:	8b 45 08             	mov    0x8(%ebp),%eax
   306bd:	89 50 40             	mov    %edx,0x40(%eax)
   306c0:	8b 55 1c             	mov    0x1c(%ebp),%edx
   306c3:	8b 45 08             	mov    0x8(%ebp),%eax
   306c6:	89 50 44             	mov    %edx,0x44(%eax)
   306c9:	8b 55 20             	mov    0x20(%ebp),%edx
   306cc:	8b 45 08             	mov    0x8(%ebp),%eax
   306cf:	89 50 0c             	mov    %edx,0xc(%eax)
   306d2:	8b 55 24             	mov    0x24(%ebp),%edx
   306d5:	8b 45 08             	mov    0x8(%ebp),%eax
   306d8:	89 50 08             	mov    %edx,0x8(%eax)
   306db:	8b 45 08             	mov    0x8(%ebp),%eax
   306de:	c7 40 04 00 00 00 00 	movl   $0x0,0x4(%eax)
   306e5:	8b 45 08             	mov    0x8(%ebp),%eax
   306e8:	c7 00 1b 00 00 00    	movl   $0x1b,(%eax)
   306ee:	8b 55 14             	mov    0x14(%ebp),%edx
   306f1:	8b 45 08             	mov    0x8(%ebp),%eax
   306f4:	89 50 3c             	mov    %edx,0x3c(%eax)
   306f7:	eb 01                	jmp    306fa <set_process_regs+0xa8>
   306f9:	90                   	nop
   306fa:	5d                   	pop    %ebp
   306fb:	c3                   	ret    

000306fc <initProcess>:
   306fc:	55                   	push   %ebp
   306fd:	89 e5                	mov    %esp,%ebp
   306ff:	8b 55 0c             	mov    0xc(%ebp),%edx
   30702:	8b 45 08             	mov    0x8(%ebp),%eax
   30705:	89 50 4c             	mov    %edx,0x4c(%eax)
   30708:	8b 55 10             	mov    0x10(%ebp),%edx
   3070b:	8b 45 08             	mov    0x8(%ebp),%eax
   3070e:	89 50 50             	mov    %edx,0x50(%eax)
   30711:	8b 55 14             	mov    0x14(%ebp),%edx
   30714:	8b 45 08             	mov    0x8(%ebp),%eax
   30717:	89 90 d4 28 00 00    	mov    %edx,0x28d4(%eax)
   3071d:	8b 55 18             	mov    0x18(%ebp),%edx
   30720:	8b 45 08             	mov    0x8(%ebp),%eax
   30723:	89 90 d8 28 00 00    	mov    %edx,0x28d8(%eax)
   30729:	8b 45 08             	mov    0x8(%ebp),%eax
   3072c:	c7 80 dc 28 00 00 00 	movl   $0x0,0x28dc(%eax)
   30733:	00 00 00 
   30736:	8b 45 08             	mov    0x8(%ebp),%eax
   30739:	c7 80 e0 28 00 00 00 	movl   $0x0,0x28e0(%eax)
   30740:	00 00 00 
   30743:	8b 45 08             	mov    0x8(%ebp),%eax
   30746:	c7 80 e8 28 00 00 00 	movl   $0x0,0x28e8(%eax)
   3074d:	00 00 00 
   30750:	8b 45 08             	mov    0x8(%ebp),%eax
   30753:	c7 80 ec 28 00 00 00 	movl   $0x0,0x28ec(%eax)
   3075a:	00 00 00 
   3075d:	8b 45 08             	mov    0x8(%ebp),%eax
   30760:	c7 80 f0 28 00 00 00 	movl   $0x0,0x28f0(%eax)
   30767:	00 00 00 
   3076a:	8b 45 08             	mov    0x8(%ebp),%eax
   3076d:	c7 80 f4 28 00 00 8c 	movl   $0x8c,0x28f4(%eax)
   30774:	00 00 00 
   30777:	8b 45 08             	mov    0x8(%ebp),%eax
   3077a:	c7 80 e4 28 00 00 8c 	movl   $0x8c,0x28e4(%eax)
   30781:	00 00 00 
   30784:	8b 45 08             	mov    0x8(%ebp),%eax
   30787:	c7 80 f8 28 00 00 00 	movl   $0x0,0x28f8(%eax)
   3078e:	00 00 00 
   30791:	5d                   	pop    %ebp
   30792:	c3                   	ret    

00030793 <init_process_table>:
   30793:	55                   	push   %ebp
   30794:	89 e5                	mov    %esp,%ebp
   30796:	83 ec 18             	sub    $0x18,%esp
   30799:	c7 45 f4 00 00 00 00 	movl   $0x0,-0xc(%ebp)
   307a0:	c7 45 f4 00 00 00 00 	movl   $0x0,-0xc(%ebp)
   307a7:	eb 17                	jmp    307c0 <init_process_table+0x2d>
   307a9:	8b 45 f4             	mov    -0xc(%ebp),%eax
   307ac:	69 c0 fc 28 00 00    	imul   $0x28fc,%eax,%eax
   307b2:	c7 80 5c c1 03 00 01 	movl   $0x1,0x3c15c(%eax)
   307b9:	00 00 00 
   307bc:	83 45 f4 01          	addl   $0x1,-0xc(%ebp)
   307c0:	83 7d f4 27          	cmpl   $0x27,-0xc(%ebp)
   307c4:	7e e3                	jle    307a9 <init_process_table+0x16>
   307c6:	e8 1e 3a 00 00       	call   341e9 <init_normal_process>
   307cb:	c7 05 80 86 03 00 00 	movl   $0x0,0x38680
   307d2:	00 00 00 
   307d5:	c7 05 88 86 03 00 0b 	movl   $0xb,0x38688
   307dc:	00 00 00 
   307df:	e8 28 25 00 00       	call   32d0c <init_tasks>
   307e4:	c9                   	leave  
   307e5:	c3                   	ret    

000307e6 <getProPointer>:
   307e6:	55                   	push   %ebp
   307e7:	89 e5                	mov    %esp,%ebp
   307e9:	8b 45 08             	mov    0x8(%ebp),%eax
   307ec:	83 e8 01             	sub    $0x1,%eax
   307ef:	69 c0 fc 28 00 00    	imul   $0x28fc,%eax,%eax
   307f5:	05 80 98 03 00       	add    $0x39880,%eax
   307fa:	5d                   	pop    %ebp
   307fb:	c3                   	ret    

000307fc <add_system_task>:
   307fc:	55                   	push   %ebp
   307fd:	89 e5                	mov    %esp,%ebp
   307ff:	83 ec 38             	sub    $0x38,%esp
   30802:	a1 80 86 03 00       	mov    0x38680,%eax
   30807:	69 c0 fc 28 00 00    	imul   $0x28fc,%eax,%eax
   3080d:	05 80 98 03 00       	add    $0x39880,%eax
   30812:	89 45 f0             	mov    %eax,-0x10(%ebp)
   30815:	a1 80 86 03 00       	mov    0x38680,%eax
   3081a:	83 c0 01             	add    $0x1,%eax
   3081d:	a3 80 86 03 00       	mov    %eax,0x38680
   30822:	c7 45 f4 02 12 00 00 	movl   $0x1202,-0xc(%ebp)
   30829:	8b 45 f0             	mov    -0x10(%ebp),%eax
   3082c:	05 d4 00 00 00       	add    $0xd4,%eax
   30831:	05 ff 27 00 00       	add    $0x27ff,%eax
   30836:	c7 44 24 1c 15 00 00 	movl   $0x15,0x1c(%esp)
   3083d:	00 
   3083e:	c7 44 24 18 0d 00 00 	movl   $0xd,0x18(%esp)
   30845:	00 
   30846:	c7 44 24 14 1d 00 00 	movl   $0x1d,0x14(%esp)
   3084d:	00 
   3084e:	89 44 24 10          	mov    %eax,0x10(%esp)
   30852:	8b 45 f4             	mov    -0xc(%ebp),%eax
   30855:	89 44 24 0c          	mov    %eax,0xc(%esp)
   30859:	c7 44 24 08 05 00 00 	movl   $0x5,0x8(%esp)
   30860:	00 
   30861:	8b 45 08             	mov    0x8(%ebp),%eax
   30864:	89 44 24 04          	mov    %eax,0x4(%esp)
   30868:	8b 45 f0             	mov    -0x10(%ebp),%eax
   3086b:	89 04 24             	mov    %eax,(%esp)
   3086e:	e8 df fd ff ff       	call   30652 <set_process_regs>
   30873:	c7 44 24 10 00 00 00 	movl   $0x0,0x10(%esp)
   3087a:	00 
   3087b:	c7 44 24 0c 01 00 00 	movl   $0x1,0xc(%esp)
   30882:	00 
   30883:	c7 44 24 08 1e 00 00 	movl   $0x1e,0x8(%esp)
   3088a:	00 
   3088b:	c7 44 24 04 1e 00 00 	movl   $0x1e,0x4(%esp)
   30892:	00 
   30893:	8b 45 f0             	mov    -0x10(%ebp),%eax
   30896:	89 04 24             	mov    %eax,(%esp)
   30899:	e8 5e fe ff ff       	call   306fc <initProcess>
   3089e:	8b 45 f0             	mov    -0x10(%ebp),%eax
   308a1:	83 c0 54             	add    $0x54,%eax
   308a4:	89 c2                	mov    %eax,%edx
   308a6:	a1 88 86 03 00       	mov    0x38688,%eax
   308ab:	c7 44 24 0c a2 40 00 	movl   $0x40a2,0xc(%esp)
   308b2:	00 
   308b3:	c7 44 24 08 7f 00 00 	movl   $0x7f,0x8(%esp)
   308ba:	00 
   308bb:	89 54 24 04          	mov    %edx,0x4(%esp)
   308bf:	89 04 24             	mov    %eax,(%esp)
   308c2:	e8 5b 09 00 00       	call   31222 <setGDTEntry>
   308c7:	a1 88 86 03 00       	mov    0x38688,%eax
   308cc:	c1 e0 03             	shl    $0x3,%eax
   308cf:	83 c0 01             	add    $0x1,%eax
   308d2:	89 c2                	mov    %eax,%edx
   308d4:	8b 45 f0             	mov    -0x10(%ebp),%eax
   308d7:	89 50 48             	mov    %edx,0x48(%eax)
   308da:	a1 88 86 03 00       	mov    0x38688,%eax
   308df:	83 c0 01             	add    $0x1,%eax
   308e2:	a3 88 86 03 00       	mov    %eax,0x38688
   308e7:	8b 45 f0             	mov    -0x10(%ebp),%eax
   308ea:	83 c0 54             	add    $0x54,%eax
   308ed:	c7 44 24 10 ba c0 00 	movl   $0xc0ba,0x10(%esp)
   308f4:	00 
   308f5:	c7 44 24 0c ff ff 00 	movl   $0xffff,0xc(%esp)
   308fc:	00 
   308fd:	c7 44 24 08 00 00 00 	movl   $0x0,0x8(%esp)
   30904:	00 
   30905:	c7 44 24 04 00 00 00 	movl   $0x0,0x4(%esp)
   3090c:	00 
   3090d:	89 04 24             	mov    %eax,(%esp)
   30910:	e8 b7 fc ff ff       	call   305cc <setLDTEntry>
   30915:	8b 45 f0             	mov    -0x10(%ebp),%eax
   30918:	83 c0 54             	add    $0x54,%eax
   3091b:	c7 44 24 10 b2 c0 00 	movl   $0xc0b2,0x10(%esp)
   30922:	00 
   30923:	c7 44 24 0c ff ff 00 	movl   $0xffff,0xc(%esp)
   3092a:	00 
   3092b:	c7 44 24 08 00 00 00 	movl   $0x0,0x8(%esp)
   30932:	00 
   30933:	c7 44 24 04 01 00 00 	movl   $0x1,0x4(%esp)
   3093a:	00 
   3093b:	89 04 24             	mov    %eax,(%esp)
   3093e:	e8 89 fc ff ff       	call   305cc <setLDTEntry>
   30943:	8b 45 f0             	mov    -0x10(%ebp),%eax
   30946:	83 c0 54             	add    $0x54,%eax
   30949:	c7 44 24 10 b2 c0 00 	movl   $0xc0b2,0x10(%esp)
   30950:	00 
   30951:	c7 44 24 0c ff ff 00 	movl   $0xffff,0xc(%esp)
   30958:	00 
   30959:	c7 44 24 08 00 00 00 	movl   $0x0,0x8(%esp)
   30960:	00 
   30961:	c7 44 24 04 02 00 00 	movl   $0x2,0x4(%esp)
   30968:	00 
   30969:	89 04 24             	mov    %eax,(%esp)
   3096c:	e8 5b fc ff ff       	call   305cc <setLDTEntry>
   30971:	8b 45 f0             	mov    -0x10(%ebp),%eax
   30974:	05 d4 00 00 00       	add    $0xd4,%eax
   30979:	05 ff 27 00 00       	add    $0x27ff,%eax
   3097e:	8b 55 f0             	mov    -0x10(%ebp),%edx
   30981:	83 c2 54             	add    $0x54,%edx
   30984:	c7 44 24 10 b2 40 00 	movl   $0x40b2,0x10(%esp)
   3098b:	00 
   3098c:	89 44 24 0c          	mov    %eax,0xc(%esp)
   30990:	c7 44 24 08 00 00 00 	movl   $0x0,0x8(%esp)
   30997:	00 
   30998:	c7 44 24 04 03 00 00 	movl   $0x3,0x4(%esp)
   3099f:	00 
   309a0:	89 14 24             	mov    %edx,(%esp)
   309a3:	e8 24 fc ff ff       	call   305cc <setLDTEntry>
   309a8:	c9                   	leave  
   309a9:	c3                   	ret    
   309aa:	90                   	nop
   309ab:	90                   	nop

000309ac <printf_kernel>:
   309ac:	55                   	push   %ebp
   309ad:	89 e5                	mov    %esp,%ebp
   309af:	81 ec 28 01 00 00    	sub    $0x128,%esp
   309b5:	8d 45 08             	lea    0x8(%ebp),%eax
   309b8:	83 c0 04             	add    $0x4,%eax
   309bb:	89 45 f4             	mov    %eax,-0xc(%ebp)
   309be:	8b 45 08             	mov    0x8(%ebp),%eax
   309c1:	89 44 24 08          	mov    %eax,0x8(%esp)
   309c5:	8b 45 f4             	mov    -0xc(%ebp),%eax
   309c8:	89 44 24 04          	mov    %eax,0x4(%esp)
   309cc:	8d 85 f0 fe ff ff    	lea    -0x110(%ebp),%eax
   309d2:	89 04 24             	mov    %eax,(%esp)
   309d5:	e8 1d 00 00 00       	call   309f7 <vsprintf>
   309da:	89 45 f0             	mov    %eax,-0x10(%ebp)
   309dd:	8b 45 f0             	mov    -0x10(%ebp),%eax
   309e0:	89 44 24 04          	mov    %eax,0x4(%esp)
   309e4:	8d 85 f0 fe ff ff    	lea    -0x110(%ebp),%eax
   309ea:	89 04 24             	mov    %eax,(%esp)
   309ed:	e8 02 01 00 00       	call   30af4 <kernel_printx>
   309f2:	8b 45 f0             	mov    -0x10(%ebp),%eax
   309f5:	c9                   	leave  
   309f6:	c3                   	ret    

000309f7 <vsprintf>:
   309f7:	55                   	push   %ebp
   309f8:	89 e5                	mov    %esp,%ebp
   309fa:	81 ec 28 01 00 00    	sub    $0x128,%esp
   30a00:	8b 45 0c             	mov    0xc(%ebp),%eax
   30a03:	89 45 f0             	mov    %eax,-0x10(%ebp)
   30a06:	8b 45 08             	mov    0x8(%ebp),%eax
   30a09:	89 45 ec             	mov    %eax,-0x14(%ebp)
   30a0c:	e9 c7 00 00 00       	jmp    30ad8 <vsprintf+0xe1>
   30a11:	8b 45 10             	mov    0x10(%ebp),%eax
   30a14:	0f b6 00             	movzbl (%eax),%eax
   30a17:	3c 25                	cmp    $0x25,%al
   30a19:	74 14                	je     30a2f <vsprintf+0x38>
   30a1b:	8b 45 10             	mov    0x10(%ebp),%eax
   30a1e:	0f b6 10             	movzbl (%eax),%edx
   30a21:	8b 45 ec             	mov    -0x14(%ebp),%eax
   30a24:	88 10                	mov    %dl,(%eax)
   30a26:	83 45 ec 01          	addl   $0x1,-0x14(%ebp)
   30a2a:	e9 a5 00 00 00       	jmp    30ad4 <vsprintf+0xdd>
   30a2f:	83 45 10 01          	addl   $0x1,0x10(%ebp)
   30a33:	8b 45 10             	mov    0x10(%ebp),%eax
   30a36:	0f b6 00             	movzbl (%eax),%eax
   30a39:	0f be c0             	movsbl %al,%eax
   30a3c:	83 f8 64             	cmp    $0x64,%eax
   30a3f:	74 0f                	je     30a50 <vsprintf+0x59>
   30a41:	83 f8 73             	cmp    $0x73,%eax
   30a44:	74 62                	je     30aa8 <vsprintf+0xb1>
   30a46:	83 f8 63             	cmp    $0x63,%eax
   30a49:	74 48                	je     30a93 <vsprintf+0x9c>
   30a4b:	e9 84 00 00 00       	jmp    30ad4 <vsprintf+0xdd>
   30a50:	8b 45 f0             	mov    -0x10(%ebp),%eax
   30a53:	8b 00                	mov    (%eax),%eax
   30a55:	89 44 24 04          	mov    %eax,0x4(%esp)
   30a59:	8d 85 ec fe ff ff    	lea    -0x114(%ebp),%eax
   30a5f:	89 04 24             	mov    %eax,(%esp)
   30a62:	e8 b3 21 00 00       	call   32c1a <itoa>
   30a67:	8d 85 ec fe ff ff    	lea    -0x114(%ebp),%eax
   30a6d:	89 44 24 04          	mov    %eax,0x4(%esp)
   30a71:	8b 45 ec             	mov    -0x14(%ebp),%eax
   30a74:	89 04 24             	mov    %eax,(%esp)
   30a77:	e8 36 22 00 00       	call   32cb2 <strcpy>
   30a7c:	83 45 f0 04          	addl   $0x4,-0x10(%ebp)
   30a80:	8d 85 ec fe ff ff    	lea    -0x114(%ebp),%eax
   30a86:	89 04 24             	mov    %eax,(%esp)
   30a89:	e8 58 22 00 00       	call   32ce6 <strlen>
   30a8e:	01 45 ec             	add    %eax,-0x14(%ebp)
   30a91:	eb 41                	jmp    30ad4 <vsprintf+0xdd>
   30a93:	8b 45 f0             	mov    -0x10(%ebp),%eax
   30a96:	0f b6 10             	movzbl (%eax),%edx
   30a99:	8b 45 ec             	mov    -0x14(%ebp),%eax
   30a9c:	88 10                	mov    %dl,(%eax)
   30a9e:	83 45 f0 04          	addl   $0x4,-0x10(%ebp)
   30aa2:	83 45 ec 01          	addl   $0x1,-0x14(%ebp)
   30aa6:	eb 2c                	jmp    30ad4 <vsprintf+0xdd>
   30aa8:	8b 45 f0             	mov    -0x10(%ebp),%eax
   30aab:	8b 00                	mov    (%eax),%eax
   30aad:	89 45 f4             	mov    %eax,-0xc(%ebp)
   30ab0:	8b 45 f4             	mov    -0xc(%ebp),%eax
   30ab3:	89 44 24 04          	mov    %eax,0x4(%esp)
   30ab7:	8b 45 ec             	mov    -0x14(%ebp),%eax
   30aba:	89 04 24             	mov    %eax,(%esp)
   30abd:	e8 f0 21 00 00       	call   32cb2 <strcpy>
   30ac2:	8b 45 f4             	mov    -0xc(%ebp),%eax
   30ac5:	89 04 24             	mov    %eax,(%esp)
   30ac8:	e8 19 22 00 00       	call   32ce6 <strlen>
   30acd:	01 45 ec             	add    %eax,-0x14(%ebp)
   30ad0:	83 45 f0 04          	addl   $0x4,-0x10(%ebp)
   30ad4:	83 45 10 01          	addl   $0x1,0x10(%ebp)
   30ad8:	8b 45 10             	mov    0x10(%ebp),%eax
   30adb:	0f b6 00             	movzbl (%eax),%eax
   30ade:	84 c0                	test   %al,%al
   30ae0:	0f 85 2b ff ff ff    	jne    30a11 <vsprintf+0x1a>
   30ae6:	8b 55 ec             	mov    -0x14(%ebp),%edx
   30ae9:	8b 45 08             	mov    0x8(%ebp),%eax
   30aec:	89 d1                	mov    %edx,%ecx
   30aee:	29 c1                	sub    %eax,%ecx
   30af0:	89 c8                	mov    %ecx,%eax
   30af2:	c9                   	leave  
   30af3:	c3                   	ret    

00030af4 <kernel_printx>:
   30af4:	55                   	push   %ebp
   30af5:	89 e5                	mov    %esp,%ebp
   30af7:	83 ec 28             	sub    $0x28,%esp
   30afa:	c7 45 ec 00 00 00 00 	movl   $0x0,-0x14(%ebp)
   30b01:	c7 45 f0 00 00 00 00 	movl   $0x0,-0x10(%ebp)
   30b08:	c7 45 f4 00 00 00 00 	movl   $0x0,-0xc(%ebp)
   30b0f:	c7 45 ec 00 00 00 00 	movl   $0x0,-0x14(%ebp)
   30b16:	eb 47                	jmp    30b5f <kernel_printx+0x6b>
   30b18:	8b 45 ec             	mov    -0x14(%ebp),%eax
   30b1b:	03 45 08             	add    0x8(%ebp),%eax
   30b1e:	0f b6 00             	movzbl (%eax),%eax
   30b21:	3c 02                	cmp    $0x2,%al
   30b23:	74 32                	je     30b57 <kernel_printx+0x63>
   30b25:	8b 45 ec             	mov    -0x14(%ebp),%eax
   30b28:	03 45 08             	add    0x8(%ebp),%eax
   30b2b:	0f b6 00             	movzbl (%eax),%eax
   30b2e:	3c 03                	cmp    $0x3,%al
   30b30:	74 28                	je     30b5a <kernel_printx+0x66>
   30b32:	8b 45 ec             	mov    -0x14(%ebp),%eax
   30b35:	03 45 08             	add    0x8(%ebp),%eax
   30b38:	0f b6 00             	movzbl (%eax),%eax
   30b3b:	0f be c0             	movsbl %al,%eax
   30b3e:	89 44 24 04          	mov    %eax,0x4(%esp)
   30b42:	8b 45 f0             	mov    -0x10(%ebp),%eax
   30b45:	89 04 24             	mov    %eax,(%esp)
   30b48:	e8 cb 2b 00 00       	call   33718 <printChar>
   30b4d:	85 c0                	test   %eax,%eax
   30b4f:	75 0a                	jne    30b5b <kernel_printx+0x67>
   30b51:	83 45 f4 01          	addl   $0x1,-0xc(%ebp)
   30b55:	eb 04                	jmp    30b5b <kernel_printx+0x67>
   30b57:	90                   	nop
   30b58:	eb 01                	jmp    30b5b <kernel_printx+0x67>
   30b5a:	90                   	nop
   30b5b:	83 45 ec 01          	addl   $0x1,-0x14(%ebp)
   30b5f:	8b 45 ec             	mov    -0x14(%ebp),%eax
   30b62:	3b 45 0c             	cmp    0xc(%ebp),%eax
   30b65:	7d 0d                	jge    30b74 <kernel_printx+0x80>
   30b67:	8b 45 ec             	mov    -0x14(%ebp),%eax
   30b6a:	03 45 08             	add    0x8(%ebp),%eax
   30b6d:	0f b6 00             	movzbl (%eax),%eax
   30b70:	84 c0                	test   %al,%al
   30b72:	75 a4                	jne    30b18 <kernel_printx+0x24>
   30b74:	8b 45 ec             	mov    -0x14(%ebp),%eax
   30b77:	c9                   	leave  
   30b78:	c3                   	ret    
   30b79:	90                   	nop
   30b7a:	90                   	nop
   30b7b:	90                   	nop

00030b7c <schedule>:
   30b7c:	55                   	push   %ebp
   30b7d:	89 e5                	mov    %esp,%ebp
   30b7f:	83 ec 38             	sub    $0x38,%esp
   30b82:	c7 45 e8 00 00 00 00 	movl   $0x0,-0x18(%ebp)
   30b89:	c7 45 ec ff ff ff ff 	movl   $0xffffffff,-0x14(%ebp)
   30b90:	c7 45 f0 00 00 00 00 	movl   $0x0,-0x10(%ebp)
   30b97:	a1 60 8f 03 00       	mov    0x38f60,%eax
   30b9c:	89 45 f4             	mov    %eax,-0xc(%ebp)
   30b9f:	a1 60 c1 03 00       	mov    0x3c160,%eax
   30ba4:	85 c0                	test   %eax,%eax
   30ba6:	74 0e                	je     30bb6 <schedule+0x3a>
   30ba8:	c7 04 24 88 46 03 00 	movl   $0x34688,(%esp)
   30baf:	e8 f8 fd ff ff       	call   309ac <printf_kernel>
   30bb4:	fa                   	cli    
   30bb5:	f4                   	hlt    
   30bb6:	a1 60 8f 03 00       	mov    0x38f60,%eax
   30bbb:	89 45 e4             	mov    %eax,-0x1c(%ebp)
   30bbe:	eb 32                	jmp    30bf2 <schedule+0x76>
   30bc0:	8b 45 e4             	mov    -0x1c(%ebp),%eax
   30bc3:	69 c0 fc 28 00 00    	imul   $0x28fc,%eax,%eax
   30bc9:	8b 80 5c c1 03 00    	mov    0x3c15c(%eax),%eax
   30bcf:	85 c0                	test   %eax,%eax
   30bd1:	75 1b                	jne    30bee <schedule+0x72>
   30bd3:	8b 45 e4             	mov    -0x1c(%ebp),%eax
   30bd6:	69 c0 fc 28 00 00    	imul   $0x28fc,%eax,%eax
   30bdc:	8b 80 60 c1 03 00    	mov    0x3c160(%eax),%eax
   30be2:	85 c0                	test   %eax,%eax
   30be4:	75 08                	jne    30bee <schedule+0x72>
   30be6:	8b 45 e4             	mov    -0x1c(%ebp),%eax
   30be9:	89 45 ec             	mov    %eax,-0x14(%ebp)
   30bec:	eb 0a                	jmp    30bf8 <schedule+0x7c>
   30bee:	83 45 e4 01          	addl   $0x1,-0x1c(%ebp)
   30bf2:	83 7d e4 27          	cmpl   $0x27,-0x1c(%ebp)
   30bf6:	7e c8                	jle    30bc0 <schedule+0x44>
   30bf8:	83 7d ec ff          	cmpl   $0xffffffff,-0x14(%ebp)
   30bfc:	75 4b                	jne    30c49 <schedule+0xcd>
   30bfe:	c7 45 e4 00 00 00 00 	movl   $0x0,-0x1c(%ebp)
   30c05:	eb 32                	jmp    30c39 <schedule+0xbd>
   30c07:	8b 45 e4             	mov    -0x1c(%ebp),%eax
   30c0a:	69 c0 fc 28 00 00    	imul   $0x28fc,%eax,%eax
   30c10:	8b 80 5c c1 03 00    	mov    0x3c15c(%eax),%eax
   30c16:	85 c0                	test   %eax,%eax
   30c18:	75 1b                	jne    30c35 <schedule+0xb9>
   30c1a:	8b 45 e4             	mov    -0x1c(%ebp),%eax
   30c1d:	69 c0 fc 28 00 00    	imul   $0x28fc,%eax,%eax
   30c23:	8b 80 60 c1 03 00    	mov    0x3c160(%eax),%eax
   30c29:	85 c0                	test   %eax,%eax
   30c2b:	75 08                	jne    30c35 <schedule+0xb9>
   30c2d:	8b 45 e4             	mov    -0x1c(%ebp),%eax
   30c30:	89 45 ec             	mov    %eax,-0x14(%ebp)
   30c33:	eb 14                	jmp    30c49 <schedule+0xcd>
   30c35:	83 45 e4 01          	addl   $0x1,-0x1c(%ebp)
   30c39:	8b 45 e4             	mov    -0x1c(%ebp),%eax
   30c3c:	8b 15 60 8f 03 00    	mov    0x38f60,%edx
   30c42:	83 ea 01             	sub    $0x1,%edx
   30c45:	39 d0                	cmp    %edx,%eax
   30c47:	72 be                	jb     30c07 <schedule+0x8b>
   30c49:	83 7d ec ff          	cmpl   $0xffffffff,-0x14(%ebp)
   30c4d:	75 28                	jne    30c77 <schedule+0xfb>
   30c4f:	a1 60 8f 03 00       	mov    0x38f60,%eax
   30c54:	83 e8 01             	sub    $0x1,%eax
   30c57:	69 c0 fc 28 00 00    	imul   $0x28fc,%eax,%eax
   30c5d:	8b 80 60 c1 03 00    	mov    0x3c160(%eax),%eax
   30c63:	85 c0                	test   %eax,%eax
   30c65:	74 1e                	je     30c85 <schedule+0x109>
   30c67:	c7 04 24 a0 46 03 00 	movl   $0x346a0,(%esp)
   30c6e:	e8 39 fd ff ff       	call   309ac <printf_kernel>
   30c73:	fa                   	cli    
   30c74:	f4                   	hlt    
   30c75:	eb 0f                	jmp    30c86 <schedule+0x10a>
   30c77:	8b 45 ec             	mov    -0x14(%ebp),%eax
   30c7a:	83 c0 01             	add    $0x1,%eax
   30c7d:	a3 60 8f 03 00       	mov    %eax,0x38f60
   30c82:	90                   	nop
   30c83:	eb 01                	jmp    30c86 <schedule+0x10a>
   30c85:	90                   	nop
   30c86:	c9                   	leave  
   30c87:	c3                   	ret    

00030c88 <save_sys_call_ret>:
   30c88:	55                   	push   %ebp
   30c89:	89 e5                	mov    %esp,%ebp
   30c8b:	8b 45 08             	mov    0x8(%ebp),%eax
   30c8e:	83 e8 01             	sub    $0x1,%eax
   30c91:	8b 55 0c             	mov    0xc(%ebp),%edx
   30c94:	69 c0 fc 28 00 00    	imul   $0x28fc,%eax,%eax
   30c9a:	89 90 ac 98 03 00    	mov    %edx,0x398ac(%eax)
   30ca0:	5d                   	pop    %ebp
   30ca1:	c3                   	ret    

00030ca2 <sys_get_ticks>:
   30ca2:	55                   	push   %ebp
   30ca3:	89 e5                	mov    %esp,%ebp
   30ca5:	a1 60 98 03 00       	mov    0x39860,%eax
   30caa:	5d                   	pop    %ebp
   30cab:	c3                   	ret    

00030cac <sys_printx>:
   30cac:	55                   	push   %ebp
   30cad:	89 e5                	mov    %esp,%ebp
   30caf:	83 ec 68             	sub    $0x68,%esp
   30cb2:	c7 45 e0 00 00 00 00 	movl   $0x0,-0x20(%ebp)
   30cb9:	c7 45 b4 3f 20 6b 5f 	movl   $0x5f6b203f,-0x4c(%ebp)
   30cc0:	c7 45 b8 72 65 65 6e 	movl   $0x6e656572,-0x48(%ebp)
   30cc7:	c7 45 bc 74 65 72 20 	movl   $0x20726574,-0x44(%ebp)
   30cce:	c7 45 c0 69 73 20 69 	movl   $0x69207369,-0x40(%ebp)
   30cd5:	c7 45 c4 6e 63 6f 72 	movl   $0x726f636e,-0x3c(%ebp)
   30cdc:	c7 45 c8 72 65 63 74 	movl   $0x74636572,-0x38(%ebp)
   30ce3:	c7 45 cc 20 66 6f 72 	movl   $0x726f6620,-0x34(%ebp)
   30cea:	c7 45 d0 20 75 6e 6b 	movl   $0x6b6e7520,-0x30(%ebp)
   30cf1:	c7 45 d4 6e 6f 77 6e 	movl   $0x6e776f6e,-0x2c(%ebp)
   30cf8:	c7 45 d8 20 72 65 61 	movl   $0x61657220,-0x28(%ebp)
   30cff:	c7 45 dc 73 6f 6e 00 	movl   $0x6e6f73,-0x24(%ebp)
   30d06:	c6 45 b4 02          	movb   $0x2,-0x4c(%ebp)
   30d0a:	a1 48 8b 03 00       	mov    0x38b48,%eax
   30d0f:	85 c0                	test   %eax,%eax
   30d11:	75 17                	jne    30d2a <sys_printx+0x7e>
   30d13:	8b 45 0c             	mov    0xc(%ebp),%eax
   30d16:	89 44 24 04          	mov    %eax,0x4(%esp)
   30d1a:	8b 45 08             	mov    0x8(%ebp),%eax
   30d1d:	89 04 24             	mov    %eax,(%esp)
   30d20:	e8 0a 17 00 00       	call   3242f <va2la>
   30d25:	89 45 e0             	mov    %eax,-0x20(%ebp)
   30d28:	eb 17                	jmp    30d41 <sys_printx+0x95>
   30d2a:	a1 48 8b 03 00       	mov    0x38b48,%eax
   30d2f:	85 c0                	test   %eax,%eax
   30d31:	7e 08                	jle    30d3b <sys_printx+0x8f>
   30d33:	8b 45 0c             	mov    0xc(%ebp),%eax
   30d36:	89 45 e0             	mov    %eax,-0x20(%ebp)
   30d39:	eb 06                	jmp    30d41 <sys_printx+0x95>
   30d3b:	8d 45 b4             	lea    -0x4c(%ebp),%eax
   30d3e:	89 45 e0             	mov    %eax,-0x20(%ebp)
   30d41:	83 7d 08 00          	cmpl   $0x0,0x8(%ebp)
   30d45:	75 0b                	jne    30d52 <sys_printx+0xa6>
   30d47:	8b 45 0c             	mov    0xc(%ebp),%eax
   30d4a:	89 45 e0             	mov    %eax,-0x20(%ebp)
   30d4d:	e9 b1 00 00 00       	jmp    30e03 <sys_printx+0x157>
   30d52:	8b 45 e0             	mov    -0x20(%ebp),%eax
   30d55:	0f b6 00             	movzbl (%eax),%eax
   30d58:	3c 02                	cmp    $0x2,%al
   30d5a:	74 18                	je     30d74 <sys_printx+0xc8>
   30d5c:	8b 45 e0             	mov    -0x20(%ebp),%eax
   30d5f:	0f b6 00             	movzbl (%eax),%eax
   30d62:	3c 03                	cmp    $0x3,%al
   30d64:	0f 85 99 00 00 00    	jne    30e03 <sys_printx+0x157>
   30d6a:	83 7d 08 13          	cmpl   $0x13,0x8(%ebp)
   30d6e:	0f 8f 8f 00 00 00    	jg     30e03 <sys_printx+0x157>
   30d74:	e8 27 1d 00 00       	call   32aa0 <disable_int>
   30d79:	c7 45 f0 00 80 0b 00 	movl   $0xb8000,-0x10(%ebp)
   30d80:	8b 45 e0             	mov    -0x20(%ebp),%eax
   30d83:	83 c0 01             	add    $0x1,%eax
   30d86:	89 45 f4             	mov    %eax,-0xc(%ebp)
   30d89:	eb 6e                	jmp    30df9 <sys_printx+0x14d>
   30d8b:	8b 45 f4             	mov    -0xc(%ebp),%eax
   30d8e:	0f b6 10             	movzbl (%eax),%edx
   30d91:	8b 45 f0             	mov    -0x10(%ebp),%eax
   30d94:	88 10                	mov    %dl,(%eax)
   30d96:	83 45 f0 01          	addl   $0x1,-0x10(%ebp)
   30d9a:	83 45 f4 01          	addl   $0x1,-0xc(%ebp)
   30d9e:	8b 45 f0             	mov    -0x10(%ebp),%eax
   30da1:	c6 00 1c             	movb   $0x1c,(%eax)
   30da4:	83 45 f0 01          	addl   $0x1,-0x10(%ebp)
   30da8:	8b 45 f4             	mov    -0xc(%ebp),%eax
   30dab:	0f b6 00             	movzbl (%eax),%eax
   30dae:	84 c0                	test   %al,%al
   30db0:	75 47                	jne    30df9 <sys_printx+0x14d>
   30db2:	eb 0e                	jmp    30dc2 <sys_printx+0x116>
   30db4:	83 45 f0 01          	addl   $0x1,-0x10(%ebp)
   30db8:	8b 45 f0             	mov    -0x10(%ebp),%eax
   30dbb:	c6 00 08             	movb   $0x8,(%eax)
   30dbe:	83 45 f0 01          	addl   $0x1,-0x10(%ebp)
   30dc2:	8b 45 f0             	mov    -0x10(%ebp),%eax
   30dc5:	8d 88 00 80 f4 ff    	lea    -0xb8000(%eax),%ecx
   30dcb:	ba 67 66 66 66       	mov    $0x66666667,%edx
   30dd0:	89 c8                	mov    %ecx,%eax
   30dd2:	f7 ea                	imul   %edx
   30dd4:	c1 fa 09             	sar    $0x9,%edx
   30dd7:	89 c8                	mov    %ecx,%eax
   30dd9:	c1 f8 1f             	sar    $0x1f,%eax
   30ddc:	29 c2                	sub    %eax,%edx
   30dde:	89 d0                	mov    %edx,%eax
   30de0:	c1 e0 02             	shl    $0x2,%eax
   30de3:	01 d0                	add    %edx,%eax
   30de5:	c1 e0 08             	shl    $0x8,%eax
   30de8:	89 ca                	mov    %ecx,%edx
   30dea:	29 c2                	sub    %eax,%edx
   30dec:	85 d2                	test   %edx,%edx
   30dee:	75 c4                	jne    30db4 <sys_printx+0x108>
   30df0:	8b 45 e0             	mov    -0x20(%ebp),%eax
   30df3:	83 c0 01             	add    $0x1,%eax
   30df6:	89 45 f4             	mov    %eax,-0xc(%ebp)
   30df9:	81 7d f0 ff ff 0b 00 	cmpl   $0xbffff,-0x10(%ebp)
   30e00:	76 89                	jbe    30d8b <sys_printx+0xdf>
   30e02:	f4                   	hlt    
   30e03:	c7 45 e4 00 00 00 00 	movl   $0x0,-0x1c(%ebp)
   30e0a:	8b 45 08             	mov    0x8(%ebp),%eax
   30e0d:	83 e8 01             	sub    $0x1,%eax
   30e10:	69 c0 fc 28 00 00    	imul   $0x28fc,%eax,%eax
   30e16:	8b 80 58 c1 03 00    	mov    0x3c158(%eax),%eax
   30e1c:	89 45 e8             	mov    %eax,-0x18(%ebp)
   30e1f:	c7 45 ec 00 00 00 00 	movl   $0x0,-0x14(%ebp)
   30e26:	c7 45 e4 00 00 00 00 	movl   $0x0,-0x1c(%ebp)
   30e2d:	eb 47                	jmp    30e76 <sys_printx+0x1ca>
   30e2f:	8b 45 e4             	mov    -0x1c(%ebp),%eax
   30e32:	03 45 0c             	add    0xc(%ebp),%eax
   30e35:	0f b6 00             	movzbl (%eax),%eax
   30e38:	3c 02                	cmp    $0x2,%al
   30e3a:	74 32                	je     30e6e <sys_printx+0x1c2>
   30e3c:	8b 45 e4             	mov    -0x1c(%ebp),%eax
   30e3f:	03 45 0c             	add    0xc(%ebp),%eax
   30e42:	0f b6 00             	movzbl (%eax),%eax
   30e45:	3c 03                	cmp    $0x3,%al
   30e47:	74 28                	je     30e71 <sys_printx+0x1c5>
   30e49:	8b 45 e4             	mov    -0x1c(%ebp),%eax
   30e4c:	03 45 0c             	add    0xc(%ebp),%eax
   30e4f:	0f b6 00             	movzbl (%eax),%eax
   30e52:	0f be c0             	movsbl %al,%eax
   30e55:	89 44 24 04          	mov    %eax,0x4(%esp)
   30e59:	8b 45 e8             	mov    -0x18(%ebp),%eax
   30e5c:	89 04 24             	mov    %eax,(%esp)
   30e5f:	e8 b4 28 00 00       	call   33718 <printChar>
   30e64:	85 c0                	test   %eax,%eax
   30e66:	75 0a                	jne    30e72 <sys_printx+0x1c6>
   30e68:	83 45 ec 01          	addl   $0x1,-0x14(%ebp)
   30e6c:	eb 04                	jmp    30e72 <sys_printx+0x1c6>
   30e6e:	90                   	nop
   30e6f:	eb 01                	jmp    30e72 <sys_printx+0x1c6>
   30e71:	90                   	nop
   30e72:	83 45 e4 01          	addl   $0x1,-0x1c(%ebp)
   30e76:	8b 45 e4             	mov    -0x1c(%ebp),%eax
   30e79:	3b 45 10             	cmp    0x10(%ebp),%eax
   30e7c:	7d 0d                	jge    30e8b <sys_printx+0x1df>
   30e7e:	8b 45 e4             	mov    -0x1c(%ebp),%eax
   30e81:	03 45 0c             	add    0xc(%ebp),%eax
   30e84:	0f b6 00             	movzbl (%eax),%eax
   30e87:	84 c0                	test   %al,%al
   30e89:	75 a4                	jne    30e2f <sys_printx+0x183>
   30e8b:	8b 45 e4             	mov    -0x1c(%ebp),%eax
   30e8e:	c9                   	leave  
   30e8f:	c3                   	ret    

00030e90 <sys_sendrec>:
   30e90:	55                   	push   %ebp
   30e91:	89 e5                	mov    %esp,%ebp
   30e93:	83 ec 18             	sub    $0x18,%esp
   30e96:	83 7d 0c 01          	cmpl   $0x1,0xc(%ebp)
   30e9a:	75 49                	jne    30ee5 <sys_sendrec+0x55>
   30e9c:	8b 45 14             	mov    0x14(%ebp),%eax
   30e9f:	8b 55 08             	mov    0x8(%ebp),%edx
   30ea2:	89 10                	mov    %edx,(%eax)
   30ea4:	8b 45 14             	mov    0x14(%ebp),%eax
   30ea7:	89 44 24 08          	mov    %eax,0x8(%esp)
   30eab:	8b 45 10             	mov    0x10(%ebp),%eax
   30eae:	89 44 24 04          	mov    %eax,0x4(%esp)
   30eb2:	8b 45 08             	mov    0x8(%ebp),%eax
   30eb5:	89 04 24             	mov    %eax,(%esp)
   30eb8:	e8 9b 04 00 00       	call   31358 <msg_send>
   30ebd:	83 7d 08 01          	cmpl   $0x1,0x8(%ebp)
   30ec1:	74 06                	je     30ec9 <sys_sendrec+0x39>
   30ec3:	83 7d 10 01          	cmpl   $0x1,0x10(%ebp)
   30ec7:	75 7b                	jne    30f44 <sys_sendrec+0xb4>
   30ec9:	8b 45 10             	mov    0x10(%ebp),%eax
   30ecc:	89 44 24 08          	mov    %eax,0x8(%esp)
   30ed0:	8b 45 08             	mov    0x8(%ebp),%eax
   30ed3:	89 44 24 04          	mov    %eax,0x4(%esp)
   30ed7:	c7 04 24 c4 46 03 00 	movl   $0x346c4,(%esp)
   30ede:	e8 c9 fa ff ff       	call   309ac <printf_kernel>
   30ee3:	eb 60                	jmp    30f45 <sys_sendrec+0xb5>
   30ee5:	83 7d 0c 02          	cmpl   $0x2,0xc(%ebp)
   30ee9:	75 4b                	jne    30f36 <sys_sendrec+0xa6>
   30eeb:	83 7d 08 01          	cmpl   $0x1,0x8(%ebp)
   30eef:	74 06                	je     30ef7 <sys_sendrec+0x67>
   30ef1:	83 7d 10 01          	cmpl   $0x1,0x10(%ebp)
   30ef5:	75 24                	jne    30f1b <sys_sendrec+0x8b>
   30ef7:	8b 45 14             	mov    0x14(%ebp),%eax
   30efa:	8b 40 08             	mov    0x8(%eax),%eax
   30efd:	89 44 24 0c          	mov    %eax,0xc(%esp)
   30f01:	8b 45 10             	mov    0x10(%ebp),%eax
   30f04:	89 44 24 08          	mov    %eax,0x8(%esp)
   30f08:	8b 45 08             	mov    0x8(%ebp),%eax
   30f0b:	89 44 24 04          	mov    %eax,0x4(%esp)
   30f0f:	c7 04 24 d9 46 03 00 	movl   $0x346d9,(%esp)
   30f16:	e8 91 fa ff ff       	call   309ac <printf_kernel>
   30f1b:	8b 45 14             	mov    0x14(%ebp),%eax
   30f1e:	89 44 24 08          	mov    %eax,0x8(%esp)
   30f22:	8b 45 10             	mov    0x10(%ebp),%eax
   30f25:	89 44 24 04          	mov    %eax,0x4(%esp)
   30f29:	8b 45 08             	mov    0x8(%ebp),%eax
   30f2c:	89 04 24             	mov    %eax,(%esp)
   30f2f:	e8 48 07 00 00       	call   3167c <msg_receive>
   30f34:	eb 0f                	jmp    30f45 <sys_sendrec+0xb5>
   30f36:	c7 04 24 f8 46 03 00 	movl   $0x346f8,(%esp)
   30f3d:	e8 9c 1a 00 00       	call   329de <panic>
   30f42:	eb 01                	jmp    30f45 <sys_sendrec+0xb5>
   30f44:	90                   	nop
   30f45:	b8 01 00 00 00       	mov    $0x1,%eax
   30f4a:	c9                   	leave  
   30f4b:	c3                   	ret    

00030f4c <init_sys_call>:
   30f4c:	55                   	push   %ebp
   30f4d:	89 e5                	mov    %esp,%ebp
   30f4f:	c7 05 04 90 03 00 ac 	movl   $0x30cac,0x39004
   30f56:	0c 03 00 
   30f59:	c7 05 08 90 03 00 90 	movl   $0x30e90,0x39008
   30f60:	0e 03 00 
   30f63:	5d                   	pop    %ebp
   30f64:	c3                   	ret    
   30f65:	90                   	nop
   30f66:	90                   	nop
   30f67:	90                   	nop
   30f68:	90                   	nop
   30f69:	90                   	nop
   30f6a:	90                   	nop
   30f6b:	90                   	nop
   30f6c:	90                   	nop
   30f6d:	90                   	nop
   30f6e:	90                   	nop
   30f6f:	90                   	nop

00030f70 <divide_error>:
   30f70:	68 ff ff ff ff       	push   $0xffffffff
   30f75:	68 00 00 00 00       	push   $0x0
   30f7a:	e9 eb 00 00 00       	jmp    3106a <exception>

00030f7f <single_step_exception>:
   30f7f:	68 ff ff ff ff       	push   $0xffffffff
   30f84:	68 01 00 00 00       	push   $0x1
   30f89:	e9 dc 00 00 00       	jmp    3106a <exception>

00030f8e <nmi>:
   30f8e:	68 ff ff ff ff       	push   $0xffffffff
   30f93:	68 02 00 00 00       	push   $0x2
   30f98:	e9 cd 00 00 00       	jmp    3106a <exception>

00030f9d <breakpoint_exception>:
   30f9d:	68 ff ff ff ff       	push   $0xffffffff
   30fa2:	68 03 00 00 00       	push   $0x3
   30fa7:	e9 be 00 00 00       	jmp    3106a <exception>

00030fac <overflow>:
   30fac:	68 ff ff ff ff       	push   $0xffffffff
   30fb1:	68 04 00 00 00       	push   $0x4
   30fb6:	e9 af 00 00 00       	jmp    3106a <exception>

00030fbb <bounds_check>:
   30fbb:	68 ff ff ff ff       	push   $0xffffffff
   30fc0:	68 05 00 00 00       	push   $0x5
   30fc5:	e9 a0 00 00 00       	jmp    3106a <exception>

00030fca <inval_opcode>:
   30fca:	68 ff ff ff ff       	push   $0xffffffff
   30fcf:	68 06 00 00 00       	push   $0x6
   30fd4:	e9 91 00 00 00       	jmp    3106a <exception>

00030fd9 <copr_not_available>:
   30fd9:	68 ff ff ff ff       	push   $0xffffffff
   30fde:	68 07 00 00 00       	push   $0x7
   30fe3:	e9 82 00 00 00       	jmp    3106a <exception>

00030fe8 <double_fault>:
   30fe8:	68 08 00 00 00       	push   $0x8
   30fed:	e9 78 00 00 00       	jmp    3106a <exception>

00030ff2 <copr_seg_overrun>:
   30ff2:	68 ff ff ff ff       	push   $0xffffffff
   30ff7:	68 09 00 00 00       	push   $0x9
   30ffc:	e9 69 00 00 00       	jmp    3106a <exception>

00031001 <inval_tss>:
   31001:	68 0a 00 00 00       	push   $0xa
   31006:	e9 5f 00 00 00       	jmp    3106a <exception>

0003100b <segment_not_present>:
   3100b:	68 0b 00 00 00       	push   $0xb
   31010:	e9 55 00 00 00       	jmp    3106a <exception>

00031015 <stack_exception>:
   31015:	68 0c 00 00 00       	push   $0xc
   3101a:	e9 4b 00 00 00       	jmp    3106a <exception>

0003101f <general_protection>:
   3101f:	68 0d 00 00 00       	push   $0xd
   31024:	e9 41 00 00 00       	jmp    3106a <exception>

00031029 <page_fault>:
   31029:	68 0e 00 00 00       	push   $0xe
   3102e:	e9 37 00 00 00       	jmp    3106a <exception>

00031033 <copr_error>:
   31033:	68 ff ff ff ff       	push   $0xffffffff
   31038:	68 10 00 00 00       	push   $0x10
   3103d:	e9 28 00 00 00       	jmp    3106a <exception>

00031042 <align_error>:
   31042:	68 11 00 00 00       	push   $0x11
   31047:	e9 1e 00 00 00       	jmp    3106a <exception>

0003104c <machine_error>:
   3104c:	68 ff ff ff ff       	push   $0xffffffff
   31051:	68 12 00 00 00       	push   $0x12
   31056:	e9 0f 00 00 00       	jmp    3106a <exception>

0003105b <simd_error>:
   3105b:	68 ff ff ff ff       	push   $0xffffffff
   31060:	68 13 00 00 00       	push   $0x13
   31065:	e9 00 00 00 00       	jmp    3106a <exception>

0003106a <exception>:
   3106a:	e8 99 10 00 00       	call   32108 <exception_handler>
   3106f:	f4                   	hlt    

00031070 <init_Gdt_Idt>:
   31070:	55                   	push   %ebp
   31071:	89 e5                	mov    %esp,%ebp
   31073:	83 ec 38             	sub    $0x38,%esp
   31076:	c7 04 24 24 47 03 00 	movl   $0x34724,(%esp)
   3107d:	e8 22 1a 00 00       	call   32aa4 <disp_str>
   31082:	c7 04 24 2b 47 03 00 	movl   $0x3472b,(%esp)
   31089:	e8 16 1a 00 00       	call   32aa4 <disp_str>
   3108e:	c7 04 24 34 47 03 00 	movl   $0x34734,(%esp)
   31095:	e8 0a 1a 00 00       	call   32aa4 <disp_str>
   3109a:	c7 45 e4 00 00 00 00 	movl   $0x0,-0x1c(%ebp)
   310a1:	eb 4a                	jmp    310ed <init_Gdt_Idt+0x7d>
   310a3:	8b 45 e4             	mov    -0x1c(%ebp),%eax
   310a6:	66 c7 04 c5 60 8b 03 	movw   $0x0,0x38b60(,%eax,8)
   310ad:	00 00 00 
   310b0:	8b 45 e4             	mov    -0x1c(%ebp),%eax
   310b3:	66 c7 04 c5 62 8b 03 	movw   $0x0,0x38b62(,%eax,8)
   310ba:	00 00 00 
   310bd:	8b 45 e4             	mov    -0x1c(%ebp),%eax
   310c0:	c6 04 c5 64 8b 03 00 	movb   $0x0,0x38b64(,%eax,8)
   310c7:	00 
   310c8:	8b 45 e4             	mov    -0x1c(%ebp),%eax
   310cb:	c6 04 c5 65 8b 03 00 	movb   $0x0,0x38b65(,%eax,8)
   310d2:	00 
   310d3:	8b 45 e4             	mov    -0x1c(%ebp),%eax
   310d6:	c6 04 c5 66 8b 03 00 	movb   $0x0,0x38b66(,%eax,8)
   310dd:	00 
   310de:	8b 45 e4             	mov    -0x1c(%ebp),%eax
   310e1:	c6 04 c5 67 8b 03 00 	movb   $0x0,0x38b67(,%eax,8)
   310e8:	00 
   310e9:	83 45 e4 01          	addl   $0x1,-0x1c(%ebp)
   310ed:	83 7d e4 7f          	cmpl   $0x7f,-0x1c(%ebp)
   310f1:	7e b0                	jle    310a3 <init_Gdt_Idt+0x33>
   310f3:	b8 40 90 03 00       	mov    $0x39040,%eax
   310f8:	0f b7 00             	movzwl (%eax),%eax
   310fb:	0f b7 c0             	movzwl %ax,%eax
   310fe:	8d 50 01             	lea    0x1(%eax),%edx
   31101:	b8 42 90 03 00       	mov    $0x39042,%eax
   31106:	8b 00                	mov    (%eax),%eax
   31108:	89 54 24 08          	mov    %edx,0x8(%esp)
   3110c:	89 44 24 04          	mov    %eax,0x4(%esp)
   31110:	c7 04 24 60 8b 03 00 	movl   $0x38b60,(%esp)
   31117:	e8 10 1a 00 00       	call   32b2c <memcpy>
   3111c:	c7 45 e8 40 90 03 00 	movl   $0x39040,-0x18(%ebp)
   31123:	c7 45 ec 42 90 03 00 	movl   $0x39042,-0x14(%ebp)
   3112a:	8b 45 e8             	mov    -0x18(%ebp),%eax
   3112d:	66 c7 00 ff 03       	movw   $0x3ff,(%eax)
   31132:	ba 60 8b 03 00       	mov    $0x38b60,%edx
   31137:	8b 45 ec             	mov    -0x14(%ebp),%eax
   3113a:	89 10                	mov    %edx,(%eax)
   3113c:	c7 04 24 51 47 03 00 	movl   $0x34751,(%esp)
   31143:	e8 5c 19 00 00       	call   32aa4 <disp_str>
   31148:	c7 45 f0 40 8b 03 00 	movl   $0x38b40,-0x10(%ebp)
   3114f:	c7 45 f4 42 8b 03 00 	movl   $0x38b42,-0xc(%ebp)
   31156:	8b 45 f0             	mov    -0x10(%ebp),%eax
   31159:	66 c7 00 ff 07       	movw   $0x7ff,(%eax)
   3115e:	ba 60 90 03 00       	mov    $0x39060,%edx
   31163:	8b 45 f4             	mov    -0xc(%ebp),%eax
   31166:	89 10                	mov    %edx,(%eax)
   31168:	c9                   	leave  
   31169:	c3                   	ret    

0003116a <sys_init>:
   3116a:	55                   	push   %ebp
   3116b:	89 e5                	mov    %esp,%ebp
   3116d:	83 ec 18             	sub    $0x18,%esp
   31170:	c7 04 24 6e 47 03 00 	movl   $0x3476e,(%esp)
   31177:	e8 28 19 00 00       	call   32aa4 <disp_str>
   3117c:	e8 37 0c 00 00       	call   31db8 <init_prot>
   31181:	c7 04 24 8b 47 03 00 	movl   $0x3478b,(%esp)
   31188:	e8 17 19 00 00       	call   32aa4 <disp_str>
   3118d:	e8 ba fd ff ff       	call   30f4c <init_sys_call>
   31192:	c7 05 60 98 03 00 00 	movl   $0x0,0x39860
   31199:	00 00 00 
   3119c:	c7 04 24 a8 47 03 00 	movl   $0x347a8,(%esp)
   311a3:	e8 fc 18 00 00       	call   32aa4 <disp_str>
   311a8:	e8 31 00 00 00       	call   311de <set_timer>
   311ad:	c7 04 24 c5 47 03 00 	movl   $0x347c5,(%esp)
   311b4:	e8 eb 18 00 00       	call   32aa4 <disp_str>
   311b9:	e8 c7 28 00 00       	call   33a85 <init_all_ttys>
   311be:	c7 05 e0 ff 09 00 32 	movl   $0x32,0x9ffe0
   311c5:	00 00 00 
   311c8:	c7 05 e0 ff 09 00 03 	movl   $0x3,0x9ffe0
   311cf:	00 00 00 
   311d2:	e8 bc f5 ff ff       	call   30793 <init_process_table>
   311d7:	e8 c1 00 00 00       	call   3129d <init_tss>
   311dc:	c9                   	leave  
   311dd:	c3                   	ret    

000311de <set_timer>:
   311de:	55                   	push   %ebp
   311df:	89 e5                	mov    %esp,%ebp
   311e1:	83 ec 18             	sub    $0x18,%esp
   311e4:	c7 44 24 04 34 00 00 	movl   $0x34,0x4(%esp)
   311eb:	00 
   311ec:	c7 04 24 43 00 00 00 	movl   $0x43,(%esp)
   311f3:	e8 02 19 00 00       	call   32afa <out_byte>
   311f8:	c7 44 24 04 37 00 00 	movl   $0x37,0x4(%esp)
   311ff:	00 
   31200:	c7 04 24 40 00 00 00 	movl   $0x40,(%esp)
   31207:	e8 ee 18 00 00       	call   32afa <out_byte>
   3120c:	c7 44 24 04 5d 00 00 	movl   $0x5d,0x4(%esp)
   31213:	00 
   31214:	c7 04 24 40 00 00 00 	movl   $0x40,(%esp)
   3121b:	e8 da 18 00 00       	call   32afa <out_byte>
   31220:	c9                   	leave  
   31221:	c3                   	ret    

00031222 <setGDTEntry>:
   31222:	55                   	push   %ebp
   31223:	89 e5                	mov    %esp,%ebp
   31225:	83 ec 04             	sub    $0x4,%esp
   31228:	8b 45 14             	mov    0x14(%ebp),%eax
   3122b:	66 89 45 fc          	mov    %ax,-0x4(%ebp)
   3122f:	8b 45 08             	mov    0x8(%ebp),%eax
   31232:	8b 55 10             	mov    0x10(%ebp),%edx
   31235:	66 89 14 c5 60 8b 03 	mov    %dx,0x38b60(,%eax,8)
   3123c:	00 
   3123d:	8b 45 08             	mov    0x8(%ebp),%eax
   31240:	8b 55 0c             	mov    0xc(%ebp),%edx
   31243:	66 89 14 c5 62 8b 03 	mov    %dx,0x38b62(,%eax,8)
   3124a:	00 
   3124b:	8b 45 08             	mov    0x8(%ebp),%eax
   3124e:	8b 55 0c             	mov    0xc(%ebp),%edx
   31251:	c1 ea 10             	shr    $0x10,%edx
   31254:	88 14 c5 64 8b 03 00 	mov    %dl,0x38b64(,%eax,8)
   3125b:	8b 45 08             	mov    0x8(%ebp),%eax
   3125e:	0f b7 55 fc          	movzwl -0x4(%ebp),%edx
   31262:	88 14 c5 65 8b 03 00 	mov    %dl,0x38b65(,%eax,8)
   31269:	8b 45 08             	mov    0x8(%ebp),%eax
   3126c:	0f b7 55 fc          	movzwl -0x4(%ebp),%edx
   31270:	66 c1 ea 08          	shr    $0x8,%dx
   31274:	89 d1                	mov    %edx,%ecx
   31276:	83 e1 f0             	and    $0xfffffff0,%ecx
   31279:	8b 55 10             	mov    0x10(%ebp),%edx
   3127c:	c1 ea 10             	shr    $0x10,%edx
   3127f:	83 e2 0f             	and    $0xf,%edx
   31282:	09 ca                	or     %ecx,%edx
   31284:	88 14 c5 66 8b 03 00 	mov    %dl,0x38b66(,%eax,8)
   3128b:	8b 45 08             	mov    0x8(%ebp),%eax
   3128e:	8b 55 0c             	mov    0xc(%ebp),%edx
   31291:	c1 ea 18             	shr    $0x18,%edx
   31294:	88 14 c5 67 8b 03 00 	mov    %dl,0x38b67(,%eax,8)
   3129b:	c9                   	leave  
   3129c:	c3                   	ret    

0003129d <init_tss>:
   3129d:	55                   	push   %ebp
   3129e:	89 e5                	mov    %esp,%ebp
   312a0:	83 ec 10             	sub    $0x10,%esp
   312a3:	66 c7 05 e8 8f 03 00 	movw   $0xff,0x38fe8
   312aa:	ff 00 
   312ac:	b8 80 8f 03 00       	mov    $0x38f80,%eax
   312b1:	c7 44 24 0c 89 40 00 	movl   $0x4089,0xc(%esp)
   312b8:	00 
   312b9:	c7 44 24 08 6b 00 00 	movl   $0x6b,0x8(%esp)
   312c0:	00 
   312c1:	89 44 24 04          	mov    %eax,0x4(%esp)
   312c5:	c7 04 24 04 00 00 00 	movl   $0x4,(%esp)
   312cc:	e8 51 ff ff ff       	call   31222 <setGDTEntry>
   312d1:	c9                   	leave  
   312d2:	c3                   	ret    
   312d3:	90                   	nop
   312d4:	90                   	nop
   312d5:	90                   	nop
   312d6:	90                   	nop
   312d7:	90                   	nop
   312d8:	90                   	nop
   312d9:	90                   	nop
   312da:	90                   	nop
   312db:	90                   	nop
   312dc:	90                   	nop
   312dd:	90                   	nop
   312de:	90                   	nop
   312df:	90                   	nop

000312e0 <__sys_call_local>:
   312e0:	00 00                	add    %al,(%eax)
	...

000312e4 <sys_call>:
   312e4:	c7 05 90 86 03 00 01 	movl   $0x1,0x38690
   312eb:	00 00 00 
   312ee:	e8 dc 12 00 00       	call   325cf <Save>
   312f3:	fb                   	sti    
   312f4:	52                   	push   %edx
   312f5:	8b 15 60 8f 03 00    	mov    0x38f60,%edx
   312fb:	89 15 e0 12 03 00    	mov    %edx,0x312e0
   31301:	5a                   	pop    %edx
   31302:	55                   	push   %ebp
   31303:	89 e5                	mov    %esp,%ebp
   31305:	52                   	push   %edx
   31306:	51                   	push   %ecx
   31307:	53                   	push   %ebx
   31308:	ff 35 e0 12 03 00    	pushl  0x312e0
   3130e:	ff 14 85 00 90 03 00 	call   *0x39000(,%eax,4)
   31315:	81 c4 10 00 00 00    	add    $0x10,%esp
   3131b:	89 ec                	mov    %ebp,%esp
   3131d:	5d                   	pop    %ebp
   3131e:	fa                   	cli    
   3131f:	c7 05 90 86 03 00 00 	movl   $0x0,0x38690
   31326:	00 00 00 
   31329:	c3                   	ret    

0003132a <printx>:
   3132a:	55                   	push   %ebp
   3132b:	89 e5                	mov    %esp,%ebp
   3132d:	8b 5d 08             	mov    0x8(%ebp),%ebx
   31330:	8b 4d 0c             	mov    0xc(%ebp),%ecx
   31333:	b8 01 00 00 00       	mov    $0x1,%eax
   31338:	cd 90                	int    $0x90
   3133a:	89 ec                	mov    %ebp,%esp
   3133c:	5d                   	pop    %ebp
   3133d:	c3                   	ret    

0003133e <sendrec>:
   3133e:	55                   	push   %ebp
   3133f:	89 e5                	mov    %esp,%ebp
   31341:	8b 5d 08             	mov    0x8(%ebp),%ebx
   31344:	8b 4d 0c             	mov    0xc(%ebp),%ecx
   31347:	8b 55 10             	mov    0x10(%ebp),%edx
   3134a:	b8 02 00 00 00       	mov    $0x2,%eax
   3134f:	cd 90                	int    $0x90
   31351:	89 ec                	mov    %ebp,%esp
   31353:	5d                   	pop    %ebp
   31354:	c3                   	ret    
   31355:	90                   	nop
   31356:	90                   	nop
   31357:	90                   	nop

00031358 <msg_send>:
   31358:	55                   	push   %ebp
   31359:	89 e5                	mov    %esp,%ebp
   3135b:	53                   	push   %ebx
   3135c:	83 ec 24             	sub    $0x24,%esp
   3135f:	83 7d 08 00          	cmpl   $0x0,0x8(%ebp)
   31363:	74 06                	je     3136b <msg_send+0x13>
   31365:	83 7d 08 00          	cmpl   $0x0,0x8(%ebp)
   31369:	79 24                	jns    3138f <msg_send+0x37>
   3136b:	c7 44 24 0c 1b 00 00 	movl   $0x1b,0xc(%esp)
   31372:	00 
   31373:	c7 44 24 08 e4 47 03 	movl   $0x347e4,0x8(%esp)
   3137a:	00 
   3137b:	c7 44 24 04 e4 47 03 	movl   $0x347e4,0x4(%esp)
   31382:	00 
   31383:	c7 04 24 f1 47 03 00 	movl   $0x347f1,(%esp)
   3138a:	e8 bd 16 00 00       	call   32a4c <assertion_failure_kernel>
   3138f:	83 7d 0c 00          	cmpl   $0x0,0xc(%ebp)
   31393:	74 06                	je     3139b <msg_send+0x43>
   31395:	83 7d 0c 00          	cmpl   $0x0,0xc(%ebp)
   31399:	79 24                	jns    313bf <msg_send+0x67>
   3139b:	c7 44 24 0c 1c 00 00 	movl   $0x1c,0xc(%esp)
   313a2:	00 
   313a3:	c7 44 24 08 e4 47 03 	movl   $0x347e4,0x8(%esp)
   313aa:	00 
   313ab:	c7 44 24 04 e4 47 03 	movl   $0x347e4,0x4(%esp)
   313b2:	00 
   313b3:	c7 04 24 0a 48 03 00 	movl   $0x3480a,(%esp)
   313ba:	e8 8d 16 00 00       	call   32a4c <assertion_failure_kernel>
   313bf:	8b 45 08             	mov    0x8(%ebp),%eax
   313c2:	3b 45 0c             	cmp    0xc(%ebp),%eax
   313c5:	75 24                	jne    313eb <msg_send+0x93>
   313c7:	c7 44 24 0c 1d 00 00 	movl   $0x1d,0xc(%esp)
   313ce:	00 
   313cf:	c7 44 24 08 e4 47 03 	movl   $0x347e4,0x8(%esp)
   313d6:	00 
   313d7:	c7 44 24 04 e4 47 03 	movl   $0x347e4,0x4(%esp)
   313de:	00 
   313df:	c7 04 24 25 48 03 00 	movl   $0x34825,(%esp)
   313e6:	e8 61 16 00 00       	call   32a4c <assertion_failure_kernel>
   313eb:	83 7d 10 00          	cmpl   $0x0,0x10(%ebp)
   313ef:	75 24                	jne    31415 <msg_send+0xbd>
   313f1:	c7 44 24 0c 1e 00 00 	movl   $0x1e,0xc(%esp)
   313f8:	00 
   313f9:	c7 44 24 08 e4 47 03 	movl   $0x347e4,0x8(%esp)
   31400:	00 
   31401:	c7 44 24 04 e4 47 03 	movl   $0x347e4,0x4(%esp)
   31408:	00 
   31409:	c7 04 24 2f 48 03 00 	movl   $0x3482f,(%esp)
   31410:	e8 37 16 00 00       	call   32a4c <assertion_failure_kernel>
   31415:	8b 45 08             	mov    0x8(%ebp),%eax
   31418:	89 04 24             	mov    %eax,(%esp)
   3141b:	e8 cd 0e 00 00       	call   322ed <pid2proc>
   31420:	89 45 ec             	mov    %eax,-0x14(%ebp)
   31423:	8b 45 0c             	mov    0xc(%ebp),%eax
   31426:	89 04 24             	mov    %eax,(%esp)
   31429:	e8 bf 0e 00 00       	call   322ed <pid2proc>
   3142e:	89 45 f0             	mov    %eax,-0x10(%ebp)
   31431:	8b 45 f0             	mov    -0x10(%ebp),%eax
   31434:	8b 80 e0 28 00 00    	mov    0x28e0(%eax),%eax
   3143a:	83 e0 04             	and    $0x4,%eax
   3143d:	85 c0                	test   %eax,%eax
   3143f:	0f 84 0e 01 00 00    	je     31553 <msg_send+0x1fb>
   31445:	8b 45 f0             	mov    -0x10(%ebp),%eax
   31448:	8b 90 f4 28 00 00    	mov    0x28f4(%eax),%edx
   3144e:	8b 45 08             	mov    0x8(%ebp),%eax
   31451:	39 c2                	cmp    %eax,%edx
   31453:	74 14                	je     31469 <msg_send+0x111>
   31455:	8b 45 f0             	mov    -0x10(%ebp),%eax
   31458:	8b 80 f4 28 00 00    	mov    0x28f4(%eax),%eax
   3145e:	3d 0f 27 00 00       	cmp    $0x270f,%eax
   31463:	0f 85 ea 00 00 00    	jne    31553 <msg_send+0x1fb>
   31469:	8b 45 f0             	mov    -0x10(%ebp),%eax
   3146c:	8b 80 e8 28 00 00    	mov    0x28e8(%eax),%eax
   31472:	85 c0                	test   %eax,%eax
   31474:	75 24                	jne    3149a <msg_send+0x142>
   31476:	c7 44 24 0c 2e 00 00 	movl   $0x2e,0xc(%esp)
   3147d:	00 
   3147e:	c7 44 24 08 e4 47 03 	movl   $0x347e4,0x8(%esp)
   31485:	00 
   31486:	c7 44 24 04 e4 47 03 	movl   $0x347e4,0x4(%esp)
   3148d:	00 
   3148e:	c7 04 24 31 48 03 00 	movl   $0x34831,(%esp)
   31495:	e8 b2 15 00 00       	call   32a4c <assertion_failure_kernel>
   3149a:	8b 45 10             	mov    0x10(%ebp),%eax
   3149d:	89 44 24 04          	mov    %eax,0x4(%esp)
   314a1:	8b 45 08             	mov    0x8(%ebp),%eax
   314a4:	89 04 24             	mov    %eax,(%esp)
   314a7:	e8 83 0f 00 00       	call   3242f <va2la>
   314ac:	89 c3                	mov    %eax,%ebx
   314ae:	8b 45 f0             	mov    -0x10(%ebp),%eax
   314b1:	8b 80 e8 28 00 00    	mov    0x28e8(%eax),%eax
   314b7:	89 44 24 04          	mov    %eax,0x4(%esp)
   314bb:	8b 45 0c             	mov    0xc(%ebp),%eax
   314be:	89 04 24             	mov    %eax,(%esp)
   314c1:	e8 69 0f 00 00       	call   3242f <va2la>
   314c6:	c7 44 24 08 30 00 00 	movl   $0x30,0x8(%esp)
   314cd:	00 
   314ce:	89 5c 24 04          	mov    %ebx,0x4(%esp)
   314d2:	89 04 24             	mov    %eax,(%esp)
   314d5:	e8 52 16 00 00       	call   32b2c <memcpy>
   314da:	8b 45 f0             	mov    -0x10(%ebp),%eax
   314dd:	c7 80 e8 28 00 00 00 	movl   $0x0,0x28e8(%eax)
   314e4:	00 00 00 
   314e7:	8b 45 f0             	mov    -0x10(%ebp),%eax
   314ea:	8b 80 e0 28 00 00    	mov    0x28e0(%eax),%eax
   314f0:	89 c2                	mov    %eax,%edx
   314f2:	83 e2 fb             	and    $0xfffffffb,%edx
   314f5:	8b 45 f0             	mov    -0x10(%ebp),%eax
   314f8:	89 90 e0 28 00 00    	mov    %edx,0x28e0(%eax)
   314fe:	8b 45 f0             	mov    -0x10(%ebp),%eax
   31501:	c7 80 f4 28 00 00 8c 	movl   $0x8c,0x28f4(%eax)
   31508:	00 00 00 
   3150b:	a1 94 86 03 00       	mov    0x38694,%eax
   31510:	83 f8 01             	cmp    $0x1,%eax
   31513:	75 2e                	jne    31543 <msg_send+0x1eb>
   31515:	a1 60 5e 03 00       	mov    0x35e60,%eax
   3151a:	39 45 08             	cmp    %eax,0x8(%ebp)
   3151d:	74 0a                	je     31529 <msg_send+0x1d1>
   3151f:	a1 60 5e 03 00       	mov    0x35e60,%eax
   31524:	39 45 0c             	cmp    %eax,0xc(%ebp)
   31527:	75 1a                	jne    31543 <msg_send+0x1eb>
   31529:	8b 45 0c             	mov    0xc(%ebp),%eax
   3152c:	89 44 24 08          	mov    %eax,0x8(%esp)
   31530:	8b 45 08             	mov    0x8(%ebp),%eax
   31533:	89 44 24 04          	mov    %eax,0x4(%esp)
   31537:	c7 04 24 3f 48 03 00 	movl   $0x3483f,(%esp)
   3153e:	e8 69 f4 ff ff       	call   309ac <printf_kernel>
   31543:	8b 45 f0             	mov    -0x10(%ebp),%eax
   31546:	89 04 24             	mov    %eax,(%esp)
   31549:	e8 ef 0d 00 00       	call   3233d <unblock>
   3154e:	e9 23 01 00 00       	jmp    31676 <msg_send+0x31e>
   31553:	a1 94 86 03 00       	mov    0x38694,%eax
   31558:	83 f8 01             	cmp    $0x1,%eax
   3155b:	75 4e                	jne    315ab <msg_send+0x253>
   3155d:	a1 60 5e 03 00       	mov    0x35e60,%eax
   31562:	39 45 08             	cmp    %eax,0x8(%ebp)
   31565:	74 0a                	je     31571 <msg_send+0x219>
   31567:	a1 60 5e 03 00       	mov    0x35e60,%eax
   3156c:	39 45 0c             	cmp    %eax,0xc(%ebp)
   3156f:	75 3a                	jne    315ab <msg_send+0x253>
   31571:	8b 45 f0             	mov    -0x10(%ebp),%eax
   31574:	8b 80 f4 28 00 00    	mov    0x28f4(%eax),%eax
   3157a:	89 44 24 08          	mov    %eax,0x8(%esp)
   3157e:	8b 45 0c             	mov    0xc(%ebp),%eax
   31581:	89 44 24 04          	mov    %eax,0x4(%esp)
   31585:	c7 04 24 57 48 03 00 	movl   $0x34857,(%esp)
   3158c:	e8 1b f4 ff ff       	call   309ac <printf_kernel>
   31591:	8b 45 0c             	mov    0xc(%ebp),%eax
   31594:	89 44 24 08          	mov    %eax,0x8(%esp)
   31598:	8b 45 08             	mov    0x8(%ebp),%eax
   3159b:	89 44 24 04          	mov    %eax,0x4(%esp)
   3159f:	c7 04 24 6b 48 03 00 	movl   $0x3486b,(%esp)
   315a6:	e8 01 f4 ff ff       	call   309ac <printf_kernel>
   315ab:	8b 45 f0             	mov    -0x10(%ebp),%eax
   315ae:	8b 80 f0 28 00 00    	mov    0x28f0(%eax),%eax
   315b4:	89 45 f4             	mov    %eax,-0xc(%ebp)
   315b7:	83 7d f4 00          	cmpl   $0x0,-0xc(%ebp)
   315bb:	75 1c                	jne    315d9 <msg_send+0x281>
   315bd:	8b 45 f0             	mov    -0x10(%ebp),%eax
   315c0:	8b 55 ec             	mov    -0x14(%ebp),%edx
   315c3:	89 90 f0 28 00 00    	mov    %edx,0x28f0(%eax)
   315c9:	eb 28                	jmp    315f3 <msg_send+0x29b>
   315cb:	8b 45 f4             	mov    -0xc(%ebp),%eax
   315ce:	8b 80 ec 28 00 00    	mov    0x28ec(%eax),%eax
   315d4:	89 45 f4             	mov    %eax,-0xc(%ebp)
   315d7:	eb 01                	jmp    315da <msg_send+0x282>
   315d9:	90                   	nop
   315da:	8b 45 f4             	mov    -0xc(%ebp),%eax
   315dd:	8b 80 ec 28 00 00    	mov    0x28ec(%eax),%eax
   315e3:	85 c0                	test   %eax,%eax
   315e5:	75 e4                	jne    315cb <msg_send+0x273>
   315e7:	8b 45 f4             	mov    -0xc(%ebp),%eax
   315ea:	8b 55 ec             	mov    -0x14(%ebp),%edx
   315ed:	89 90 ec 28 00 00    	mov    %edx,0x28ec(%eax)
   315f3:	8b 45 ec             	mov    -0x14(%ebp),%eax
   315f6:	8b 55 10             	mov    0x10(%ebp),%edx
   315f9:	89 90 e8 28 00 00    	mov    %edx,0x28e8(%eax)
   315ff:	8b 45 10             	mov    0x10(%ebp),%eax
   31602:	8b 55 08             	mov    0x8(%ebp),%edx
   31605:	89 10                	mov    %edx,(%eax)
   31607:	8b 55 0c             	mov    0xc(%ebp),%edx
   3160a:	8b 45 ec             	mov    -0x14(%ebp),%eax
   3160d:	89 90 e4 28 00 00    	mov    %edx,0x28e4(%eax)
   31613:	8b 45 ec             	mov    -0x14(%ebp),%eax
   31616:	c7 80 ec 28 00 00 00 	movl   $0x0,0x28ec(%eax)
   3161d:	00 00 00 
   31620:	8b 45 ec             	mov    -0x14(%ebp),%eax
   31623:	8b 80 e0 28 00 00    	mov    0x28e0(%eax),%eax
   31629:	89 c2                	mov    %eax,%edx
   3162b:	83 ca 02             	or     $0x2,%edx
   3162e:	8b 45 ec             	mov    -0x14(%ebp),%eax
   31631:	89 90 e0 28 00 00    	mov    %edx,0x28e0(%eax)
   31637:	8b 45 ec             	mov    -0x14(%ebp),%eax
   3163a:	8b 80 e0 28 00 00    	mov    0x28e0(%eax),%eax
   31640:	83 e0 02             	and    $0x2,%eax
   31643:	85 c0                	test   %eax,%eax
   31645:	75 24                	jne    3166b <msg_send+0x313>
   31647:	c7 44 24 0c 56 00 00 	movl   $0x56,0xc(%esp)
   3164e:	00 
   3164f:	c7 44 24 08 e4 47 03 	movl   $0x347e4,0x8(%esp)
   31656:	00 
   31657:	c7 44 24 04 e4 47 03 	movl   $0x347e4,0x4(%esp)
   3165e:	00 
   3165f:	c7 04 24 88 48 03 00 	movl   $0x34888,(%esp)
   31666:	e8 e1 13 00 00       	call   32a4c <assertion_failure_kernel>
   3166b:	8b 45 ec             	mov    -0x14(%ebp),%eax
   3166e:	89 04 24             	mov    %eax,(%esp)
   31671:	e8 3a 0d 00 00       	call   323b0 <block>
   31676:	83 c4 24             	add    $0x24,%esp
   31679:	5b                   	pop    %ebx
   3167a:	5d                   	pop    %ebp
   3167b:	c3                   	ret    

0003167c <msg_receive>:
   3167c:	55                   	push   %ebp
   3167d:	89 e5                	mov    %esp,%ebp
   3167f:	53                   	push   %ebx
   31680:	83 ec 24             	sub    $0x24,%esp
   31683:	8b 45 08             	mov    0x8(%ebp),%eax
   31686:	3b 45 0c             	cmp    0xc(%ebp),%eax
   31689:	75 24                	jne    316af <msg_receive+0x33>
   3168b:	c7 44 24 0c 6c 00 00 	movl   $0x6c,0xc(%esp)
   31692:	00 
   31693:	c7 44 24 08 e4 47 03 	movl   $0x347e4,0x8(%esp)
   3169a:	00 
   3169b:	c7 44 24 04 e4 47 03 	movl   $0x347e4,0x4(%esp)
   316a2:	00 
   316a3:	c7 04 24 a8 48 03 00 	movl   $0x348a8,(%esp)
   316aa:	e8 9d 13 00 00       	call   32a4c <assertion_failure_kernel>
   316af:	83 7d 08 00          	cmpl   $0x0,0x8(%ebp)
   316b3:	7e 06                	jle    316bb <msg_receive+0x3f>
   316b5:	83 7d 08 00          	cmpl   $0x0,0x8(%ebp)
   316b9:	79 24                	jns    316df <msg_receive+0x63>
   316bb:	c7 44 24 0c 6d 00 00 	movl   $0x6d,0xc(%esp)
   316c2:	00 
   316c3:	c7 44 24 08 e4 47 03 	movl   $0x347e4,0x8(%esp)
   316ca:	00 
   316cb:	c7 44 24 04 e4 47 03 	movl   $0x347e4,0x4(%esp)
   316d2:	00 
   316d3:	c7 04 24 b2 48 03 00 	movl   $0x348b2,(%esp)
   316da:	e8 6d 13 00 00       	call   32a4c <assertion_failure_kernel>
   316df:	83 7d 0c 00          	cmpl   $0x0,0xc(%ebp)
   316e3:	78 06                	js     316eb <msg_receive+0x6f>
   316e5:	83 7d 0c 00          	cmpl   $0x0,0xc(%ebp)
   316e9:	79 24                	jns    3170f <msg_receive+0x93>
   316eb:	c7 44 24 0c 6e 00 00 	movl   $0x6e,0xc(%esp)
   316f2:	00 
   316f3:	c7 44 24 08 e4 47 03 	movl   $0x347e4,0x8(%esp)
   316fa:	00 
   316fb:	c7 44 24 04 e4 47 03 	movl   $0x347e4,0x4(%esp)
   31702:	00 
   31703:	c7 04 24 cc 48 03 00 	movl   $0x348cc,(%esp)
   3170a:	e8 3d 13 00 00       	call   32a4c <assertion_failure_kernel>
   3170f:	83 7d 10 00          	cmpl   $0x0,0x10(%ebp)
   31713:	75 24                	jne    31739 <msg_receive+0xbd>
   31715:	c7 44 24 0c 6f 00 00 	movl   $0x6f,0xc(%esp)
   3171c:	00 
   3171d:	c7 44 24 08 e4 47 03 	movl   $0x347e4,0x8(%esp)
   31724:	00 
   31725:	c7 44 24 04 e4 47 03 	movl   $0x347e4,0x4(%esp)
   3172c:	00 
   3172d:	c7 04 24 2f 48 03 00 	movl   $0x3482f,(%esp)
   31734:	e8 13 13 00 00       	call   32a4c <assertion_failure_kernel>
   31739:	c7 45 ec 00 00 00 00 	movl   $0x0,-0x14(%ebp)
   31740:	8b 45 08             	mov    0x8(%ebp),%eax
   31743:	89 04 24             	mov    %eax,(%esp)
   31746:	e8 a2 0b 00 00       	call   322ed <pid2proc>
   3174b:	89 45 f0             	mov    %eax,-0x10(%ebp)
   3174e:	c7 45 f4 00 00 00 00 	movl   $0x0,-0xc(%ebp)
   31755:	83 7d 0c 00          	cmpl   $0x0,0xc(%ebp)
   31759:	75 20                	jne    3177b <msg_receive+0xff>
   3175b:	8b 45 f0             	mov    -0x10(%ebp),%eax
   3175e:	8b 80 f8 28 00 00    	mov    0x28f8(%eax),%eax
   31764:	83 f8 01             	cmp    $0x1,%eax
   31767:	75 12                	jne    3177b <msg_receive+0xff>
   31769:	8b 45 f0             	mov    -0x10(%ebp),%eax
   3176c:	c7 80 f8 28 00 00 00 	movl   $0x0,0x28f8(%eax)
   31773:	00 00 00 
   31776:	e9 3c 03 00 00       	jmp    31ab7 <msg_receive+0x43b>
   3177b:	81 7d 0c 0f 27 00 00 	cmpl   $0x270f,0xc(%ebp)
   31782:	0f 85 10 01 00 00    	jne    31898 <msg_receive+0x21c>
   31788:	a1 94 86 03 00       	mov    0x38694,%eax
   3178d:	83 f8 01             	cmp    $0x1,%eax
   31790:	75 20                	jne    317b2 <msg_receive+0x136>
   31792:	a1 60 5e 03 00       	mov    0x35e60,%eax
   31797:	39 45 08             	cmp    %eax,0x8(%ebp)
   3179a:	74 0a                	je     317a6 <msg_receive+0x12a>
   3179c:	a1 60 5e 03 00       	mov    0x35e60,%eax
   317a1:	39 45 0c             	cmp    %eax,0xc(%ebp)
   317a4:	75 0c                	jne    317b2 <msg_receive+0x136>
   317a6:	c7 04 24 e5 48 03 00 	movl   $0x348e5,(%esp)
   317ad:	e8 fa f1 ff ff       	call   309ac <printf_kernel>
   317b2:	8b 45 f0             	mov    -0x10(%ebp),%eax
   317b5:	8b 80 f0 28 00 00    	mov    0x28f0(%eax),%eax
   317bb:	85 c0                	test   %eax,%eax
   317bd:	0f 84 e5 00 00 00    	je     318a8 <msg_receive+0x22c>
   317c3:	8b 45 f0             	mov    -0x10(%ebp),%eax
   317c6:	8b 80 f0 28 00 00    	mov    0x28f0(%eax),%eax
   317cc:	89 45 ec             	mov    %eax,-0x14(%ebp)
   317cf:	83 7d ec 00          	cmpl   $0x0,-0x14(%ebp)
   317d3:	75 24                	jne    317f9 <msg_receive+0x17d>
   317d5:	c7 44 24 0c 7f 00 00 	movl   $0x7f,0xc(%esp)
   317dc:	00 
   317dd:	c7 44 24 08 e4 47 03 	movl   $0x347e4,0x8(%esp)
   317e4:	00 
   317e5:	c7 44 24 04 e4 47 03 	movl   $0x347e4,0x4(%esp)
   317ec:	00 
   317ed:	c7 04 24 f2 48 03 00 	movl   $0x348f2,(%esp)
   317f4:	e8 53 12 00 00       	call   32a4c <assertion_failure_kernel>
   317f9:	8b 45 ec             	mov    -0x14(%ebp),%eax
   317fc:	8b 80 e0 28 00 00    	mov    0x28e0(%eax),%eax
   31802:	83 e0 02             	and    $0x2,%eax
   31805:	85 c0                	test   %eax,%eax
   31807:	75 24                	jne    3182d <msg_receive+0x1b1>
   31809:	c7 44 24 0c 80 00 00 	movl   $0x80,0xc(%esp)
   31810:	00 
   31811:	c7 44 24 08 e4 47 03 	movl   $0x347e4,0x8(%esp)
   31818:	00 
   31819:	c7 44 24 04 e4 47 03 	movl   $0x347e4,0x4(%esp)
   31820:	00 
   31821:	c7 04 24 f9 48 03 00 	movl   $0x348f9,(%esp)
   31828:	e8 1f 12 00 00       	call   32a4c <assertion_failure_kernel>
   3182d:	8b 45 ec             	mov    -0x14(%ebp),%eax
   31830:	8b 90 e4 28 00 00    	mov    0x28e4(%eax),%edx
   31836:	8b 45 08             	mov    0x8(%ebp),%eax
   31839:	39 c2                	cmp    %eax,%edx
   3183b:	74 24                	je     31861 <msg_receive+0x1e5>
   3183d:	c7 44 24 0c 81 00 00 	movl   $0x81,0xc(%esp)
   31844:	00 
   31845:	c7 44 24 08 e4 47 03 	movl   $0x347e4,0x8(%esp)
   3184c:	00 
   3184d:	c7 44 24 04 e4 47 03 	movl   $0x347e4,0x4(%esp)
   31854:	00 
   31855:	c7 04 24 16 49 03 00 	movl   $0x34916,(%esp)
   3185c:	e8 eb 11 00 00       	call   32a4c <assertion_failure_kernel>
   31861:	8b 45 ec             	mov    -0x14(%ebp),%eax
   31864:	89 04 24             	mov    %eax,(%esp)
   31867:	e8 08 0a 00 00       	call   32274 <proc2pid>
   3186c:	89 45 0c             	mov    %eax,0xc(%ebp)
   3186f:	a1 94 86 03 00       	mov    0x38694,%eax
   31874:	83 f8 01             	cmp    $0x1,%eax
   31877:	75 32                	jne    318ab <msg_receive+0x22f>
   31879:	a1 60 5e 03 00       	mov    0x35e60,%eax
   3187e:	39 45 0c             	cmp    %eax,0xc(%ebp)
   31881:	75 2b                	jne    318ae <msg_receive+0x232>
   31883:	8b 45 0c             	mov    0xc(%ebp),%eax
   31886:	89 44 24 04          	mov    %eax,0x4(%esp)
   3188a:	c7 04 24 30 49 03 00 	movl   $0x34930,(%esp)
   31891:	e8 16 f1 ff ff       	call   309ac <printf_kernel>
   31896:	eb 17                	jmp    318af <msg_receive+0x233>
   31898:	8b 45 0c             	mov    0xc(%ebp),%eax
   3189b:	89 04 24             	mov    %eax,(%esp)
   3189e:	e8 4a 0a 00 00       	call   322ed <pid2proc>
   318a3:	89 45 ec             	mov    %eax,-0x14(%ebp)
   318a6:	eb 07                	jmp    318af <msg_receive+0x233>
   318a8:	90                   	nop
   318a9:	eb 04                	jmp    318af <msg_receive+0x233>
   318ab:	90                   	nop
   318ac:	eb 01                	jmp    318af <msg_receive+0x233>
   318ae:	90                   	nop
   318af:	83 7d ec 00          	cmpl   $0x0,-0x14(%ebp)
   318b3:	0f 84 8c 01 00 00    	je     31a45 <msg_receive+0x3c9>
   318b9:	8b 45 ec             	mov    -0x14(%ebp),%eax
   318bc:	8b 80 e0 28 00 00    	mov    0x28e0(%eax),%eax
   318c2:	83 e0 02             	and    $0x2,%eax
   318c5:	85 c0                	test   %eax,%eax
   318c7:	0f 84 78 01 00 00    	je     31a45 <msg_receive+0x3c9>
   318cd:	8b 45 ec             	mov    -0x14(%ebp),%eax
   318d0:	8b 90 e4 28 00 00    	mov    0x28e4(%eax),%edx
   318d6:	8b 45 08             	mov    0x8(%ebp),%eax
   318d9:	39 c2                	cmp    %eax,%edx
   318db:	0f 85 64 01 00 00    	jne    31a45 <msg_receive+0x3c9>
   318e1:	8b 45 ec             	mov    -0x14(%ebp),%eax
   318e4:	8b 80 e8 28 00 00    	mov    0x28e8(%eax),%eax
   318ea:	89 44 24 04          	mov    %eax,0x4(%esp)
   318ee:	8b 45 0c             	mov    0xc(%ebp),%eax
   318f1:	89 04 24             	mov    %eax,(%esp)
   318f4:	e8 36 0b 00 00       	call   3242f <va2la>
   318f9:	89 c3                	mov    %eax,%ebx
   318fb:	8b 45 10             	mov    0x10(%ebp),%eax
   318fe:	89 44 24 04          	mov    %eax,0x4(%esp)
   31902:	8b 45 08             	mov    0x8(%ebp),%eax
   31905:	89 04 24             	mov    %eax,(%esp)
   31908:	e8 22 0b 00 00       	call   3242f <va2la>
   3190d:	c7 44 24 08 30 00 00 	movl   $0x30,0x8(%esp)
   31914:	00 
   31915:	89 5c 24 04          	mov    %ebx,0x4(%esp)
   31919:	89 04 24             	mov    %eax,(%esp)
   3191c:	e8 0b 12 00 00       	call   32b2c <memcpy>
   31921:	8b 45 ec             	mov    -0x14(%ebp),%eax
   31924:	c7 80 e8 28 00 00 00 	movl   $0x0,0x28e8(%eax)
   3192b:	00 00 00 
   3192e:	8b 45 ec             	mov    -0x14(%ebp),%eax
   31931:	c7 80 e4 28 00 00 8c 	movl   $0x8c,0x28e4(%eax)
   31938:	00 00 00 
   3193b:	8b 45 ec             	mov    -0x14(%ebp),%eax
   3193e:	8b 80 e0 28 00 00    	mov    0x28e0(%eax),%eax
   31944:	89 c2                	mov    %eax,%edx
   31946:	83 e2 fd             	and    $0xfffffffd,%edx
   31949:	8b 45 ec             	mov    -0x14(%ebp),%eax
   3194c:	89 90 e0 28 00 00    	mov    %edx,0x28e0(%eax)
   31952:	a1 94 86 03 00       	mov    0x38694,%eax
   31957:	83 f8 01             	cmp    $0x1,%eax
   3195a:	75 2e                	jne    3198a <msg_receive+0x30e>
   3195c:	a1 60 5e 03 00       	mov    0x35e60,%eax
   31961:	39 45 0c             	cmp    %eax,0xc(%ebp)
   31964:	74 0a                	je     31970 <msg_receive+0x2f4>
   31966:	a1 60 5e 03 00       	mov    0x35e60,%eax
   3196b:	39 45 08             	cmp    %eax,0x8(%ebp)
   3196e:	75 1a                	jne    3198a <msg_receive+0x30e>
   31970:	8b 45 0c             	mov    0xc(%ebp),%eax
   31973:	89 44 24 08          	mov    %eax,0x8(%esp)
   31977:	8b 45 08             	mov    0x8(%ebp),%eax
   3197a:	89 44 24 04          	mov    %eax,0x4(%esp)
   3197e:	c7 04 24 54 49 03 00 	movl   $0x34954,(%esp)
   31985:	e8 22 f0 ff ff       	call   309ac <printf_kernel>
   3198a:	8b 45 ec             	mov    -0x14(%ebp),%eax
   3198d:	89 04 24             	mov    %eax,(%esp)
   31990:	e8 a8 09 00 00       	call   3233d <unblock>
   31995:	8b 45 f0             	mov    -0x10(%ebp),%eax
   31998:	8b 80 f0 28 00 00    	mov    0x28f0(%eax),%eax
   3199e:	3b 45 ec             	cmp    -0x14(%ebp),%eax
   319a1:	75 17                	jne    319ba <msg_receive+0x33e>
   319a3:	8b 45 ec             	mov    -0x14(%ebp),%eax
   319a6:	8b 90 ec 28 00 00    	mov    0x28ec(%eax),%edx
   319ac:	8b 45 f0             	mov    -0x10(%ebp),%eax
   319af:	89 90 f0 28 00 00    	mov    %edx,0x28f0(%eax)
   319b5:	e9 fd 00 00 00       	jmp    31ab7 <msg_receive+0x43b>
   319ba:	8b 45 f0             	mov    -0x10(%ebp),%eax
   319bd:	8b 80 f0 28 00 00    	mov    0x28f0(%eax),%eax
   319c3:	8b 55 ec             	mov    -0x14(%ebp),%edx
   319c6:	89 54 24 04          	mov    %edx,0x4(%esp)
   319ca:	89 04 24             	mov    %eax,(%esp)
   319cd:	e8 eb 00 00 00       	call   31abd <inSendingQueue>
   319d2:	89 45 f4             	mov    %eax,-0xc(%ebp)
   319d5:	83 7d f4 00          	cmpl   $0x0,-0xc(%ebp)
   319d9:	75 24                	jne    319ff <msg_receive+0x383>
   319db:	c7 44 24 0c a0 00 00 	movl   $0xa0,0xc(%esp)
   319e2:	00 
   319e3:	c7 44 24 08 e4 47 03 	movl   $0x347e4,0x8(%esp)
   319ea:	00 
   319eb:	c7 44 24 04 e4 47 03 	movl   $0x347e4,0x4(%esp)
   319f2:	00 
   319f3:	c7 04 24 72 49 03 00 	movl   $0x34972,(%esp)
   319fa:	e8 4d 10 00 00       	call   32a4c <assertion_failure_kernel>
   319ff:	8b 45 f4             	mov    -0xc(%ebp),%eax
   31a02:	8b 80 ec 28 00 00    	mov    0x28ec(%eax),%eax
   31a08:	3b 45 ec             	cmp    -0x14(%ebp),%eax
   31a0b:	74 24                	je     31a31 <msg_receive+0x3b5>
   31a0d:	c7 44 24 0c a1 00 00 	movl   $0xa1,0xc(%esp)
   31a14:	00 
   31a15:	c7 44 24 08 e4 47 03 	movl   $0x347e4,0x8(%esp)
   31a1c:	00 
   31a1d:	c7 44 24 04 e4 47 03 	movl   $0x347e4,0x4(%esp)
   31a24:	00 
   31a25:	c7 04 24 76 49 03 00 	movl   $0x34976,(%esp)
   31a2c:	e8 1b 10 00 00       	call   32a4c <assertion_failure_kernel>
   31a31:	8b 45 ec             	mov    -0x14(%ebp),%eax
   31a34:	8b 90 ec 28 00 00    	mov    0x28ec(%eax),%edx
   31a3a:	8b 45 f4             	mov    -0xc(%ebp),%eax
   31a3d:	89 90 ec 28 00 00    	mov    %edx,0x28ec(%eax)
   31a43:	eb 72                	jmp    31ab7 <msg_receive+0x43b>
   31a45:	8b 45 f0             	mov    -0x10(%ebp),%eax
   31a48:	8b 80 e0 28 00 00    	mov    0x28e0(%eax),%eax
   31a4e:	89 c2                	mov    %eax,%edx
   31a50:	83 ca 04             	or     $0x4,%edx
   31a53:	8b 45 f0             	mov    -0x10(%ebp),%eax
   31a56:	89 90 e0 28 00 00    	mov    %edx,0x28e0(%eax)
   31a5c:	8b 55 0c             	mov    0xc(%ebp),%edx
   31a5f:	8b 45 f0             	mov    -0x10(%ebp),%eax
   31a62:	89 90 f4 28 00 00    	mov    %edx,0x28f4(%eax)
   31a68:	8b 45 f0             	mov    -0x10(%ebp),%eax
   31a6b:	8b 55 10             	mov    0x10(%ebp),%edx
   31a6e:	89 90 e8 28 00 00    	mov    %edx,0x28e8(%eax)
   31a74:	a1 94 86 03 00       	mov    0x38694,%eax
   31a79:	83 f8 01             	cmp    $0x1,%eax
   31a7c:	75 2e                	jne    31aac <msg_receive+0x430>
   31a7e:	a1 60 5e 03 00       	mov    0x35e60,%eax
   31a83:	39 45 0c             	cmp    %eax,0xc(%ebp)
   31a86:	74 0a                	je     31a92 <msg_receive+0x416>
   31a88:	a1 60 5e 03 00       	mov    0x35e60,%eax
   31a8d:	39 45 08             	cmp    %eax,0x8(%ebp)
   31a90:	75 1a                	jne    31aac <msg_receive+0x430>
   31a92:	8b 45 0c             	mov    0xc(%ebp),%eax
   31a95:	89 44 24 08          	mov    %eax,0x8(%esp)
   31a99:	8b 45 08             	mov    0x8(%ebp),%eax
   31a9c:	89 44 24 04          	mov    %eax,0x4(%esp)
   31aa0:	c7 04 24 94 49 03 00 	movl   $0x34994,(%esp)
   31aa7:	e8 00 ef ff ff       	call   309ac <printf_kernel>
   31aac:	8b 45 f0             	mov    -0x10(%ebp),%eax
   31aaf:	89 04 24             	mov    %eax,(%esp)
   31ab2:	e8 f9 08 00 00       	call   323b0 <block>
   31ab7:	83 c4 24             	add    $0x24,%esp
   31aba:	5b                   	pop    %ebx
   31abb:	5d                   	pop    %ebp
   31abc:	c3                   	ret    

00031abd <inSendingQueue>:
   31abd:	55                   	push   %ebp
   31abe:	89 e5                	mov    %esp,%ebp
   31ac0:	eb 1f                	jmp    31ae1 <inSendingQueue+0x24>
   31ac2:	8b 45 08             	mov    0x8(%ebp),%eax
   31ac5:	8b 80 ec 28 00 00    	mov    0x28ec(%eax),%eax
   31acb:	3b 45 0c             	cmp    0xc(%ebp),%eax
   31ace:	75 05                	jne    31ad5 <inSendingQueue+0x18>
   31ad0:	8b 45 08             	mov    0x8(%ebp),%eax
   31ad3:	eb 1e                	jmp    31af3 <inSendingQueue+0x36>
   31ad5:	8b 45 08             	mov    0x8(%ebp),%eax
   31ad8:	8b 80 ec 28 00 00    	mov    0x28ec(%eax),%eax
   31ade:	89 45 08             	mov    %eax,0x8(%ebp)
   31ae1:	8b 45 08             	mov    0x8(%ebp),%eax
   31ae4:	8b 80 ec 28 00 00    	mov    0x28ec(%eax),%eax
   31aea:	85 c0                	test   %eax,%eax
   31aec:	75 d4                	jne    31ac2 <inSendingQueue+0x5>
   31aee:	b8 00 00 00 00       	mov    $0x0,%eax
   31af3:	5d                   	pop    %ebp
   31af4:	c3                   	ret    

00031af5 <inform_int>:
   31af5:	55                   	push   %ebp
   31af6:	89 e5                	mov    %esp,%ebp
   31af8:	83 ec 28             	sub    $0x28,%esp
   31afb:	8b 45 08             	mov    0x8(%ebp),%eax
   31afe:	89 04 24             	mov    %eax,(%esp)
   31b01:	e8 e7 07 00 00       	call   322ed <pid2proc>
   31b06:	89 45 f4             	mov    %eax,-0xc(%ebp)
   31b09:	83 7d f4 00          	cmpl   $0x0,-0xc(%ebp)
   31b0d:	75 24                	jne    31b33 <inform_int+0x3e>
   31b0f:	c7 44 24 0c cf 00 00 	movl   $0xcf,0xc(%esp)
   31b16:	00 
   31b17:	c7 44 24 08 e4 47 03 	movl   $0x347e4,0x8(%esp)
   31b1e:	00 
   31b1f:	c7 44 24 04 e4 47 03 	movl   $0x347e4,0x4(%esp)
   31b26:	00 
   31b27:	c7 04 24 b3 49 03 00 	movl   $0x349b3,(%esp)
   31b2e:	e8 19 0f 00 00       	call   32a4c <assertion_failure_kernel>
   31b33:	8b 45 08             	mov    0x8(%ebp),%eax
   31b36:	89 44 24 04          	mov    %eax,0x4(%esp)
   31b3a:	c7 04 24 b8 49 03 00 	movl   $0x349b8,(%esp)
   31b41:	e8 66 ee ff ff       	call   309ac <printf_kernel>
   31b46:	8b 45 f4             	mov    -0xc(%ebp),%eax
   31b49:	8b 80 e0 28 00 00    	mov    0x28e0(%eax),%eax
   31b4f:	83 e0 04             	and    $0x4,%eax
   31b52:	85 c0                	test   %eax,%eax
   31b54:	74 4e                	je     31ba4 <inform_int+0xaf>
   31b56:	8b 45 f4             	mov    -0xc(%ebp),%eax
   31b59:	8b 80 f4 28 00 00    	mov    0x28f4(%eax),%eax
   31b5f:	3d 0f 27 00 00       	cmp    $0x270f,%eax
   31b64:	74 0d                	je     31b73 <inform_int+0x7e>
   31b66:	8b 45 f4             	mov    -0xc(%ebp),%eax
   31b69:	8b 80 f4 28 00 00    	mov    0x28f4(%eax),%eax
   31b6f:	85 c0                	test   %eax,%eax
   31b71:	75 31                	jne    31ba4 <inform_int+0xaf>
   31b73:	8b 45 f4             	mov    -0xc(%ebp),%eax
   31b76:	c7 80 f8 28 00 00 01 	movl   $0x1,0x28f8(%eax)
   31b7d:	00 00 00 
   31b80:	8b 45 f4             	mov    -0xc(%ebp),%eax
   31b83:	8b 80 e0 28 00 00    	mov    0x28e0(%eax),%eax
   31b89:	89 c2                	mov    %eax,%edx
   31b8b:	83 e2 fb             	and    $0xfffffffb,%edx
   31b8e:	8b 45 f4             	mov    -0xc(%ebp),%eax
   31b91:	89 90 e0 28 00 00    	mov    %edx,0x28e0(%eax)
   31b97:	8b 45 f4             	mov    -0xc(%ebp),%eax
   31b9a:	89 04 24             	mov    %eax,(%esp)
   31b9d:	e8 9b 07 00 00       	call   3233d <unblock>
   31ba2:	eb 0d                	jmp    31bb1 <inform_int+0xbc>
   31ba4:	8b 45 f4             	mov    -0xc(%ebp),%eax
   31ba7:	c7 80 f8 28 00 00 01 	movl   $0x1,0x28f8(%eax)
   31bae:	00 00 00 
   31bb1:	c9                   	leave  
   31bb2:	c3                   	ret    
   31bb3:	90                   	nop

00031bb4 <printf>:
   31bb4:	55                   	push   %ebp
   31bb5:	89 e5                	mov    %esp,%ebp
   31bb7:	81 ec 28 01 00 00    	sub    $0x128,%esp
   31bbd:	8d 45 08             	lea    0x8(%ebp),%eax
   31bc0:	83 c0 04             	add    $0x4,%eax
   31bc3:	89 45 f4             	mov    %eax,-0xc(%ebp)
   31bc6:	8b 45 08             	mov    0x8(%ebp),%eax
   31bc9:	89 44 24 08          	mov    %eax,0x8(%esp)
   31bcd:	8b 45 f4             	mov    -0xc(%ebp),%eax
   31bd0:	89 44 24 04          	mov    %eax,0x4(%esp)
   31bd4:	8d 85 f0 fe ff ff    	lea    -0x110(%ebp),%eax
   31bda:	89 04 24             	mov    %eax,(%esp)
   31bdd:	e8 1d 00 00 00       	call   31bff <vsprintf>
   31be2:	89 45 f0             	mov    %eax,-0x10(%ebp)
   31be5:	8b 45 f0             	mov    -0x10(%ebp),%eax
   31be8:	89 44 24 04          	mov    %eax,0x4(%esp)
   31bec:	8d 85 f0 fe ff ff    	lea    -0x110(%ebp),%eax
   31bf2:	89 04 24             	mov    %eax,(%esp)
   31bf5:	e8 30 f7 ff ff       	call   3132a <printx>
   31bfa:	8b 45 f0             	mov    -0x10(%ebp),%eax
   31bfd:	c9                   	leave  
   31bfe:	c3                   	ret    

00031bff <vsprintf>:
   31bff:	55                   	push   %ebp
   31c00:	89 e5                	mov    %esp,%ebp
   31c02:	81 ec 28 01 00 00    	sub    $0x128,%esp
   31c08:	8b 45 0c             	mov    0xc(%ebp),%eax
   31c0b:	89 45 f0             	mov    %eax,-0x10(%ebp)
   31c0e:	8b 45 08             	mov    0x8(%ebp),%eax
   31c11:	89 45 ec             	mov    %eax,-0x14(%ebp)
   31c14:	e9 c7 00 00 00       	jmp    31ce0 <vsprintf+0xe1>
   31c19:	8b 45 10             	mov    0x10(%ebp),%eax
   31c1c:	0f b6 00             	movzbl (%eax),%eax
   31c1f:	3c 25                	cmp    $0x25,%al
   31c21:	74 14                	je     31c37 <vsprintf+0x38>
   31c23:	8b 45 10             	mov    0x10(%ebp),%eax
   31c26:	0f b6 10             	movzbl (%eax),%edx
   31c29:	8b 45 ec             	mov    -0x14(%ebp),%eax
   31c2c:	88 10                	mov    %dl,(%eax)
   31c2e:	83 45 ec 01          	addl   $0x1,-0x14(%ebp)
   31c32:	e9 a5 00 00 00       	jmp    31cdc <vsprintf+0xdd>
   31c37:	83 45 10 01          	addl   $0x1,0x10(%ebp)
   31c3b:	8b 45 10             	mov    0x10(%ebp),%eax
   31c3e:	0f b6 00             	movzbl (%eax),%eax
   31c41:	0f be c0             	movsbl %al,%eax
   31c44:	83 f8 64             	cmp    $0x64,%eax
   31c47:	74 0f                	je     31c58 <vsprintf+0x59>
   31c49:	83 f8 73             	cmp    $0x73,%eax
   31c4c:	74 62                	je     31cb0 <vsprintf+0xb1>
   31c4e:	83 f8 63             	cmp    $0x63,%eax
   31c51:	74 48                	je     31c9b <vsprintf+0x9c>
   31c53:	e9 84 00 00 00       	jmp    31cdc <vsprintf+0xdd>
   31c58:	8b 45 f0             	mov    -0x10(%ebp),%eax
   31c5b:	8b 00                	mov    (%eax),%eax
   31c5d:	89 44 24 04          	mov    %eax,0x4(%esp)
   31c61:	8d 85 ec fe ff ff    	lea    -0x114(%ebp),%eax
   31c67:	89 04 24             	mov    %eax,(%esp)
   31c6a:	e8 ab 0f 00 00       	call   32c1a <itoa>
   31c6f:	8d 85 ec fe ff ff    	lea    -0x114(%ebp),%eax
   31c75:	89 44 24 04          	mov    %eax,0x4(%esp)
   31c79:	8b 45 ec             	mov    -0x14(%ebp),%eax
   31c7c:	89 04 24             	mov    %eax,(%esp)
   31c7f:	e8 2e 10 00 00       	call   32cb2 <strcpy>
   31c84:	83 45 f0 04          	addl   $0x4,-0x10(%ebp)
   31c88:	8d 85 ec fe ff ff    	lea    -0x114(%ebp),%eax
   31c8e:	89 04 24             	mov    %eax,(%esp)
   31c91:	e8 50 10 00 00       	call   32ce6 <strlen>
   31c96:	01 45 ec             	add    %eax,-0x14(%ebp)
   31c99:	eb 41                	jmp    31cdc <vsprintf+0xdd>
   31c9b:	8b 45 f0             	mov    -0x10(%ebp),%eax
   31c9e:	0f b6 10             	movzbl (%eax),%edx
   31ca1:	8b 45 ec             	mov    -0x14(%ebp),%eax
   31ca4:	88 10                	mov    %dl,(%eax)
   31ca6:	83 45 f0 04          	addl   $0x4,-0x10(%ebp)
   31caa:	83 45 ec 01          	addl   $0x1,-0x14(%ebp)
   31cae:	eb 2c                	jmp    31cdc <vsprintf+0xdd>
   31cb0:	8b 45 f0             	mov    -0x10(%ebp),%eax
   31cb3:	8b 00                	mov    (%eax),%eax
   31cb5:	89 45 f4             	mov    %eax,-0xc(%ebp)
   31cb8:	8b 45 f4             	mov    -0xc(%ebp),%eax
   31cbb:	89 44 24 04          	mov    %eax,0x4(%esp)
   31cbf:	8b 45 ec             	mov    -0x14(%ebp),%eax
   31cc2:	89 04 24             	mov    %eax,(%esp)
   31cc5:	e8 e8 0f 00 00       	call   32cb2 <strcpy>
   31cca:	8b 45 f4             	mov    -0xc(%ebp),%eax
   31ccd:	89 04 24             	mov    %eax,(%esp)
   31cd0:	e8 11 10 00 00       	call   32ce6 <strlen>
   31cd5:	01 45 ec             	add    %eax,-0x14(%ebp)
   31cd8:	83 45 f0 04          	addl   $0x4,-0x10(%ebp)
   31cdc:	83 45 10 01          	addl   $0x1,0x10(%ebp)
   31ce0:	8b 45 10             	mov    0x10(%ebp),%eax
   31ce3:	0f b6 00             	movzbl (%eax),%eax
   31ce6:	84 c0                	test   %al,%al
   31ce8:	0f 85 2b ff ff ff    	jne    31c19 <vsprintf+0x1a>
   31cee:	8b 55 ec             	mov    -0x14(%ebp),%edx
   31cf1:	8b 45 08             	mov    0x8(%ebp),%eax
   31cf4:	89 d1                	mov    %edx,%ecx
   31cf6:	29 c1                	sub    %eax,%ecx
   31cf8:	89 c8                	mov    %ecx,%eax
   31cfa:	c9                   	leave  
   31cfb:	c3                   	ret    

00031cfc <setTssEspReady>:
   31cfc:	55                   	push   %ebp
   31cfd:	89 e5                	mov    %esp,%ebp
   31cff:	8b 45 08             	mov    0x8(%ebp),%eax
   31d02:	83 e8 01             	sub    $0x1,%eax
   31d05:	69 c0 fc 28 00 00    	imul   $0x28fc,%eax,%eax
   31d0b:	05 80 98 03 00       	add    $0x39880,%eax
   31d10:	89 c2                	mov    %eax,%edx
   31d12:	a1 98 4b 03 00       	mov    0x34b98,%eax
   31d17:	8d 04 02             	lea    (%edx,%eax,1),%eax
   31d1a:	a3 84 8f 03 00       	mov    %eax,0x38f84
   31d1f:	5d                   	pop    %ebp
   31d20:	c3                   	ret    

00031d21 <getProRegTop>:
   31d21:	55                   	push   %ebp
   31d22:	89 e5                	mov    %esp,%ebp
   31d24:	8b 45 08             	mov    0x8(%ebp),%eax
   31d27:	83 e8 01             	sub    $0x1,%eax
   31d2a:	69 c0 fc 28 00 00    	imul   $0x28fc,%eax,%eax
   31d30:	05 80 98 03 00       	add    $0x39880,%eax
   31d35:	89 c2                	mov    %eax,%edx
   31d37:	a1 9c 4b 03 00       	mov    0x34b9c,%eax
   31d3c:	8d 04 02             	lea    (%edx,%eax,1),%eax
   31d3f:	a3 98 86 03 00       	mov    %eax,0x38698
   31d44:	5d                   	pop    %ebp
   31d45:	c3                   	ret    
   31d46:	90                   	nop
   31d47:	90                   	nop

00031d48 <init_idt_desc>:
   31d48:	55                   	push   %ebp
   31d49:	89 e5                	mov    %esp,%ebp
   31d4b:	83 ec 1c             	sub    $0x1c,%esp
   31d4e:	8b 4d 08             	mov    0x8(%ebp),%ecx
   31d51:	8b 55 0c             	mov    0xc(%ebp),%edx
   31d54:	8b 45 14             	mov    0x14(%ebp),%eax
   31d57:	88 4d ec             	mov    %cl,-0x14(%ebp)
   31d5a:	88 55 e8             	mov    %dl,-0x18(%ebp)
   31d5d:	88 45 e4             	mov    %al,-0x1c(%ebp)
   31d60:	0f b6 45 ec          	movzbl -0x14(%ebp),%eax
   31d64:	c1 e0 03             	shl    $0x3,%eax
   31d67:	05 60 90 03 00       	add    $0x39060,%eax
   31d6c:	89 45 f8             	mov    %eax,-0x8(%ebp)
   31d6f:	8b 45 10             	mov    0x10(%ebp),%eax
   31d72:	89 45 fc             	mov    %eax,-0x4(%ebp)
   31d75:	8b 45 fc             	mov    -0x4(%ebp),%eax
   31d78:	89 c2                	mov    %eax,%edx
   31d7a:	8b 45 f8             	mov    -0x8(%ebp),%eax
   31d7d:	66 89 10             	mov    %dx,(%eax)
   31d80:	8b 45 fc             	mov    -0x4(%ebp),%eax
   31d83:	c1 e8 10             	shr    $0x10,%eax
   31d86:	89 c2                	mov    %eax,%edx
   31d88:	8b 45 f8             	mov    -0x8(%ebp),%eax
   31d8b:	66 89 50 06          	mov    %dx,0x6(%eax)
   31d8f:	8b 45 f8             	mov    -0x8(%ebp),%eax
   31d92:	66 c7 40 02 08 00    	movw   $0x8,0x2(%eax)
   31d98:	0f b6 45 e4          	movzbl -0x1c(%ebp),%eax
   31d9c:	c1 e0 05             	shl    $0x5,%eax
   31d9f:	89 c2                	mov    %eax,%edx
   31da1:	0f b6 45 e8          	movzbl -0x18(%ebp),%eax
   31da5:	09 d0                	or     %edx,%eax
   31da7:	89 c2                	mov    %eax,%edx
   31da9:	8b 45 f8             	mov    -0x8(%ebp),%eax
   31dac:	88 50 05             	mov    %dl,0x5(%eax)
   31daf:	8b 45 f8             	mov    -0x8(%ebp),%eax
   31db2:	c6 40 04 00          	movb   $0x0,0x4(%eax)
   31db6:	c9                   	leave  
   31db7:	c3                   	ret    

00031db8 <init_prot>:
   31db8:	55                   	push   %ebp
   31db9:	89 e5                	mov    %esp,%ebp
   31dbb:	83 ec 18             	sub    $0x18,%esp
   31dbe:	e8 f5 08 00 00       	call   326b8 <init_8259A>
   31dc3:	c7 44 24 0c 00 00 00 	movl   $0x0,0xc(%esp)
   31dca:	00 
   31dcb:	c7 44 24 08 70 0f 03 	movl   $0x30f70,0x8(%esp)
   31dd2:	00 
   31dd3:	c7 44 24 04 8e 00 00 	movl   $0x8e,0x4(%esp)
   31dda:	00 
   31ddb:	c7 04 24 00 00 00 00 	movl   $0x0,(%esp)
   31de2:	e8 61 ff ff ff       	call   31d48 <init_idt_desc>
   31de7:	c7 44 24 0c 00 00 00 	movl   $0x0,0xc(%esp)
   31dee:	00 
   31def:	c7 44 24 08 7f 0f 03 	movl   $0x30f7f,0x8(%esp)
   31df6:	00 
   31df7:	c7 44 24 04 8e 00 00 	movl   $0x8e,0x4(%esp)
   31dfe:	00 
   31dff:	c7 04 24 01 00 00 00 	movl   $0x1,(%esp)
   31e06:	e8 3d ff ff ff       	call   31d48 <init_idt_desc>
   31e0b:	c7 44 24 0c 00 00 00 	movl   $0x0,0xc(%esp)
   31e12:	00 
   31e13:	c7 44 24 08 8e 0f 03 	movl   $0x30f8e,0x8(%esp)
   31e1a:	00 
   31e1b:	c7 44 24 04 8e 00 00 	movl   $0x8e,0x4(%esp)
   31e22:	00 
   31e23:	c7 04 24 02 00 00 00 	movl   $0x2,(%esp)
   31e2a:	e8 19 ff ff ff       	call   31d48 <init_idt_desc>
   31e2f:	c7 44 24 0c 03 00 00 	movl   $0x3,0xc(%esp)
   31e36:	00 
   31e37:	c7 44 24 08 9d 0f 03 	movl   $0x30f9d,0x8(%esp)
   31e3e:	00 
   31e3f:	c7 44 24 04 8e 00 00 	movl   $0x8e,0x4(%esp)
   31e46:	00 
   31e47:	c7 04 24 03 00 00 00 	movl   $0x3,(%esp)
   31e4e:	e8 f5 fe ff ff       	call   31d48 <init_idt_desc>
   31e53:	c7 44 24 0c 00 00 00 	movl   $0x0,0xc(%esp)
   31e5a:	00 
   31e5b:	c7 44 24 08 ac 0f 03 	movl   $0x30fac,0x8(%esp)
   31e62:	00 
   31e63:	c7 44 24 04 8e 00 00 	movl   $0x8e,0x4(%esp)
   31e6a:	00 
   31e6b:	c7 04 24 04 00 00 00 	movl   $0x4,(%esp)
   31e72:	e8 d1 fe ff ff       	call   31d48 <init_idt_desc>
   31e77:	c7 44 24 0c 00 00 00 	movl   $0x0,0xc(%esp)
   31e7e:	00 
   31e7f:	c7 44 24 08 bb 0f 03 	movl   $0x30fbb,0x8(%esp)
   31e86:	00 
   31e87:	c7 44 24 04 8e 00 00 	movl   $0x8e,0x4(%esp)
   31e8e:	00 
   31e8f:	c7 04 24 05 00 00 00 	movl   $0x5,(%esp)
   31e96:	e8 ad fe ff ff       	call   31d48 <init_idt_desc>
   31e9b:	c7 44 24 0c 00 00 00 	movl   $0x0,0xc(%esp)
   31ea2:	00 
   31ea3:	c7 44 24 08 ca 0f 03 	movl   $0x30fca,0x8(%esp)
   31eaa:	00 
   31eab:	c7 44 24 04 8e 00 00 	movl   $0x8e,0x4(%esp)
   31eb2:	00 
   31eb3:	c7 04 24 06 00 00 00 	movl   $0x6,(%esp)
   31eba:	e8 89 fe ff ff       	call   31d48 <init_idt_desc>
   31ebf:	c7 44 24 0c 00 00 00 	movl   $0x0,0xc(%esp)
   31ec6:	00 
   31ec7:	c7 44 24 08 d9 0f 03 	movl   $0x30fd9,0x8(%esp)
   31ece:	00 
   31ecf:	c7 44 24 04 8e 00 00 	movl   $0x8e,0x4(%esp)
   31ed6:	00 
   31ed7:	c7 04 24 07 00 00 00 	movl   $0x7,(%esp)
   31ede:	e8 65 fe ff ff       	call   31d48 <init_idt_desc>
   31ee3:	c7 44 24 0c 00 00 00 	movl   $0x0,0xc(%esp)
   31eea:	00 
   31eeb:	c7 44 24 08 e8 0f 03 	movl   $0x30fe8,0x8(%esp)
   31ef2:	00 
   31ef3:	c7 44 24 04 8e 00 00 	movl   $0x8e,0x4(%esp)
   31efa:	00 
   31efb:	c7 04 24 08 00 00 00 	movl   $0x8,(%esp)
   31f02:	e8 41 fe ff ff       	call   31d48 <init_idt_desc>
   31f07:	c7 44 24 0c 00 00 00 	movl   $0x0,0xc(%esp)
   31f0e:	00 
   31f0f:	c7 44 24 08 f2 0f 03 	movl   $0x30ff2,0x8(%esp)
   31f16:	00 
   31f17:	c7 44 24 04 8e 00 00 	movl   $0x8e,0x4(%esp)
   31f1e:	00 
   31f1f:	c7 04 24 09 00 00 00 	movl   $0x9,(%esp)
   31f26:	e8 1d fe ff ff       	call   31d48 <init_idt_desc>
   31f2b:	c7 44 24 0c 00 00 00 	movl   $0x0,0xc(%esp)
   31f32:	00 
   31f33:	c7 44 24 08 01 10 03 	movl   $0x31001,0x8(%esp)
   31f3a:	00 
   31f3b:	c7 44 24 04 8e 00 00 	movl   $0x8e,0x4(%esp)
   31f42:	00 
   31f43:	c7 04 24 0a 00 00 00 	movl   $0xa,(%esp)
   31f4a:	e8 f9 fd ff ff       	call   31d48 <init_idt_desc>
   31f4f:	c7 44 24 0c 00 00 00 	movl   $0x0,0xc(%esp)
   31f56:	00 
   31f57:	c7 44 24 08 0b 10 03 	movl   $0x3100b,0x8(%esp)
   31f5e:	00 
   31f5f:	c7 44 24 04 8e 00 00 	movl   $0x8e,0x4(%esp)
   31f66:	00 
   31f67:	c7 04 24 0b 00 00 00 	movl   $0xb,(%esp)
   31f6e:	e8 d5 fd ff ff       	call   31d48 <init_idt_desc>
   31f73:	c7 44 24 0c 00 00 00 	movl   $0x0,0xc(%esp)
   31f7a:	00 
   31f7b:	c7 44 24 08 15 10 03 	movl   $0x31015,0x8(%esp)
   31f82:	00 
   31f83:	c7 44 24 04 8e 00 00 	movl   $0x8e,0x4(%esp)
   31f8a:	00 
   31f8b:	c7 04 24 0c 00 00 00 	movl   $0xc,(%esp)
   31f92:	e8 b1 fd ff ff       	call   31d48 <init_idt_desc>
   31f97:	c7 44 24 0c 00 00 00 	movl   $0x0,0xc(%esp)
   31f9e:	00 
   31f9f:	c7 44 24 08 1f 10 03 	movl   $0x3101f,0x8(%esp)
   31fa6:	00 
   31fa7:	c7 44 24 04 8e 00 00 	movl   $0x8e,0x4(%esp)
   31fae:	00 
   31faf:	c7 04 24 0d 00 00 00 	movl   $0xd,(%esp)
   31fb6:	e8 8d fd ff ff       	call   31d48 <init_idt_desc>
   31fbb:	c7 44 24 0c 00 00 00 	movl   $0x0,0xc(%esp)
   31fc2:	00 
   31fc3:	c7 44 24 08 29 10 03 	movl   $0x31029,0x8(%esp)
   31fca:	00 
   31fcb:	c7 44 24 04 8e 00 00 	movl   $0x8e,0x4(%esp)
   31fd2:	00 
   31fd3:	c7 04 24 0e 00 00 00 	movl   $0xe,(%esp)
   31fda:	e8 69 fd ff ff       	call   31d48 <init_idt_desc>
   31fdf:	c7 44 24 0c 00 00 00 	movl   $0x0,0xc(%esp)
   31fe6:	00 
   31fe7:	c7 44 24 08 33 10 03 	movl   $0x31033,0x8(%esp)
   31fee:	00 
   31fef:	c7 44 24 04 8e 00 00 	movl   $0x8e,0x4(%esp)
   31ff6:	00 
   31ff7:	c7 04 24 10 00 00 00 	movl   $0x10,(%esp)
   31ffe:	e8 45 fd ff ff       	call   31d48 <init_idt_desc>
   32003:	c7 44 24 0c 00 00 00 	movl   $0x0,0xc(%esp)
   3200a:	00 
   3200b:	c7 44 24 08 42 10 03 	movl   $0x31042,0x8(%esp)
   32012:	00 
   32013:	c7 44 24 04 8e 00 00 	movl   $0x8e,0x4(%esp)
   3201a:	00 
   3201b:	c7 04 24 11 00 00 00 	movl   $0x11,(%esp)
   32022:	e8 21 fd ff ff       	call   31d48 <init_idt_desc>
   32027:	c7 44 24 0c 00 00 00 	movl   $0x0,0xc(%esp)
   3202e:	00 
   3202f:	c7 44 24 08 4c 10 03 	movl   $0x3104c,0x8(%esp)
   32036:	00 
   32037:	c7 44 24 04 8e 00 00 	movl   $0x8e,0x4(%esp)
   3203e:	00 
   3203f:	c7 04 24 12 00 00 00 	movl   $0x12,(%esp)
   32046:	e8 fd fc ff ff       	call   31d48 <init_idt_desc>
   3204b:	c7 44 24 0c 00 00 00 	movl   $0x0,0xc(%esp)
   32052:	00 
   32053:	c7 44 24 08 5b 10 03 	movl   $0x3105b,0x8(%esp)
   3205a:	00 
   3205b:	c7 44 24 04 8e 00 00 	movl   $0x8e,0x4(%esp)
   32062:	00 
   32063:	c7 04 24 13 00 00 00 	movl   $0x13,(%esp)
   3206a:	e8 d9 fc ff ff       	call   31d48 <init_idt_desc>
   3206f:	c7 44 24 0c 00 00 00 	movl   $0x0,0xc(%esp)
   32076:	00 
   32077:	c7 44 24 08 60 25 03 	movl   $0x32560,0x8(%esp)
   3207e:	00 
   3207f:	c7 44 24 04 8e 00 00 	movl   $0x8e,0x4(%esp)
   32086:	00 
   32087:	c7 04 24 20 00 00 00 	movl   $0x20,(%esp)
   3208e:	e8 b5 fc ff ff       	call   31d48 <init_idt_desc>
   32093:	c7 44 24 0c 00 00 00 	movl   $0x0,0xc(%esp)
   3209a:	00 
   3209b:	c7 44 24 08 9b 25 03 	movl   $0x3259b,0x8(%esp)
   320a2:	00 
   320a3:	c7 44 24 04 8e 00 00 	movl   $0x8e,0x4(%esp)
   320aa:	00 
   320ab:	c7 04 24 21 00 00 00 	movl   $0x21,(%esp)
   320b2:	e8 91 fc ff ff       	call   31d48 <init_idt_desc>
   320b7:	c7 44 24 0c 03 00 00 	movl   $0x3,0xc(%esp)
   320be:	00 
   320bf:	c7 44 24 08 e4 12 03 	movl   $0x312e4,0x8(%esp)
   320c6:	00 
   320c7:	c7 44 24 04 8e 00 00 	movl   $0x8e,0x4(%esp)
   320ce:	00 
   320cf:	c7 04 24 90 00 00 00 	movl   $0x90,(%esp)
   320d6:	e8 6d fc ff ff       	call   31d48 <init_idt_desc>
   320db:	c9                   	leave  
   320dc:	c3                   	ret    

000320dd <set_hd_handler>:
   320dd:	55                   	push   %ebp
   320de:	89 e5                	mov    %esp,%ebp
   320e0:	83 ec 10             	sub    $0x10,%esp
   320e3:	c7 44 24 0c 00 00 00 	movl   $0x0,0xc(%esp)
   320ea:	00 
   320eb:	8b 45 08             	mov    0x8(%ebp),%eax
   320ee:	89 44 24 08          	mov    %eax,0x8(%esp)
   320f2:	c7 44 24 04 8e 00 00 	movl   $0x8e,0x4(%esp)
   320f9:	00 
   320fa:	c7 04 24 2e 00 00 00 	movl   $0x2e,(%esp)
   32101:	e8 42 fc ff ff       	call   31d48 <init_idt_desc>
   32106:	c9                   	leave  
   32107:	c3                   	ret    

00032108 <exception_handler>:
   32108:	55                   	push   %ebp
   32109:	89 e5                	mov    %esp,%ebp
   3210b:	83 ec 28             	sub    $0x28,%esp
   3210e:	c7 45 f0 74 00 00 00 	movl   $0x74,-0x10(%ebp)
   32115:	a1 60 8f 03 00       	mov    0x38f60,%eax
   3211a:	89 04 24             	mov    %eax,(%esp)
   3211d:	e8 cb 01 00 00       	call   322ed <pid2proc>
   32122:	89 45 f4             	mov    %eax,-0xc(%ebp)
   32125:	8b 45 08             	mov    0x8(%ebp),%eax
   32128:	89 44 24 04          	mov    %eax,0x4(%esp)
   3212c:	c7 04 24 c8 49 03 00 	movl   $0x349c8,(%esp)
   32133:	e8 74 e8 ff ff       	call   309ac <printf_kernel>
   32138:	8b 45 0c             	mov    0xc(%ebp),%eax
   3213b:	89 44 24 04          	mov    %eax,0x4(%esp)
   3213f:	c7 04 24 eb 49 03 00 	movl   $0x349eb,(%esp)
   32146:	e8 61 e8 ff ff       	call   309ac <printf_kernel>
   3214b:	a1 60 8f 03 00       	mov    0x38f60,%eax
   32150:	89 44 24 04          	mov    %eax,0x4(%esp)
   32154:	c7 04 24 fa 49 03 00 	movl   $0x349fa,(%esp)
   3215b:	e8 4c e8 ff ff       	call   309ac <printf_kernel>
   32160:	8b 45 14             	mov    0x14(%ebp),%eax
   32163:	89 44 24 04          	mov    %eax,0x4(%esp)
   32167:	c7 04 24 09 4a 03 00 	movl   $0x34a09,(%esp)
   3216e:	e8 39 e8 ff ff       	call   309ac <printf_kernel>
   32173:	8b 45 10             	mov    0x10(%ebp),%eax
   32176:	89 44 24 04          	mov    %eax,0x4(%esp)
   3217a:	c7 04 24 19 4a 03 00 	movl   $0x34a19,(%esp)
   32181:	e8 26 e8 ff ff       	call   309ac <printf_kernel>
   32186:	a1 8c 86 03 00       	mov    0x3868c,%eax
   3218b:	89 44 24 04          	mov    %eax,0x4(%esp)
   3218f:	c7 04 24 2a 4a 03 00 	movl   $0x34a2a,(%esp)
   32196:	e8 11 e8 ff ff       	call   309ac <printf_kernel>
   3219b:	a1 48 8b 03 00       	mov    0x38b48,%eax
   321a0:	89 44 24 04          	mov    %eax,0x4(%esp)
   321a4:	c7 04 24 42 4a 03 00 	movl   $0x34a42,(%esp)
   321ab:	e8 fc e7 ff ff       	call   309ac <printf_kernel>
   321b0:	8b 45 f4             	mov    -0xc(%ebp),%eax
   321b3:	8b 40 38             	mov    0x38(%eax),%eax
   321b6:	89 44 24 04          	mov    %eax,0x4(%esp)
   321ba:	c7 04 24 50 4a 03 00 	movl   $0x34a50,(%esp)
   321c1:	e8 e6 e7 ff ff       	call   309ac <printf_kernel>
   321c6:	8b 45 f4             	mov    -0xc(%ebp),%eax
   321c9:	8b 40 34             	mov    0x34(%eax),%eax
   321cc:	89 44 24 04          	mov    %eax,0x4(%esp)
   321d0:	c7 04 24 62 4a 03 00 	movl   $0x34a62,(%esp)
   321d7:	e8 d0 e7 ff ff       	call   309ac <printf_kernel>
   321dc:	e8 c6 02 00 00       	call   324a7 <printIPC>
   321e1:	c9                   	leave  
   321e2:	c3                   	ret    

000321e3 <debug>:
   321e3:	55                   	push   %ebp
   321e4:	89 e5                	mov    %esp,%ebp
   321e6:	83 ec 28             	sub    $0x28,%esp
   321e9:	8d 45 08             	lea    0x8(%ebp),%eax
   321ec:	83 e8 04             	sub    $0x4,%eax
   321ef:	89 45 f4             	mov    %eax,-0xc(%ebp)
   321f2:	83 45 f4 08          	addl   $0x8,-0xc(%ebp)
   321f6:	8b 45 f4             	mov    -0xc(%ebp),%eax
   321f9:	8b 00                	mov    (%eax),%eax
   321fb:	89 44 24 04          	mov    %eax,0x4(%esp)
   321ff:	c7 04 24 75 4a 03 00 	movl   $0x34a75,(%esp)
   32206:	e8 a1 e7 ff ff       	call   309ac <printf_kernel>
   3220b:	c9                   	leave  
   3220c:	c3                   	ret    

0003220d <jumpout>:
   3220d:	55                   	push   %ebp
   3220e:	89 e5                	mov    %esp,%ebp
   32210:	83 ec 28             	sub    $0x28,%esp
   32213:	8d 45 08             	lea    0x8(%ebp),%eax
   32216:	83 e8 04             	sub    $0x4,%eax
   32219:	89 45 f4             	mov    %eax,-0xc(%ebp)
   3221c:	83 45 f4 08          	addl   $0x8,-0xc(%ebp)
   32220:	8b 45 f4             	mov    -0xc(%ebp),%eax
   32223:	8b 00                	mov    (%eax),%eax
   32225:	89 44 24 04          	mov    %eax,0x4(%esp)
   32229:	c7 04 24 8d 4a 03 00 	movl   $0x34a8d,(%esp)
   32230:	e8 77 e7 ff ff       	call   309ac <printf_kernel>
   32235:	c9                   	leave  
   32236:	c3                   	ret    

00032237 <printInterrupted>:
   32237:	55                   	push   %ebp
   32238:	89 e5                	mov    %esp,%ebp
   3223a:	83 ec 28             	sub    $0x28,%esp
   3223d:	a1 60 8f 03 00       	mov    0x38f60,%eax
   32242:	89 04 24             	mov    %eax,(%esp)
   32245:	e8 a3 00 00 00       	call   322ed <pid2proc>
   3224a:	89 45 f4             	mov    %eax,-0xc(%ebp)
   3224d:	c7 04 24 a6 4a 03 00 	movl   $0x34aa6,(%esp)
   32254:	e8 53 e7 ff ff       	call   309ac <printf_kernel>
   32259:	8b 45 f4             	mov    -0xc(%ebp),%eax
   3225c:	8b 40 34             	mov    0x34(%eax),%eax
   3225f:	89 44 24 04          	mov    %eax,0x4(%esp)
   32263:	c7 04 24 b2 4a 03 00 	movl   $0x34ab2,(%esp)
   3226a:	e8 3d e7 ff ff       	call   309ac <printf_kernel>
   3226f:	c9                   	leave  
   32270:	c3                   	ret    
   32271:	90                   	nop
   32272:	90                   	nop
   32273:	90                   	nop

00032274 <proc2pid>:
   32274:	55                   	push   %ebp
   32275:	89 e5                	mov    %esp,%ebp
   32277:	83 ec 18             	sub    $0x18,%esp
   3227a:	83 7d 08 00          	cmpl   $0x0,0x8(%ebp)
   3227e:	75 24                	jne    322a4 <proc2pid+0x30>
   32280:	c7 44 24 0c 11 00 00 	movl   $0x11,0xc(%esp)
   32287:	00 
   32288:	c7 44 24 08 bd 4a 03 	movl   $0x34abd,0x8(%esp)
   3228f:	00 
   32290:	c7 44 24 04 bd 4a 03 	movl   $0x34abd,0x4(%esp)
   32297:	00 
   32298:	c7 04 24 d0 4a 03 00 	movl   $0x34ad0,(%esp)
   3229f:	e8 a8 07 00 00       	call   32a4c <assertion_failure_kernel>
   322a4:	81 7d 08 80 98 03 00 	cmpl   $0x39880,0x8(%ebp)
   322ab:	77 24                	ja     322d1 <proc2pid+0x5d>
   322ad:	c7 44 24 0c 12 00 00 	movl   $0x12,0xc(%esp)
   322b4:	00 
   322b5:	c7 44 24 08 bd 4a 03 	movl   $0x34abd,0x8(%esp)
   322bc:	00 
   322bd:	c7 44 24 04 bd 4a 03 	movl   $0x34abd,0x4(%esp)
   322c4:	00 
   322c5:	c7 04 24 d5 4a 03 00 	movl   $0x34ad5,(%esp)
   322cc:	e8 7b 07 00 00       	call   32a4c <assertion_failure_kernel>
   322d1:	8b 55 08             	mov    0x8(%ebp),%edx
   322d4:	b8 80 98 03 00       	mov    $0x39880,%eax
   322d9:	89 d1                	mov    %edx,%ecx
   322db:	29 c1                	sub    %eax,%ecx
   322dd:	89 c8                	mov    %ecx,%eax
   322df:	c1 f8 02             	sar    $0x2,%eax
   322e2:	69 c0 bf e5 b2 69    	imul   $0x69b2e5bf,%eax,%eax
   322e8:	83 c0 01             	add    $0x1,%eax
   322eb:	c9                   	leave  
   322ec:	c3                   	ret    

000322ed <pid2proc>:
   322ed:	55                   	push   %ebp
   322ee:	89 e5                	mov    %esp,%ebp
   322f0:	83 ec 18             	sub    $0x18,%esp
   322f3:	83 7d 08 00          	cmpl   $0x0,0x8(%ebp)
   322f7:	7f 07                	jg     32300 <pid2proc+0x13>
   322f9:	b8 00 00 00 00       	mov    $0x0,%eax
   322fe:	eb 3b                	jmp    3233b <pid2proc+0x4e>
   32300:	83 7d 08 00          	cmpl   $0x0,0x8(%ebp)
   32304:	7f 24                	jg     3232a <pid2proc+0x3d>
   32306:	c7 44 24 0c 1c 00 00 	movl   $0x1c,0xc(%esp)
   3230d:	00 
   3230e:	c7 44 24 08 bd 4a 03 	movl   $0x34abd,0x8(%esp)
   32315:	00 
   32316:	c7 44 24 04 bd 4a 03 	movl   $0x34abd,0x4(%esp)
   3231d:	00 
   3231e:	c7 04 24 e5 4a 03 00 	movl   $0x34ae5,(%esp)
   32325:	e8 22 07 00 00       	call   32a4c <assertion_failure_kernel>
   3232a:	8b 45 08             	mov    0x8(%ebp),%eax
   3232d:	83 e8 01             	sub    $0x1,%eax
   32330:	69 c0 fc 28 00 00    	imul   $0x28fc,%eax,%eax
   32336:	05 80 98 03 00       	add    $0x39880,%eax
   3233b:	c9                   	leave  
   3233c:	c3                   	ret    

0003233d <unblock>:
   3233d:	55                   	push   %ebp
   3233e:	89 e5                	mov    %esp,%ebp
   32340:	83 ec 18             	sub    $0x18,%esp
   32343:	8b 45 08             	mov    0x8(%ebp),%eax
   32346:	8b 80 e0 28 00 00    	mov    0x28e0(%eax),%eax
   3234c:	85 c0                	test   %eax,%eax
   3234e:	74 24                	je     32374 <unblock+0x37>
   32350:	c7 44 24 0c 28 00 00 	movl   $0x28,0xc(%esp)
   32357:	00 
   32358:	c7 44 24 08 bd 4a 03 	movl   $0x34abd,0x8(%esp)
   3235f:	00 
   32360:	c7 44 24 04 bd 4a 03 	movl   $0x34abd,0x4(%esp)
   32367:	00 
   32368:	c7 04 24 eb 4a 03 00 	movl   $0x34aeb,(%esp)
   3236f:	e8 d8 06 00 00       	call   32a4c <assertion_failure_kernel>
   32374:	a1 9c 86 03 00       	mov    0x3869c,%eax
   32379:	83 f8 01             	cmp    $0x1,%eax
   3237c:	75 30                	jne    323ae <unblock+0x71>
   3237e:	8b 45 08             	mov    0x8(%ebp),%eax
   32381:	89 04 24             	mov    %eax,(%esp)
   32384:	e8 eb fe ff ff       	call   32274 <proc2pid>
   32389:	8b 15 64 5e 03 00    	mov    0x35e64,%edx
   3238f:	39 d0                	cmp    %edx,%eax
   32391:	75 1b                	jne    323ae <unblock+0x71>
   32393:	8b 45 08             	mov    0x8(%ebp),%eax
   32396:	89 04 24             	mov    %eax,(%esp)
   32399:	e8 d6 fe ff ff       	call   32274 <proc2pid>
   3239e:	89 44 24 04          	mov    %eax,0x4(%esp)
   323a2:	c7 04 24 00 4b 03 00 	movl   $0x34b00,(%esp)
   323a9:	e8 fe e5 ff ff       	call   309ac <printf_kernel>
   323ae:	c9                   	leave  
   323af:	c3                   	ret    

000323b0 <block>:
   323b0:	55                   	push   %ebp
   323b1:	89 e5                	mov    %esp,%ebp
   323b3:	83 ec 28             	sub    $0x28,%esp
   323b6:	c7 45 f4 74 00 00 00 	movl   $0x74,-0xc(%ebp)
   323bd:	8b 45 08             	mov    0x8(%ebp),%eax
   323c0:	8b 80 e0 28 00 00    	mov    0x28e0(%eax),%eax
   323c6:	85 c0                	test   %eax,%eax
   323c8:	75 24                	jne    323ee <block+0x3e>
   323ca:	c7 44 24 0c 3d 00 00 	movl   $0x3d,0xc(%esp)
   323d1:	00 
   323d2:	c7 44 24 08 bd 4a 03 	movl   $0x34abd,0x8(%esp)
   323d9:	00 
   323da:	c7 44 24 04 bd 4a 03 	movl   $0x34abd,0x4(%esp)
   323e1:	00 
   323e2:	c7 04 24 0d 4b 03 00 	movl   $0x34b0d,(%esp)
   323e9:	e8 5e 06 00 00       	call   32a4c <assertion_failure_kernel>
   323ee:	a1 9c 86 03 00       	mov    0x3869c,%eax
   323f3:	83 f8 01             	cmp    $0x1,%eax
   323f6:	75 30                	jne    32428 <block+0x78>
   323f8:	8b 45 08             	mov    0x8(%ebp),%eax
   323fb:	89 04 24             	mov    %eax,(%esp)
   323fe:	e8 71 fe ff ff       	call   32274 <proc2pid>
   32403:	8b 15 64 5e 03 00    	mov    0x35e64,%edx
   32409:	39 d0                	cmp    %edx,%eax
   3240b:	75 1b                	jne    32428 <block+0x78>
   3240d:	8b 45 08             	mov    0x8(%ebp),%eax
   32410:	89 04 24             	mov    %eax,(%esp)
   32413:	e8 5c fe ff ff       	call   32274 <proc2pid>
   32418:	89 44 24 04          	mov    %eax,0x4(%esp)
   3241c:	c7 04 24 22 4b 03 00 	movl   $0x34b22,(%esp)
   32423:	e8 84 e5 ff ff       	call   309ac <printf_kernel>
   32428:	e8 4f e7 ff ff       	call   30b7c <schedule>
   3242d:	c9                   	leave  
   3242e:	c3                   	ret    

0003242f <va2la>:
   3242f:	55                   	push   %ebp
   32430:	89 e5                	mov    %esp,%ebp
   32432:	53                   	push   %ebx
   32433:	83 ec 20             	sub    $0x20,%esp
   32436:	8b 45 08             	mov    0x8(%ebp),%eax
   32439:	83 e8 01             	sub    $0x1,%eax
   3243c:	69 c0 fc 28 00 00    	imul   $0x28fc,%eax,%eax
   32442:	05 80 98 03 00       	add    $0x39880,%eax
   32447:	89 45 f0             	mov    %eax,-0x10(%ebp)
   3244a:	8b 45 f0             	mov    -0x10(%ebp),%eax
   3244d:	8b 40 0c             	mov    0xc(%eax),%eax
   32450:	89 45 f4             	mov    %eax,-0xc(%ebp)
   32453:	8b 45 f4             	mov    -0xc(%ebp),%eax
   32456:	83 e0 f0             	and    $0xfffffff0,%eax
   32459:	89 c2                	mov    %eax,%edx
   3245b:	c1 ea 03             	shr    $0x3,%edx
   3245e:	8b 45 f0             	mov    -0x10(%ebp),%eax
   32461:	83 c2 0a             	add    $0xa,%edx
   32464:	8d 54 d0 04          	lea    0x4(%eax,%edx,8),%edx
   32468:	8b 02                	mov    (%edx),%eax
   3246a:	8b 52 04             	mov    0x4(%edx),%edx
   3246d:	89 45 e8             	mov    %eax,-0x18(%ebp)
   32470:	89 55 ec             	mov    %edx,-0x14(%ebp)
   32473:	0f b7 45 ea          	movzwl -0x16(%ebp),%eax
   32477:	0f b7 d0             	movzwl %ax,%edx
   3247a:	0f b6 45 ec          	movzbl -0x14(%ebp),%eax
   3247e:	0f b6 c0             	movzbl %al,%eax
   32481:	01 c2                	add    %eax,%edx
   32483:	0f b6 45 ef          	movzbl -0x11(%ebp),%eax
   32487:	0f b6 c0             	movzbl %al,%eax
   3248a:	83 c0 10             	add    $0x10,%eax
   3248d:	89 d3                	mov    %edx,%ebx
   3248f:	89 c1                	mov    %eax,%ecx
   32491:	d3 e3                	shl    %cl,%ebx
   32493:	89 d8                	mov    %ebx,%eax
   32495:	c1 e0 18             	shl    $0x18,%eax
   32498:	89 45 f8             	mov    %eax,-0x8(%ebp)
   3249b:	8b 45 0c             	mov    0xc(%ebp),%eax
   3249e:	03 45 f8             	add    -0x8(%ebp),%eax
   324a1:	83 c4 20             	add    $0x20,%esp
   324a4:	5b                   	pop    %ebx
   324a5:	5d                   	pop    %ebp
   324a6:	c3                   	ret    

000324a7 <printIPC>:
   324a7:	55                   	push   %ebp
   324a8:	89 e5                	mov    %esp,%ebp
   324aa:	83 ec 28             	sub    $0x28,%esp
   324ad:	c7 45 f0 00 00 00 00 	movl   $0x0,-0x10(%ebp)
   324b4:	eb 6e                	jmp    32524 <printIPC+0x7d>
   324b6:	8b 45 f0             	mov    -0x10(%ebp),%eax
   324b9:	69 c0 fc 28 00 00    	imul   $0x28fc,%eax,%eax
   324bf:	8b 80 5c c1 03 00    	mov    0x3c15c(%eax),%eax
   324c5:	85 c0                	test   %eax,%eax
   324c7:	75 57                	jne    32520 <printIPC+0x79>
   324c9:	8b 45 f0             	mov    -0x10(%ebp),%eax
   324cc:	69 c0 fc 28 00 00    	imul   $0x28fc,%eax,%eax
   324d2:	8b 80 70 c1 03 00    	mov    0x3c170(%eax),%eax
   324d8:	89 45 f4             	mov    %eax,-0xc(%ebp)
   324db:	8b 45 f0             	mov    -0x10(%ebp),%eax
   324de:	83 c0 01             	add    $0x1,%eax
   324e1:	89 44 24 04          	mov    %eax,0x4(%esp)
   324e5:	c7 04 24 2d 4b 03 00 	movl   $0x34b2d,(%esp)
   324ec:	e8 bb e4 ff ff       	call   309ac <printf_kernel>
   324f1:	eb 27                	jmp    3251a <printIPC+0x73>
   324f3:	8b 45 f4             	mov    -0xc(%ebp),%eax
   324f6:	89 04 24             	mov    %eax,(%esp)
   324f9:	e8 76 fd ff ff       	call   32274 <proc2pid>
   324fe:	89 44 24 04          	mov    %eax,0x4(%esp)
   32502:	c7 04 24 3e 4b 03 00 	movl   $0x34b3e,(%esp)
   32509:	e8 9e e4 ff ff       	call   309ac <printf_kernel>
   3250e:	8b 45 f4             	mov    -0xc(%ebp),%eax
   32511:	8b 80 ec 28 00 00    	mov    0x28ec(%eax),%eax
   32517:	89 45 f4             	mov    %eax,-0xc(%ebp)
   3251a:	83 7d f4 00          	cmpl   $0x0,-0xc(%ebp)
   3251e:	75 d3                	jne    324f3 <printIPC+0x4c>
   32520:	83 45 f0 01          	addl   $0x1,-0x10(%ebp)
   32524:	83 7d f0 27          	cmpl   $0x27,-0x10(%ebp)
   32528:	7e 8c                	jle    324b6 <printIPC+0xf>
   3252a:	c7 04 24 42 4b 03 00 	movl   $0x34b42,(%esp)
   32531:	e8 76 e4 ff ff       	call   309ac <printf_kernel>
   32536:	c9                   	leave  
   32537:	c3                   	ret    

00032538 <interrupt_wait>:
   32538:	55                   	push   %ebp
   32539:	89 e5                	mov    %esp,%ebp
   3253b:	83 ec 48             	sub    $0x48,%esp
   3253e:	8d 45 c8             	lea    -0x38(%ebp),%eax
   32541:	89 44 24 08          	mov    %eax,0x8(%esp)
   32545:	c7 44 24 04 00 00 00 	movl   $0x0,0x4(%esp)
   3254c:	00 
   3254d:	c7 04 24 02 00 00 00 	movl   $0x2,(%esp)
   32554:	e8 e5 ed ff ff       	call   3133e <sendrec>
   32559:	c9                   	leave  
   3255a:	c3                   	ret    
   3255b:	90                   	nop
   3255c:	90                   	nop
   3255d:	90                   	nop
   3255e:	90                   	nop
   3255f:	90                   	nop

00032560 <clock_int>:
   32560:	ff 05 60 98 03 00    	incl   0x39860
   32566:	65 fe 05 1a 02 00 00 	incb   %gs:0x21a
   3256d:	e8 5d 00 00 00       	call   325cf <Save>
   32572:	b0 20                	mov    $0x20,%al
   32574:	e6 20                	out    %al,$0x20
   32576:	fb                   	sti    
   32577:	ff 05 e4 ff 09 00    	incl   0x9ffe4
   3257d:	a1 e4 ff 09 00       	mov    0x9ffe4,%eax
   32582:	3b 05 e0 ff 09 00    	cmp    0x9ffe0,%eax
   32588:	76 0f                	jbe    32599 <clock_int.noswitch>
   3258a:	c7 05 e4 ff 09 00 00 	movl   $0x0,0x9ffe4
   32591:	00 00 00 
   32594:	e8 e3 e5 ff ff       	call   30b7c <schedule>

00032599 <clock_int.noswitch>:
   32599:	fa                   	cli    
   3259a:	c3                   	ret    

0003259b <key_int>:
   3259b:	65 fe 05 1e 02 00 00 	incb   %gs:0x21e
   325a2:	e8 28 00 00 00       	call   325cf <Save>
   325a7:	b0 20                	mov    $0x20,%al
   325a9:	e6 20                	out    %al,$0x20
   325ab:	fb                   	sti    
   325ac:	e8 fe 0b 00 00       	call   331af <key_interrupt>
   325b1:	fa                   	cli    
   325b2:	c3                   	ret    

000325b3 <disk_int>:
   325b3:	65 fe 05 20 02 00 00 	incb   %gs:0x220
   325ba:	e8 10 00 00 00       	call   325cf <Save>
   325bf:	b0 20                	mov    $0x20,%al
   325c1:	e6 a0                	out    %al,$0xa0
   325c3:	b0 20                	mov    $0x20,%al
   325c5:	e6 20                	out    %al,$0x20
   325c7:	fb                   	sti    
   325c8:	e8 07 17 00 00       	call   33cd4 <hd_handler>
   325cd:	fa                   	cli    
   325ce:	c3                   	ret    

000325cf <Save>:
   325cf:	60                   	pusha  
   325d0:	1e                   	push   %ds
   325d1:	06                   	push   %es
   325d2:	0f a0                	push   %fs
   325d4:	0f a8                	push   %gs
   325d6:	66 8c d7             	mov    %ss,%di
   325d9:	8e df                	mov    %edi,%ds
   325db:	8e c7                	mov    %edi,%es
   325dd:	89 e7                	mov    %esp,%edi
   325df:	ff 05 48 8b 03 00    	incl   0x38b48
   325e5:	81 3d 48 8b 03 00 01 	cmpl   $0x1,0x38b48
   325ec:	00 00 00 
   325ef:	77 0d                	ja     325fe <Save.reenter>
   325f1:	bc 80 84 03 00       	mov    $0x38480,%esp
   325f6:	68 0d 26 03 00       	push   $0x3260d
   325fb:	ff 67 30             	jmp    *0x30(%edi)

000325fe <Save.reenter>:
   325fe:	68 53 26 03 00       	push   $0x32653
   32603:	65 fe 05 1c 02 00 00 	incb   %gs:0x21c
   3260a:	ff 67 30             	jmp    *0x30(%edi)

0003260d <restart>:
   3260d:	ff 35 60 8f 03 00    	pushl  0x38f60
   32613:	e8 e4 f6 ff ff       	call   31cfc <setTssEspReady>
   32618:	81 c4 04 00 00 00    	add    $0x4,%esp
   3261e:	ff 35 60 8f 03 00    	pushl  0x38f60
   32624:	e8 f8 f6 ff ff       	call   31d21 <getProRegTop>
   32629:	81 c4 04 00 00 00    	add    $0x4,%esp
   3262f:	ff 35 60 8f 03 00    	pushl  0x38f60
   32635:	e8 ac e1 ff ff       	call   307e6 <getProPointer>
   3263a:	81 c4 04 00 00 00    	add    $0x4,%esp
   32640:	89 c6                	mov    %eax,%esi
   32642:	03 35 44 4b 03 00    	add    0x34b44,%esi
   32648:	8b 06                	mov    (%esi),%eax
   3264a:	0f 00 d0             	lldt   %ax
   3264d:	8b 25 98 86 03 00    	mov    0x38698,%esp

00032653 <restart_reenter>:
   32653:	ff 0d 48 8b 03 00    	decl   0x38b48
   32659:	0f a9                	pop    %gs
   3265b:	0f a1                	pop    %fs
   3265d:	07                   	pop    %es
   3265e:	1f                   	pop    %ds
   3265f:	61                   	popa   
   32660:	81 c4 04 00 00 00    	add    $0x4,%esp
   32666:	cf                   	iret   
   32667:	90                   	nop
   32668:	90                   	nop
   32669:	90                   	nop
   3266a:	90                   	nop
   3266b:	90                   	nop
   3266c:	90                   	nop
   3266d:	90                   	nop
   3266e:	90                   	nop
   3266f:	90                   	nop

00032670 <myprintf>:
   32670:	55                   	push   %ebp
   32671:	89 e5                	mov    %esp,%ebp
   32673:	81 ec 40 00 00 00    	sub    $0x40,%esp
   32679:	8b 45 08             	mov    0x8(%ebp),%eax
   3267c:	50                   	push   %eax
   3267d:	89 e8                	mov    %ebp,%eax
   3267f:	05 0c 00 00 00       	add    $0xc,%eax
   32684:	50                   	push   %eax
   32685:	89 e8                	mov    %ebp,%eax
   32687:	2d 40 00 00 00       	sub    $0x40,%eax
   3268c:	50                   	push   %eax
   3268d:	e8 6d f5 ff ff       	call   31bff <vsprintf>
   32692:	81 c4 0c 00 00 00    	add    $0xc,%esp
   32698:	50                   	push   %eax
   32699:	89 e8                	mov    %ebp,%eax
   3269b:	2d 40 00 00 00       	sub    $0x40,%eax
   326a0:	50                   	push   %eax
   326a1:	e8 84 ec ff ff       	call   3132a <printx>
   326a6:	81 c4 08 00 00 00    	add    $0x8,%esp
   326ac:	81 c4 40 00 00 00    	add    $0x40,%esp
   326b2:	89 ec                	mov    %ebp,%esp
   326b4:	5d                   	pop    %ebp
   326b5:	c3                   	ret    
   326b6:	90                   	nop
   326b7:	90                   	nop

000326b8 <init_8259A>:
   326b8:	55                   	push   %ebp
   326b9:	89 e5                	mov    %esp,%ebp
   326bb:	83 ec 18             	sub    $0x18,%esp
   326be:	c7 44 24 04 11 00 00 	movl   $0x11,0x4(%esp)
   326c5:	00 
   326c6:	c7 04 24 20 00 00 00 	movl   $0x20,(%esp)
   326cd:	e8 28 04 00 00       	call   32afa <out_byte>
   326d2:	c7 44 24 04 20 00 00 	movl   $0x20,0x4(%esp)
   326d9:	00 
   326da:	c7 04 24 21 00 00 00 	movl   $0x21,(%esp)
   326e1:	e8 14 04 00 00       	call   32afa <out_byte>
   326e6:	c7 44 24 04 04 00 00 	movl   $0x4,0x4(%esp)
   326ed:	00 
   326ee:	c7 04 24 21 00 00 00 	movl   $0x21,(%esp)
   326f5:	e8 00 04 00 00       	call   32afa <out_byte>
   326fa:	c7 44 24 04 01 00 00 	movl   $0x1,0x4(%esp)
   32701:	00 
   32702:	c7 04 24 21 00 00 00 	movl   $0x21,(%esp)
   32709:	e8 ec 03 00 00       	call   32afa <out_byte>
   3270e:	c7 44 24 04 fc 00 00 	movl   $0xfc,0x4(%esp)
   32715:	00 
   32716:	c7 04 24 21 00 00 00 	movl   $0x21,(%esp)
   3271d:	e8 d8 03 00 00       	call   32afa <out_byte>
   32722:	c7 44 24 04 11 00 00 	movl   $0x11,0x4(%esp)
   32729:	00 
   3272a:	c7 04 24 a0 00 00 00 	movl   $0xa0,(%esp)
   32731:	e8 c4 03 00 00       	call   32afa <out_byte>
   32736:	c7 44 24 04 28 00 00 	movl   $0x28,0x4(%esp)
   3273d:	00 
   3273e:	c7 04 24 a1 00 00 00 	movl   $0xa1,(%esp)
   32745:	e8 b0 03 00 00       	call   32afa <out_byte>
   3274a:	c7 44 24 04 02 00 00 	movl   $0x2,0x4(%esp)
   32751:	00 
   32752:	c7 04 24 a1 00 00 00 	movl   $0xa1,(%esp)
   32759:	e8 9c 03 00 00       	call   32afa <out_byte>
   3275e:	c7 44 24 04 01 00 00 	movl   $0x1,0x4(%esp)
   32765:	00 
   32766:	c7 04 24 a1 00 00 00 	movl   $0xa1,(%esp)
   3276d:	e8 88 03 00 00       	call   32afa <out_byte>
   32772:	c7 44 24 04 ff 00 00 	movl   $0xff,0x4(%esp)
   32779:	00 
   3277a:	c7 04 24 a1 00 00 00 	movl   $0xa1,(%esp)
   32781:	e8 74 03 00 00       	call   32afa <out_byte>
   32786:	c9                   	leave  
   32787:	c3                   	ret    

00032788 <enable_slave8259>:
   32788:	55                   	push   %ebp
   32789:	89 e5                	mov    %esp,%ebp
   3278b:	83 ec 28             	sub    $0x28,%esp
   3278e:	c7 04 24 21 00 00 00 	movl   $0x21,(%esp)
   32795:	e8 70 03 00 00       	call   32b0a <in_byte>
   3279a:	0f b6 c0             	movzbl %al,%eax
   3279d:	89 45 f4             	mov    %eax,-0xc(%ebp)
   327a0:	81 65 f4 fb 00 00 00 	andl   $0xfb,-0xc(%ebp)
   327a7:	8b 45 f4             	mov    -0xc(%ebp),%eax
   327aa:	0f b6 c0             	movzbl %al,%eax
   327ad:	89 44 24 04          	mov    %eax,0x4(%esp)
   327b1:	c7 04 24 21 00 00 00 	movl   $0x21,(%esp)
   327b8:	e8 3d 03 00 00       	call   32afa <out_byte>
   327bd:	c9                   	leave  
   327be:	c3                   	ret    

000327bf <disable_slave8259>:
   327bf:	55                   	push   %ebp
   327c0:	89 e5                	mov    %esp,%ebp
   327c2:	83 ec 28             	sub    $0x28,%esp
   327c5:	c7 04 24 21 00 00 00 	movl   $0x21,(%esp)
   327cc:	e8 39 03 00 00       	call   32b0a <in_byte>
   327d1:	0f b6 c0             	movzbl %al,%eax
   327d4:	89 45 f4             	mov    %eax,-0xc(%ebp)
   327d7:	83 4d f4 04          	orl    $0x4,-0xc(%ebp)
   327db:	8b 45 f4             	mov    -0xc(%ebp),%eax
   327de:	0f b6 c0             	movzbl %al,%eax
   327e1:	89 44 24 04          	mov    %eax,0x4(%esp)
   327e5:	c7 04 24 21 00 00 00 	movl   $0x21,(%esp)
   327ec:	e8 09 03 00 00       	call   32afa <out_byte>
   327f1:	c9                   	leave  
   327f2:	c3                   	ret    

000327f3 <enable_disk>:
   327f3:	55                   	push   %ebp
   327f4:	89 e5                	mov    %esp,%ebp
   327f6:	83 ec 28             	sub    $0x28,%esp
   327f9:	e8 8a ff ff ff       	call   32788 <enable_slave8259>
   327fe:	c7 04 24 a1 00 00 00 	movl   $0xa1,(%esp)
   32805:	e8 00 03 00 00       	call   32b0a <in_byte>
   3280a:	0f b6 c0             	movzbl %al,%eax
   3280d:	89 45 f4             	mov    %eax,-0xc(%ebp)
   32810:	81 65 f4 bf 00 00 00 	andl   $0xbf,-0xc(%ebp)
   32817:	8b 45 f4             	mov    -0xc(%ebp),%eax
   3281a:	0f b6 c0             	movzbl %al,%eax
   3281d:	89 44 24 04          	mov    %eax,0x4(%esp)
   32821:	c7 04 24 a1 00 00 00 	movl   $0xa1,(%esp)
   32828:	e8 cd 02 00 00       	call   32afa <out_byte>
   3282d:	c9                   	leave  
   3282e:	c3                   	ret    

0003282f <disable_disk>:
   3282f:	55                   	push   %ebp
   32830:	89 e5                	mov    %esp,%ebp
   32832:	83 ec 28             	sub    $0x28,%esp
   32835:	c7 04 24 a1 00 00 00 	movl   $0xa1,(%esp)
   3283c:	e8 c9 02 00 00       	call   32b0a <in_byte>
   32841:	0f b6 c0             	movzbl %al,%eax
   32844:	89 45 f4             	mov    %eax,-0xc(%ebp)
   32847:	83 4d f4 40          	orl    $0x40,-0xc(%ebp)
   3284b:	8b 45 f4             	mov    -0xc(%ebp),%eax
   3284e:	0f b6 c0             	movzbl %al,%eax
   32851:	89 44 24 04          	mov    %eax,0x4(%esp)
   32855:	c7 04 24 a1 00 00 00 	movl   $0xa1,(%esp)
   3285c:	e8 99 02 00 00       	call   32afa <out_byte>
   32861:	c9                   	leave  
   32862:	c3                   	ret    

00032863 <enable_clock>:
   32863:	55                   	push   %ebp
   32864:	89 e5                	mov    %esp,%ebp
   32866:	83 ec 28             	sub    $0x28,%esp
   32869:	c7 04 24 21 00 00 00 	movl   $0x21,(%esp)
   32870:	e8 95 02 00 00       	call   32b0a <in_byte>
   32875:	0f b6 c0             	movzbl %al,%eax
   32878:	89 45 f4             	mov    %eax,-0xc(%ebp)
   3287b:	81 65 f4 fe 00 00 00 	andl   $0xfe,-0xc(%ebp)
   32882:	8b 45 f4             	mov    -0xc(%ebp),%eax
   32885:	0f b6 c0             	movzbl %al,%eax
   32888:	89 44 24 04          	mov    %eax,0x4(%esp)
   3288c:	c7 04 24 21 00 00 00 	movl   $0x21,(%esp)
   32893:	e8 62 02 00 00       	call   32afa <out_byte>
   32898:	c9                   	leave  
   32899:	c3                   	ret    

0003289a <disable_clock>:
   3289a:	55                   	push   %ebp
   3289b:	89 e5                	mov    %esp,%ebp
   3289d:	83 ec 28             	sub    $0x28,%esp
   328a0:	c7 04 24 21 00 00 00 	movl   $0x21,(%esp)
   328a7:	e8 5e 02 00 00       	call   32b0a <in_byte>
   328ac:	0f b6 c0             	movzbl %al,%eax
   328af:	89 45 f4             	mov    %eax,-0xc(%ebp)
   328b2:	83 4d f4 01          	orl    $0x1,-0xc(%ebp)
   328b6:	8b 45 f4             	mov    -0xc(%ebp),%eax
   328b9:	0f b6 c0             	movzbl %al,%eax
   328bc:	89 44 24 04          	mov    %eax,0x4(%esp)
   328c0:	c7 04 24 21 00 00 00 	movl   $0x21,(%esp)
   328c7:	e8 2e 02 00 00       	call   32afa <out_byte>
   328cc:	c9                   	leave  
   328cd:	c3                   	ret    

000328ce <enable_keyboard>:
   328ce:	55                   	push   %ebp
   328cf:	89 e5                	mov    %esp,%ebp
   328d1:	83 ec 28             	sub    $0x28,%esp
   328d4:	c7 04 24 21 00 00 00 	movl   $0x21,(%esp)
   328db:	e8 2a 02 00 00       	call   32b0a <in_byte>
   328e0:	0f b6 c0             	movzbl %al,%eax
   328e3:	89 45 f4             	mov    %eax,-0xc(%ebp)
   328e6:	81 65 f4 fd 00 00 00 	andl   $0xfd,-0xc(%ebp)
   328ed:	8b 45 f4             	mov    -0xc(%ebp),%eax
   328f0:	0f b6 c0             	movzbl %al,%eax
   328f3:	89 44 24 04          	mov    %eax,0x4(%esp)
   328f7:	c7 04 24 21 00 00 00 	movl   $0x21,(%esp)
   328fe:	e8 f7 01 00 00       	call   32afa <out_byte>
   32903:	c9                   	leave  
   32904:	c3                   	ret    

00032905 <disable_keyboard>:
   32905:	55                   	push   %ebp
   32906:	89 e5                	mov    %esp,%ebp
   32908:	83 ec 28             	sub    $0x28,%esp
   3290b:	c7 04 24 21 00 00 00 	movl   $0x21,(%esp)
   32912:	e8 f3 01 00 00       	call   32b0a <in_byte>
   32917:	0f b6 c0             	movzbl %al,%eax
   3291a:	89 45 f4             	mov    %eax,-0xc(%ebp)
   3291d:	83 4d f4 02          	orl    $0x2,-0xc(%ebp)
   32921:	8b 45 f4             	mov    -0xc(%ebp),%eax
   32924:	0f b6 c0             	movzbl %al,%eax
   32927:	89 44 24 04          	mov    %eax,0x4(%esp)
   3292b:	c7 04 24 21 00 00 00 	movl   $0x21,(%esp)
   32932:	e8 c3 01 00 00       	call   32afa <out_byte>
   32937:	c9                   	leave  
   32938:	c3                   	ret    

00032939 <triggerSlave8259>:
   32939:	55                   	push   %ebp
   3293a:	89 e5                	mov    %esp,%ebp
   3293c:	83 ec 18             	sub    $0x18,%esp
   3293f:	c7 44 24 04 20 00 00 	movl   $0x20,0x4(%esp)
   32946:	00 
   32947:	c7 04 24 a0 00 00 00 	movl   $0xa0,(%esp)
   3294e:	e8 a7 01 00 00       	call   32afa <out_byte>
   32953:	c9                   	leave  
   32954:	c3                   	ret    

00032955 <triggerMaster8259>:
   32955:	55                   	push   %ebp
   32956:	89 e5                	mov    %esp,%ebp
   32958:	83 ec 18             	sub    $0x18,%esp
   3295b:	c7 44 24 04 20 00 00 	movl   $0x20,0x4(%esp)
   32962:	00 
   32963:	c7 04 24 20 00 00 00 	movl   $0x20,(%esp)
   3296a:	e8 8b 01 00 00       	call   32afa <out_byte>
   3296f:	c9                   	leave  
   32970:	c3                   	ret    
   32971:	90                   	nop
   32972:	90                   	nop
   32973:	90                   	nop

00032974 <spin>:
   32974:	55                   	push   %ebp
   32975:	89 e5                	mov    %esp,%ebp
   32977:	83 ec 18             	sub    $0x18,%esp
   3297a:	8b 45 08             	mov    0x8(%ebp),%eax
   3297d:	89 44 24 04          	mov    %eax,0x4(%esp)
   32981:	c7 04 24 a4 4b 03 00 	movl   $0x34ba4,(%esp)
   32988:	e8 27 f2 ff ff       	call   31bb4 <printf>
   3298d:	eb fe                	jmp    3298d <spin+0x19>

0003298f <assertion_failure>:
   3298f:	55                   	push   %ebp
   32990:	89 e5                	mov    %esp,%ebp
   32992:	83 ec 28             	sub    $0x28,%esp
   32995:	a1 60 8f 03 00       	mov    0x38f60,%eax
   3299a:	8b 55 10             	mov    0x10(%ebp),%edx
   3299d:	89 54 24 18          	mov    %edx,0x18(%esp)
   329a1:	8b 55 14             	mov    0x14(%ebp),%edx
   329a4:	89 54 24 14          	mov    %edx,0x14(%esp)
   329a8:	8b 55 0c             	mov    0xc(%ebp),%edx
   329ab:	89 54 24 10          	mov    %edx,0x10(%esp)
   329af:	8b 55 08             	mov    0x8(%ebp),%edx
   329b2:	89 54 24 0c          	mov    %edx,0xc(%esp)
   329b6:	c7 44 24 08 03 00 00 	movl   $0x3,0x8(%esp)
   329bd:	00 
   329be:	89 44 24 04          	mov    %eax,0x4(%esp)
   329c2:	c7 04 24 b8 4b 03 00 	movl   $0x34bb8,(%esp)
   329c9:	e8 e6 f1 ff ff       	call   31bb4 <printf>
   329ce:	c7 04 24 f8 4b 03 00 	movl   $0x34bf8,(%esp)
   329d5:	e8 9a ff ff ff       	call   32974 <spin>
   329da:	0f 0b                	ud2a   
   329dc:	c9                   	leave  
   329dd:	c3                   	ret    

000329de <panic>:
   329de:	55                   	push   %ebp
   329df:	89 e5                	mov    %esp,%ebp
   329e1:	81 ec 28 01 00 00    	sub    $0x128,%esp
   329e7:	8d 45 08             	lea    0x8(%ebp),%eax
   329ea:	83 c0 04             	add    $0x4,%eax
   329ed:	89 45 f4             	mov    %eax,-0xc(%ebp)
   329f0:	8b 45 08             	mov    0x8(%ebp),%eax
   329f3:	89 44 24 08          	mov    %eax,0x8(%esp)
   329f7:	8b 45 f4             	mov    -0xc(%ebp),%eax
   329fa:	89 44 24 04          	mov    %eax,0x4(%esp)
   329fe:	8d 85 f0 fe ff ff    	lea    -0x110(%ebp),%eax
   32a04:	89 04 24             	mov    %eax,(%esp)
   32a07:	e8 f3 f1 ff ff       	call   31bff <vsprintf>
   32a0c:	89 45 f0             	mov    %eax,-0x10(%ebp)
   32a0f:	8d 85 f0 fe ff ff    	lea    -0x110(%ebp),%eax
   32a15:	89 44 24 08          	mov    %eax,0x8(%esp)
   32a19:	c7 44 24 04 02 00 00 	movl   $0x2,0x4(%esp)
   32a20:	00 
   32a21:	c7 04 24 09 4c 03 00 	movl   $0x34c09,(%esp)
   32a28:	e8 87 f1 ff ff       	call   31bb4 <printf>
   32a2d:	0f 0b                	ud2a   
   32a2f:	c9                   	leave  
   32a30:	c3                   	ret    

00032a31 <spin_kernel>:
   32a31:	55                   	push   %ebp
   32a32:	89 e5                	mov    %esp,%ebp
   32a34:	83 ec 18             	sub    $0x18,%esp
   32a37:	8b 45 08             	mov    0x8(%ebp),%eax
   32a3a:	89 44 24 04          	mov    %eax,0x4(%esp)
   32a3e:	c7 04 24 a4 4b 03 00 	movl   $0x34ba4,(%esp)
   32a45:	e8 62 df ff ff       	call   309ac <printf_kernel>
   32a4a:	eb fe                	jmp    32a4a <spin_kernel+0x19>

00032a4c <assertion_failure_kernel>:
   32a4c:	55                   	push   %ebp
   32a4d:	89 e5                	mov    %esp,%ebp
   32a4f:	83 ec 28             	sub    $0x28,%esp
   32a52:	a1 60 8f 03 00       	mov    0x38f60,%eax
   32a57:	8b 55 10             	mov    0x10(%ebp),%edx
   32a5a:	89 54 24 18          	mov    %edx,0x18(%esp)
   32a5e:	8b 55 14             	mov    0x14(%ebp),%edx
   32a61:	89 54 24 14          	mov    %edx,0x14(%esp)
   32a65:	8b 55 0c             	mov    0xc(%ebp),%edx
   32a68:	89 54 24 10          	mov    %edx,0x10(%esp)
   32a6c:	8b 55 08             	mov    0x8(%ebp),%edx
   32a6f:	89 54 24 0c          	mov    %edx,0xc(%esp)
   32a73:	c7 44 24 08 03 00 00 	movl   $0x3,0x8(%esp)
   32a7a:	00 
   32a7b:	89 44 24 04          	mov    %eax,0x4(%esp)
   32a7f:	c7 04 24 b8 4b 03 00 	movl   $0x34bb8,(%esp)
   32a86:	e8 21 df ff ff       	call   309ac <printf_kernel>
   32a8b:	c7 04 24 f8 4b 03 00 	movl   $0x34bf8,(%esp)
   32a92:	e8 9a ff ff ff       	call   32a31 <spin_kernel>
   32a97:	0f 0b                	ud2a   
   32a99:	c9                   	leave  
   32a9a:	c3                   	ret    
   32a9b:	90                   	nop
   32a9c:	90                   	nop
   32a9d:	90                   	nop
   32a9e:	90                   	nop
   32a9f:	90                   	nop

00032aa0 <disable_int>:
   32aa0:	fa                   	cli    
   32aa1:	c3                   	ret    

00032aa2 <enable_int>:
   32aa2:	fb                   	sti    
   32aa3:	c3                   	ret    

00032aa4 <disp_str>:
   32aa4:	55                   	push   %ebp
   32aa5:	89 e5                	mov    %esp,%ebp
   32aa7:	56                   	push   %esi
   32aa8:	57                   	push   %edi
   32aa9:	50                   	push   %eax
   32aaa:	53                   	push   %ebx
   32aab:	8b 75 08             	mov    0x8(%ebp),%esi
   32aae:	8b 3d 68 5e 03 00    	mov    0x35e68,%edi
   32ab4:	b4 0f                	mov    $0xf,%ah
   32ab6:	fc                   	cld    

00032ab7 <disp_str.1>:
   32ab7:	ac                   	lods   %ds:(%esi),%al
   32ab8:	84 c0                	test   %al,%al
   32aba:	74 30                	je     32aec <disp_str.2>
   32abc:	3c 7a                	cmp    $0x7a,%al
   32abe:	75 00                	jne    32ac0 <disp_str.4>

00032ac0 <disp_str.4>:
   32ac0:	3c 0a                	cmp    $0xa,%al
   32ac2:	75 19                	jne    32add <disp_str.3>
   32ac4:	50                   	push   %eax
   32ac5:	89 f8                	mov    %edi,%eax
   32ac7:	b3 a0                	mov    $0xa0,%bl
   32ac9:	f6 f3                	div    %bl
   32acb:	25 ff 00 00 00       	and    $0xff,%eax
   32ad0:	40                   	inc    %eax
   32ad1:	b3 a0                	mov    $0xa0,%bl
   32ad3:	f6 e3                	mul    %bl
   32ad5:	89 c7                	mov    %eax,%edi
   32ad7:	58                   	pop    %eax
   32ad8:	e9 da ff ff ff       	jmp    32ab7 <disp_str.1>

00032add <disp_str.3>:
   32add:	65 66 89 07          	mov    %ax,%gs:(%edi)
   32ae1:	81 c7 02 00 00 00    	add    $0x2,%edi
   32ae7:	e9 cb ff ff ff       	jmp    32ab7 <disp_str.1>

00032aec <disp_str.2>:
   32aec:	89 3d 68 5e 03 00    	mov    %edi,0x35e68
   32af2:	5b                   	pop    %ebx
   32af3:	58                   	pop    %eax
   32af4:	5f                   	pop    %edi
   32af5:	5e                   	pop    %esi
   32af6:	89 ec                	mov    %ebp,%esp
   32af8:	5d                   	pop    %ebp
   32af9:	c3                   	ret    

00032afa <out_byte>:
   32afa:	55                   	push   %ebp
   32afb:	89 e5                	mov    %esp,%ebp
   32afd:	8b 55 08             	mov    0x8(%ebp),%edx
   32b00:	8a 45 0c             	mov    0xc(%ebp),%al
   32b03:	ee                   	out    %al,(%dx)
   32b04:	90                   	nop
   32b05:	90                   	nop
   32b06:	89 ec                	mov    %ebp,%esp
   32b08:	5d                   	pop    %ebp
   32b09:	c3                   	ret    

00032b0a <in_byte>:
   32b0a:	55                   	push   %ebp
   32b0b:	89 e5                	mov    %esp,%ebp
   32b0d:	8b 55 08             	mov    0x8(%ebp),%edx
   32b10:	31 c0                	xor    %eax,%eax
   32b12:	ec                   	in     (%dx),%al
   32b13:	90                   	nop
   32b14:	90                   	nop
   32b15:	89 ec                	mov    %ebp,%esp
   32b17:	5d                   	pop    %ebp
   32b18:	c3                   	ret    

00032b19 <port_read>:
   32b19:	8b 54 24 04          	mov    0x4(%esp),%edx
   32b1d:	8b 7c 24 08          	mov    0x8(%esp),%edi
   32b21:	8b 4c 24 0c          	mov    0xc(%esp),%ecx
   32b25:	d1 e9                	shr    %ecx
   32b27:	fc                   	cld    
   32b28:	f3 66 6d             	rep insw (%dx),%es:(%edi)
   32b2b:	c3                   	ret    

00032b2c <memcpy>:
   32b2c:	55                   	push   %ebp
   32b2d:	89 e5                	mov    %esp,%ebp
   32b2f:	56                   	push   %esi
   32b30:	57                   	push   %edi
   32b31:	51                   	push   %ecx
   32b32:	50                   	push   %eax
   32b33:	8b 7d 08             	mov    0x8(%ebp),%edi
   32b36:	8b 75 0c             	mov    0xc(%ebp),%esi
   32b39:	8b 4d 10             	mov    0x10(%ebp),%ecx

00032b3c <memcpy.loop>:
   32b3c:	3e 8a 06             	mov    %ds:(%esi),%al
   32b3f:	26 88 07             	mov    %al,%es:(%edi)
   32b42:	46                   	inc    %esi
   32b43:	47                   	inc    %edi
   32b44:	e2 f6                	loop   32b3c <memcpy.loop>
   32b46:	58                   	pop    %eax
   32b47:	59                   	pop    %ecx
   32b48:	5f                   	pop    %edi
   32b49:	5e                   	pop    %esi
   32b4a:	89 ec                	mov    %ebp,%esp
   32b4c:	5d                   	pop    %ebp
   32b4d:	c3                   	ret    

00032b4e <disp_color_str>:
   32b4e:	55                   	push   %ebp
   32b4f:	89 e5                	mov    %esp,%ebp
   32b51:	8b 75 08             	mov    0x8(%ebp),%esi
   32b54:	8b 3d 68 5e 03 00    	mov    0x35e68,%edi
   32b5a:	8a 65 0c             	mov    0xc(%ebp),%ah

00032b5d <disp_color_str.1>:
   32b5d:	ac                   	lods   %ds:(%esi),%al
   32b5e:	84 c0                	test   %al,%al
   32b60:	74 2c                	je     32b8e <disp_color_str.2>
   32b62:	3c 0a                	cmp    $0xa,%al
   32b64:	75 19                	jne    32b7f <disp_color_str.3>
   32b66:	50                   	push   %eax
   32b67:	89 f8                	mov    %edi,%eax
   32b69:	b3 a0                	mov    $0xa0,%bl
   32b6b:	f6 f3                	div    %bl
   32b6d:	25 ff 00 00 00       	and    $0xff,%eax
   32b72:	40                   	inc    %eax
   32b73:	b3 a0                	mov    $0xa0,%bl
   32b75:	f6 e3                	mul    %bl
   32b77:	89 c7                	mov    %eax,%edi
   32b79:	58                   	pop    %eax
   32b7a:	e9 de ff ff ff       	jmp    32b5d <disp_color_str.1>

00032b7f <disp_color_str.3>:
   32b7f:	65 66 89 07          	mov    %ax,%gs:(%edi)
   32b83:	81 c7 02 00 00 00    	add    $0x2,%edi
   32b89:	e9 cf ff ff ff       	jmp    32b5d <disp_color_str.1>

00032b8e <disp_color_str.2>:
   32b8e:	81 ff a0 0f 00 00    	cmp    $0xfa0,%edi
   32b94:	72 05                	jb     32b9b <disp_color_str.4>
   32b96:	bf 02 00 00 00       	mov    $0x2,%edi

00032b9b <disp_color_str.4>:
   32b9b:	89 3d 68 5e 03 00    	mov    %edi,0x35e68
   32ba1:	89 ec                	mov    %ebp,%esp
   32ba3:	5d                   	pop    %ebp
   32ba4:	c3                   	ret    
   32ba5:	90                   	nop
   32ba6:	90                   	nop
   32ba7:	90                   	nop

00032ba8 <disp_int>:
   32ba8:	55                   	push   %ebp
   32ba9:	89 e5                	mov    %esp,%ebp
   32bab:	83 ec 28             	sub    $0x28,%esp
   32bae:	8b 45 08             	mov    0x8(%ebp),%eax
   32bb1:	89 44 24 04          	mov    %eax,0x4(%esp)
   32bb5:	8d 45 ec             	lea    -0x14(%ebp),%eax
   32bb8:	89 04 24             	mov    %eax,(%esp)
   32bbb:	e8 5a 00 00 00       	call   32c1a <itoa>
   32bc0:	8d 45 ec             	lea    -0x14(%ebp),%eax
   32bc3:	89 04 24             	mov    %eax,(%esp)
   32bc6:	e8 d9 fe ff ff       	call   32aa4 <disp_str>
   32bcb:	c7 04 24 19 4c 03 00 	movl   $0x34c19,(%esp)
   32bd2:	e8 cd fe ff ff       	call   32aa4 <disp_str>
   32bd7:	c9                   	leave  
   32bd8:	c3                   	ret    

00032bd9 <disp_strPos>:
   32bd9:	55                   	push   %ebp
   32bda:	89 e5                	mov    %esp,%ebp
   32bdc:	83 ec 28             	sub    $0x28,%esp
   32bdf:	8b 45 0c             	mov    0xc(%ebp),%eax
   32be2:	83 e0 01             	and    $0x1,%eax
   32be5:	84 c0                	test   %al,%al
   32be7:	75 2b                	jne    32c14 <disp_strPos+0x3b>
   32be9:	83 7d 0c 00          	cmpl   $0x0,0xc(%ebp)
   32bed:	78 28                	js     32c17 <disp_strPos+0x3e>
   32bef:	a1 68 5e 03 00       	mov    0x35e68,%eax
   32bf4:	89 45 f4             	mov    %eax,-0xc(%ebp)
   32bf7:	8b 45 0c             	mov    0xc(%ebp),%eax
   32bfa:	a3 68 5e 03 00       	mov    %eax,0x35e68
   32bff:	8b 45 08             	mov    0x8(%ebp),%eax
   32c02:	89 04 24             	mov    %eax,(%esp)
   32c05:	e8 9a fe ff ff       	call   32aa4 <disp_str>
   32c0a:	8b 45 f4             	mov    -0xc(%ebp),%eax
   32c0d:	a3 68 5e 03 00       	mov    %eax,0x35e68
   32c12:	eb 04                	jmp    32c18 <disp_strPos+0x3f>
   32c14:	90                   	nop
   32c15:	eb 01                	jmp    32c18 <disp_strPos+0x3f>
   32c17:	90                   	nop
   32c18:	c9                   	leave  
   32c19:	c3                   	ret    

00032c1a <itoa>:
   32c1a:	55                   	push   %ebp
   32c1b:	89 e5                	mov    %esp,%ebp
   32c1d:	83 ec 10             	sub    $0x10,%esp
   32c20:	c7 45 f0 09 00 00 00 	movl   $0x9,-0x10(%ebp)
   32c27:	c7 45 fc 00 00 00 00 	movl   $0x0,-0x4(%ebp)
   32c2e:	eb 0d                	jmp    32c3d <itoa+0x23>
   32c30:	8b 45 fc             	mov    -0x4(%ebp),%eax
   32c33:	03 45 08             	add    0x8(%ebp),%eax
   32c36:	c6 00 30             	movb   $0x30,(%eax)
   32c39:	83 45 fc 01          	addl   $0x1,-0x4(%ebp)
   32c3d:	83 7d fc 0a          	cmpl   $0xa,-0x4(%ebp)
   32c41:	7e ed                	jle    32c30 <itoa+0x16>
   32c43:	8b 45 08             	mov    0x8(%ebp),%eax
   32c46:	c6 00 30             	movb   $0x30,(%eax)
   32c49:	8b 45 08             	mov    0x8(%ebp),%eax
   32c4c:	83 c0 01             	add    $0x1,%eax
   32c4f:	c6 00 78             	movb   $0x78,(%eax)
   32c52:	8b 45 08             	mov    0x8(%ebp),%eax
   32c55:	83 c0 0a             	add    $0xa,%eax
   32c58:	c6 00 00             	movb   $0x0,(%eax)
   32c5b:	eb 44                	jmp    32ca1 <itoa+0x87>
   32c5d:	8b 45 0c             	mov    0xc(%ebp),%eax
   32c60:	c1 e8 04             	shr    $0x4,%eax
   32c63:	89 45 f8             	mov    %eax,-0x8(%ebp)
   32c66:	8b 45 0c             	mov    0xc(%ebp),%eax
   32c69:	83 e0 0f             	and    $0xf,%eax
   32c6c:	89 45 f4             	mov    %eax,-0xc(%ebp)
   32c6f:	83 7d f4 09          	cmpl   $0x9,-0xc(%ebp)
   32c73:	7f 14                	jg     32c89 <itoa+0x6f>
   32c75:	8b 45 f0             	mov    -0x10(%ebp),%eax
   32c78:	03 45 08             	add    0x8(%ebp),%eax
   32c7b:	8b 55 f4             	mov    -0xc(%ebp),%edx
   32c7e:	83 c2 30             	add    $0x30,%edx
   32c81:	88 10                	mov    %dl,(%eax)
   32c83:	83 6d f0 01          	subl   $0x1,-0x10(%ebp)
   32c87:	eb 12                	jmp    32c9b <itoa+0x81>
   32c89:	8b 45 f0             	mov    -0x10(%ebp),%eax
   32c8c:	03 45 08             	add    0x8(%ebp),%eax
   32c8f:	8b 55 f4             	mov    -0xc(%ebp),%edx
   32c92:	83 c2 37             	add    $0x37,%edx
   32c95:	88 10                	mov    %dl,(%eax)
   32c97:	83 6d f0 01          	subl   $0x1,-0x10(%ebp)
   32c9b:	8b 45 f8             	mov    -0x8(%ebp),%eax
   32c9e:	89 45 0c             	mov    %eax,0xc(%ebp)
   32ca1:	83 7d 0c 00          	cmpl   $0x0,0xc(%ebp)
   32ca5:	74 06                	je     32cad <itoa+0x93>
   32ca7:	83 7d f0 01          	cmpl   $0x1,-0x10(%ebp)
   32cab:	7f b0                	jg     32c5d <itoa+0x43>
   32cad:	8b 45 08             	mov    0x8(%ebp),%eax
   32cb0:	c9                   	leave  
   32cb1:	c3                   	ret    

00032cb2 <strcpy>:
   32cb2:	55                   	push   %ebp
   32cb3:	89 e5                	mov    %esp,%ebp
   32cb5:	83 ec 10             	sub    $0x10,%esp
   32cb8:	c7 45 fc 00 00 00 00 	movl   $0x0,-0x4(%ebp)
   32cbf:	eb 01                	jmp    32cc2 <strcpy+0x10>
   32cc1:	90                   	nop
   32cc2:	8b 45 fc             	mov    -0x4(%ebp),%eax
   32cc5:	03 45 08             	add    0x8(%ebp),%eax
   32cc8:	8b 55 fc             	mov    -0x4(%ebp),%edx
   32ccb:	03 55 0c             	add    0xc(%ebp),%edx
   32cce:	0f b6 12             	movzbl (%edx),%edx
   32cd1:	88 10                	mov    %dl,(%eax)
   32cd3:	83 45 fc 01          	addl   $0x1,-0x4(%ebp)
   32cd7:	8b 45 fc             	mov    -0x4(%ebp),%eax
   32cda:	03 45 0c             	add    0xc(%ebp),%eax
   32cdd:	0f b6 00             	movzbl (%eax),%eax
   32ce0:	84 c0                	test   %al,%al
   32ce2:	75 dd                	jne    32cc1 <strcpy+0xf>
   32ce4:	c9                   	leave  
   32ce5:	c3                   	ret    

00032ce6 <strlen>:
   32ce6:	55                   	push   %ebp
   32ce7:	89 e5                	mov    %esp,%ebp
   32ce9:	83 ec 10             	sub    $0x10,%esp
   32cec:	c7 45 fc 00 00 00 00 	movl   $0x0,-0x4(%ebp)
   32cf3:	8b 45 fc             	mov    -0x4(%ebp),%eax
   32cf6:	03 45 08             	add    0x8(%ebp),%eax
   32cf9:	0f b6 00             	movzbl (%eax),%eax
   32cfc:	84 c0                	test   %al,%al
   32cfe:	74 06                	je     32d06 <strlen+0x20>
   32d00:	83 45 fc 01          	addl   $0x1,-0x4(%ebp)
   32d04:	eb ed                	jmp    32cf3 <strlen+0xd>
   32d06:	8b 45 fc             	mov    -0x4(%ebp),%eax
   32d09:	c9                   	leave  
   32d0a:	c3                   	ret    
   32d0b:	90                   	nop

00032d0c <init_tasks>:
   32d0c:	55                   	push   %ebp
   32d0d:	89 e5                	mov    %esp,%ebp
   32d0f:	83 ec 18             	sub    $0x18,%esp
   32d12:	b8 c8 39 03 00       	mov    $0x339c8,%eax
   32d17:	89 04 24             	mov    %eax,(%esp)
   32d1a:	e8 dd da ff ff       	call   307fc <add_system_task>
   32d1f:	b8 0c 3c 03 00       	mov    $0x33c0c,%eax
   32d24:	89 04 24             	mov    %eax,(%esp)
   32d27:	e8 d0 da ff ff       	call   307fc <add_system_task>
   32d2c:	b8 f4 3c 03 00       	mov    $0x33cf4,%eax
   32d31:	89 04 24             	mov    %eax,(%esp)
   32d34:	e8 c3 da ff ff       	call   307fc <add_system_task>
   32d39:	b8 90 3c 03 00       	mov    $0x33c90,%eax
   32d3e:	89 04 24             	mov    %eax,(%esp)
   32d41:	e8 b6 da ff ff       	call   307fc <add_system_task>
   32d46:	c9                   	leave  
   32d47:	c3                   	ret    

00032d48 <get_ticks>:
   32d48:	55                   	push   %ebp
   32d49:	89 e5                	mov    %esp,%ebp
   32d4b:	83 ec 48             	sub    $0x48,%esp
   32d4e:	8d 45 c8             	lea    -0x38(%ebp),%eax
   32d51:	89 44 24 08          	mov    %eax,0x8(%esp)
   32d55:	c7 44 24 04 02 00 00 	movl   $0x2,0x4(%esp)
   32d5c:	00 
   32d5d:	c7 04 24 01 00 00 00 	movl   $0x1,(%esp)
   32d64:	e8 d5 e5 ff ff       	call   3133e <sendrec>
   32d69:	8d 45 c8             	lea    -0x38(%ebp),%eax
   32d6c:	89 44 24 08          	mov    %eax,0x8(%esp)
   32d70:	c7 44 24 04 02 00 00 	movl   $0x2,0x4(%esp)
   32d77:	00 
   32d78:	c7 04 24 02 00 00 00 	movl   $0x2,(%esp)
   32d7f:	e8 ba e5 ff ff       	call   3133e <sendrec>
   32d84:	8b 45 d0             	mov    -0x30(%ebp),%eax
   32d87:	c9                   	leave  
   32d88:	c3                   	ret    
   32d89:	90                   	nop
   32d8a:	90                   	nop
   32d8b:	90                   	nop

00032d8c <init_KB_INPUT>:
   32d8c:	55                   	push   %ebp
   32d8d:	89 e5                	mov    %esp,%ebp
   32d8f:	83 ec 18             	sub    $0x18,%esp
   32d92:	83 7d 08 00          	cmpl   $0x0,0x8(%ebp)
   32d96:	75 24                	jne    32dbc <init_KB_INPUT+0x30>
   32d98:	c7 44 24 0c 0b 00 00 	movl   $0xb,0xc(%esp)
   32d9f:	00 
   32da0:	c7 44 24 08 1b 4c 03 	movl   $0x34c1b,0x8(%esp)
   32da7:	00 
   32da8:	c7 44 24 04 1b 4c 03 	movl   $0x34c1b,0x4(%esp)
   32daf:	00 
   32db0:	c7 04 24 2f 4c 03 00 	movl   $0x34c2f,(%esp)
   32db7:	e8 d3 fb ff ff       	call   3298f <assertion_failure>
   32dbc:	8b 45 08             	mov    0x8(%ebp),%eax
   32dbf:	c7 00 00 00 00 00    	movl   $0x0,(%eax)
   32dc5:	8b 45 08             	mov    0x8(%ebp),%eax
   32dc8:	c7 40 04 01 00 00 00 	movl   $0x1,0x4(%eax)
   32dcf:	8b 45 08             	mov    0x8(%ebp),%eax
   32dd2:	c7 40 08 00 00 00 00 	movl   $0x0,0x8(%eax)
   32dd9:	c9                   	leave  
   32dda:	c3                   	ret    

00032ddb <get_scancode>:
   32ddb:	55                   	push   %ebp
   32ddc:	89 e5                	mov    %esp,%ebp
   32dde:	83 ec 28             	sub    $0x28,%esp
   32de1:	83 7d 08 00          	cmpl   $0x0,0x8(%ebp)
   32de5:	75 24                	jne    32e0b <get_scancode+0x30>
   32de7:	c7 44 24 0c 14 00 00 	movl   $0x14,0xc(%esp)
   32dee:	00 
   32def:	c7 44 24 08 1b 4c 03 	movl   $0x34c1b,0x8(%esp)
   32df6:	00 
   32df7:	c7 44 24 04 1b 4c 03 	movl   $0x34c1b,0x4(%esp)
   32dfe:	00 
   32dff:	c7 04 24 2f 4c 03 00 	movl   $0x34c2f,(%esp)
   32e06:	e8 84 fb ff ff       	call   3298f <assertion_failure>
   32e0b:	8b 55 0c             	mov    0xc(%ebp),%edx
   32e0e:	8b 45 08             	mov    0x8(%ebp),%eax
   32e11:	8b 40 08             	mov    0x8(%eax),%eax
   32e14:	39 c2                	cmp    %eax,%edx
   32e16:	77 06                	ja     32e1e <get_scancode+0x43>
   32e18:	83 7d 0c 00          	cmpl   $0x0,0xc(%ebp)
   32e1c:	7f 07                	jg     32e25 <get_scancode+0x4a>
   32e1e:	b8 ff ff ff ff       	mov    $0xffffffff,%eax
   32e23:	eb 75                	jmp    32e9a <get_scancode+0xbf>
   32e25:	8b 45 08             	mov    0x8(%ebp),%eax
   32e28:	8b 10                	mov    (%eax),%edx
   32e2a:	8b 45 08             	mov    0x8(%ebp),%eax
   32e2d:	8b 40 04             	mov    0x4(%eax),%eax
   32e30:	39 c2                	cmp    %eax,%edx
   32e32:	73 14                	jae    32e48 <get_scancode+0x6d>
   32e34:	8b 45 08             	mov    0x8(%ebp),%eax
   32e37:	8b 10                	mov    (%eax),%edx
   32e39:	8b 45 0c             	mov    0xc(%ebp),%eax
   32e3c:	01 c2                	add    %eax,%edx
   32e3e:	8b 45 08             	mov    0x8(%ebp),%eax
   32e41:	0f b6 44 10 0c       	movzbl 0xc(%eax,%edx,1),%eax
   32e46:	eb 52                	jmp    32e9a <get_scancode+0xbf>
   32e48:	8b 45 08             	mov    0x8(%ebp),%eax
   32e4b:	8b 10                	mov    (%eax),%edx
   32e4d:	8b 45 08             	mov    0x8(%ebp),%eax
   32e50:	8b 40 04             	mov    0x4(%eax),%eax
   32e53:	39 c2                	cmp    %eax,%edx
   32e55:	76 3e                	jbe    32e95 <get_scancode+0xba>
   32e57:	8b 45 08             	mov    0x8(%ebp),%eax
   32e5a:	8b 10                	mov    (%eax),%edx
   32e5c:	8b 45 0c             	mov    0xc(%ebp),%eax
   32e5f:	8d 04 02             	lea    (%edx,%eax,1),%eax
   32e62:	83 f8 1f             	cmp    $0x1f,%eax
   32e65:	76 13                	jbe    32e7a <get_scancode+0x9f>
   32e67:	8b 45 08             	mov    0x8(%ebp),%eax
   32e6a:	8b 10                	mov    (%eax),%edx
   32e6c:	8b 45 0c             	mov    0xc(%ebp),%eax
   32e6f:	8d 04 02             	lea    (%edx,%eax,1),%eax
   32e72:	83 e8 20             	sub    $0x20,%eax
   32e75:	89 45 f4             	mov    %eax,-0xc(%ebp)
   32e78:	eb 0e                	jmp    32e88 <get_scancode+0xad>
   32e7a:	8b 45 08             	mov    0x8(%ebp),%eax
   32e7d:	8b 10                	mov    (%eax),%edx
   32e7f:	8b 45 0c             	mov    0xc(%ebp),%eax
   32e82:	8d 04 02             	lea    (%edx,%eax,1),%eax
   32e85:	89 45 f4             	mov    %eax,-0xc(%ebp)
   32e88:	8b 45 f4             	mov    -0xc(%ebp),%eax
   32e8b:	8b 55 08             	mov    0x8(%ebp),%edx
   32e8e:	0f b6 44 02 0c       	movzbl 0xc(%edx,%eax,1),%eax
   32e93:	eb 05                	jmp    32e9a <get_scancode+0xbf>
   32e95:	b8 ff ff ff ff       	mov    $0xffffffff,%eax
   32e9a:	c9                   	leave  
   32e9b:	c3                   	ret    

00032e9c <shift_out>:
   32e9c:	55                   	push   %ebp
   32e9d:	89 e5                	mov    %esp,%ebp
   32e9f:	83 ec 18             	sub    $0x18,%esp
   32ea2:	83 7d 08 00          	cmpl   $0x0,0x8(%ebp)
   32ea6:	75 24                	jne    32ecc <shift_out+0x30>
   32ea8:	c7 44 24 0c 27 00 00 	movl   $0x27,0xc(%esp)
   32eaf:	00 
   32eb0:	c7 44 24 08 1b 4c 03 	movl   $0x34c1b,0x8(%esp)
   32eb7:	00 
   32eb8:	c7 44 24 04 1b 4c 03 	movl   $0x34c1b,0x4(%esp)
   32ebf:	00 
   32ec0:	c7 04 24 36 4c 03 00 	movl   $0x34c36,(%esp)
   32ec7:	e8 c3 fa ff ff       	call   3298f <assertion_failure>
   32ecc:	8b 45 08             	mov    0x8(%ebp),%eax
   32ecf:	8b 40 08             	mov    0x8(%eax),%eax
   32ed2:	85 c0                	test   %eax,%eax
   32ed4:	75 0a                	jne    32ee0 <shift_out+0x44>
   32ed6:	b8 ff ff ff ff       	mov    $0xffffffff,%eax
   32edb:	e9 a7 00 00 00       	jmp    32f87 <shift_out+0xeb>
   32ee0:	8b 45 08             	mov    0x8(%ebp),%eax
   32ee3:	8b 10                	mov    (%eax),%edx
   32ee5:	8b 45 08             	mov    0x8(%ebp),%eax
   32ee8:	8b 40 04             	mov    0x4(%eax),%eax
   32eeb:	39 c2                	cmp    %eax,%edx
   32eed:	73 2b                	jae    32f1a <shift_out+0x7e>
   32eef:	8b 45 08             	mov    0x8(%ebp),%eax
   32ef2:	8b 00                	mov    (%eax),%eax
   32ef4:	8d 50 01             	lea    0x1(%eax),%edx
   32ef7:	8b 45 08             	mov    0x8(%ebp),%eax
   32efa:	89 10                	mov    %edx,(%eax)
   32efc:	8b 45 08             	mov    0x8(%ebp),%eax
   32eff:	8b 40 08             	mov    0x8(%eax),%eax
   32f02:	8d 50 ff             	lea    -0x1(%eax),%edx
   32f05:	8b 45 08             	mov    0x8(%ebp),%eax
   32f08:	89 50 08             	mov    %edx,0x8(%eax)
   32f0b:	8b 45 08             	mov    0x8(%ebp),%eax
   32f0e:	8b 00                	mov    (%eax),%eax
   32f10:	8b 55 08             	mov    0x8(%ebp),%edx
   32f13:	0f b6 44 02 0c       	movzbl 0xc(%edx,%eax,1),%eax
   32f18:	eb 6d                	jmp    32f87 <shift_out+0xeb>
   32f1a:	8b 45 08             	mov    0x8(%ebp),%eax
   32f1d:	8b 10                	mov    (%eax),%edx
   32f1f:	8b 45 08             	mov    0x8(%ebp),%eax
   32f22:	8b 40 04             	mov    0x4(%eax),%eax
   32f25:	39 c2                	cmp    %eax,%edx
   32f27:	76 5c                	jbe    32f85 <shift_out+0xe9>
   32f29:	8b 45 08             	mov    0x8(%ebp),%eax
   32f2c:	8b 00                	mov    (%eax),%eax
   32f2e:	83 f8 1f             	cmp    $0x1f,%eax
   32f31:	75 27                	jne    32f5a <shift_out+0xbe>
   32f33:	8b 45 08             	mov    0x8(%ebp),%eax
   32f36:	c7 00 00 00 00 00    	movl   $0x0,(%eax)
   32f3c:	8b 45 08             	mov    0x8(%ebp),%eax
   32f3f:	8b 40 08             	mov    0x8(%eax),%eax
   32f42:	8d 50 ff             	lea    -0x1(%eax),%edx
   32f45:	8b 45 08             	mov    0x8(%ebp),%eax
   32f48:	89 50 08             	mov    %edx,0x8(%eax)
   32f4b:	8b 45 08             	mov    0x8(%ebp),%eax
   32f4e:	8b 00                	mov    (%eax),%eax
   32f50:	8b 55 08             	mov    0x8(%ebp),%edx
   32f53:	0f b6 44 02 0c       	movzbl 0xc(%edx,%eax,1),%eax
   32f58:	eb 2d                	jmp    32f87 <shift_out+0xeb>
   32f5a:	8b 45 08             	mov    0x8(%ebp),%eax
   32f5d:	8b 00                	mov    (%eax),%eax
   32f5f:	8d 50 01             	lea    0x1(%eax),%edx
   32f62:	8b 45 08             	mov    0x8(%ebp),%eax
   32f65:	89 10                	mov    %edx,(%eax)
   32f67:	8b 45 08             	mov    0x8(%ebp),%eax
   32f6a:	8b 40 08             	mov    0x8(%eax),%eax
   32f6d:	8d 50 ff             	lea    -0x1(%eax),%edx
   32f70:	8b 45 08             	mov    0x8(%ebp),%eax
   32f73:	89 50 08             	mov    %edx,0x8(%eax)
   32f76:	8b 45 08             	mov    0x8(%ebp),%eax
   32f79:	8b 00                	mov    (%eax),%eax
   32f7b:	8b 55 08             	mov    0x8(%ebp),%edx
   32f7e:	0f b6 44 02 0c       	movzbl 0xc(%edx,%eax,1),%eax
   32f83:	eb 02                	jmp    32f87 <shift_out+0xeb>
   32f85:	eb 00                	jmp    32f87 <shift_out+0xeb>
   32f87:	c9                   	leave  
   32f88:	c3                   	ret    

00032f89 <shift_outM>:
   32f89:	55                   	push   %ebp
   32f8a:	89 e5                	mov    %esp,%ebp
   32f8c:	83 ec 28             	sub    $0x28,%esp
   32f8f:	c7 45 f4 00 00 00 00 	movl   $0x0,-0xc(%ebp)
   32f96:	eb 0f                	jmp    32fa7 <shift_outM+0x1e>
   32f98:	8b 45 08             	mov    0x8(%ebp),%eax
   32f9b:	89 04 24             	mov    %eax,(%esp)
   32f9e:	e8 f9 fe ff ff       	call   32e9c <shift_out>
   32fa3:	83 45 f4 01          	addl   $0x1,-0xc(%ebp)
   32fa7:	8b 45 f4             	mov    -0xc(%ebp),%eax
   32faa:	3b 45 0c             	cmp    0xc(%ebp),%eax
   32fad:	7c e9                	jl     32f98 <shift_outM+0xf>
   32faf:	c9                   	leave  
   32fb0:	c3                   	ret    

00032fb1 <add_head>:
   32fb1:	55                   	push   %ebp
   32fb2:	89 e5                	mov    %esp,%ebp
   32fb4:	83 ec 28             	sub    $0x28,%esp
   32fb7:	8b 45 0c             	mov    0xc(%ebp),%eax
   32fba:	88 45 f4             	mov    %al,-0xc(%ebp)
   32fbd:	83 7d 08 00          	cmpl   $0x0,0x8(%ebp)
   32fc1:	75 24                	jne    32fe7 <add_head+0x36>
   32fc3:	c7 44 24 0c 45 00 00 	movl   $0x45,0xc(%esp)
   32fca:	00 
   32fcb:	c7 44 24 08 1b 4c 03 	movl   $0x34c1b,0x8(%esp)
   32fd2:	00 
   32fd3:	c7 44 24 04 1b 4c 03 	movl   $0x34c1b,0x4(%esp)
   32fda:	00 
   32fdb:	c7 04 24 36 4c 03 00 	movl   $0x34c36,(%esp)
   32fe2:	e8 a8 f9 ff ff       	call   3298f <assertion_failure>
   32fe7:	8b 45 08             	mov    0x8(%ebp),%eax
   32fea:	8b 40 08             	mov    0x8(%eax),%eax
   32fed:	83 f8 1d             	cmp    $0x1d,%eax
   32ff0:	76 0a                	jbe    32ffc <add_head+0x4b>
   32ff2:	b8 00 00 00 00       	mov    $0x0,%eax
   32ff7:	e9 aa 00 00 00       	jmp    330a6 <add_head+0xf5>
   32ffc:	8b 45 08             	mov    0x8(%ebp),%eax
   32fff:	8b 10                	mov    (%eax),%edx
   33001:	8b 45 08             	mov    0x8(%ebp),%eax
   33004:	8b 40 04             	mov    0x4(%eax),%eax
   33007:	39 c2                	cmp    %eax,%edx
   33009:	73 5b                	jae    33066 <add_head+0xb5>
   3300b:	8b 45 08             	mov    0x8(%ebp),%eax
   3300e:	8b 00                	mov    (%eax),%eax
   33010:	85 c0                	test   %eax,%eax
   33012:	75 24                	jne    33038 <add_head+0x87>
   33014:	0f b6 55 f4          	movzbl -0xc(%ebp),%edx
   33018:	8b 45 08             	mov    0x8(%ebp),%eax
   3301b:	88 50 0c             	mov    %dl,0xc(%eax)
   3301e:	8b 45 08             	mov    0x8(%ebp),%eax
   33021:	c7 00 1f 00 00 00    	movl   $0x1f,(%eax)
   33027:	8b 45 08             	mov    0x8(%ebp),%eax
   3302a:	8b 40 08             	mov    0x8(%eax),%eax
   3302d:	8d 50 01             	lea    0x1(%eax),%edx
   33030:	8b 45 08             	mov    0x8(%ebp),%eax
   33033:	89 50 08             	mov    %edx,0x8(%eax)
   33036:	eb 69                	jmp    330a1 <add_head+0xf0>
   33038:	8b 45 08             	mov    0x8(%ebp),%eax
   3303b:	8b 00                	mov    (%eax),%eax
   3303d:	0f b6 4d f4          	movzbl -0xc(%ebp),%ecx
   33041:	8b 55 08             	mov    0x8(%ebp),%edx
   33044:	88 4c 02 0c          	mov    %cl,0xc(%edx,%eax,1)
   33048:	8b 45 08             	mov    0x8(%ebp),%eax
   3304b:	8b 00                	mov    (%eax),%eax
   3304d:	8d 50 ff             	lea    -0x1(%eax),%edx
   33050:	8b 45 08             	mov    0x8(%ebp),%eax
   33053:	89 10                	mov    %edx,(%eax)
   33055:	8b 45 08             	mov    0x8(%ebp),%eax
   33058:	8b 40 08             	mov    0x8(%eax),%eax
   3305b:	8d 50 01             	lea    0x1(%eax),%edx
   3305e:	8b 45 08             	mov    0x8(%ebp),%eax
   33061:	89 50 08             	mov    %edx,0x8(%eax)
   33064:	eb 3b                	jmp    330a1 <add_head+0xf0>
   33066:	8b 45 08             	mov    0x8(%ebp),%eax
   33069:	8b 10                	mov    (%eax),%edx
   3306b:	8b 45 08             	mov    0x8(%ebp),%eax
   3306e:	8b 40 04             	mov    0x4(%eax),%eax
   33071:	39 c2                	cmp    %eax,%edx
   33073:	76 2c                	jbe    330a1 <add_head+0xf0>
   33075:	8b 45 08             	mov    0x8(%ebp),%eax
   33078:	8b 00                	mov    (%eax),%eax
   3307a:	0f b6 4d f4          	movzbl -0xc(%ebp),%ecx
   3307e:	8b 55 08             	mov    0x8(%ebp),%edx
   33081:	88 4c 02 0c          	mov    %cl,0xc(%edx,%eax,1)
   33085:	8b 45 08             	mov    0x8(%ebp),%eax
   33088:	8b 00                	mov    (%eax),%eax
   3308a:	8d 50 ff             	lea    -0x1(%eax),%edx
   3308d:	8b 45 08             	mov    0x8(%ebp),%eax
   33090:	89 10                	mov    %edx,(%eax)
   33092:	8b 45 08             	mov    0x8(%ebp),%eax
   33095:	8b 40 08             	mov    0x8(%eax),%eax
   33098:	8d 50 01             	lea    0x1(%eax),%edx
   3309b:	8b 45 08             	mov    0x8(%ebp),%eax
   3309e:	89 50 08             	mov    %edx,0x8(%eax)
   330a1:	b8 01 00 00 00       	mov    $0x1,%eax
   330a6:	c9                   	leave  
   330a7:	c3                   	ret    

000330a8 <add_tail>:
   330a8:	55                   	push   %ebp
   330a9:	89 e5                	mov    %esp,%ebp
   330ab:	83 ec 28             	sub    $0x28,%esp
   330ae:	8b 45 0c             	mov    0xc(%ebp),%eax
   330b1:	88 45 f4             	mov    %al,-0xc(%ebp)
   330b4:	83 7d 08 00          	cmpl   $0x0,0x8(%ebp)
   330b8:	75 24                	jne    330de <add_tail+0x36>
   330ba:	c7 44 24 0c 5f 00 00 	movl   $0x5f,0xc(%esp)
   330c1:	00 
   330c2:	c7 44 24 08 1b 4c 03 	movl   $0x34c1b,0x8(%esp)
   330c9:	00 
   330ca:	c7 44 24 04 1b 4c 03 	movl   $0x34c1b,0x4(%esp)
   330d1:	00 
   330d2:	c7 04 24 36 4c 03 00 	movl   $0x34c36,(%esp)
   330d9:	e8 b1 f8 ff ff       	call   3298f <assertion_failure>
   330de:	8b 45 08             	mov    0x8(%ebp),%eax
   330e1:	8b 40 08             	mov    0x8(%eax),%eax
   330e4:	83 f8 1d             	cmp    $0x1d,%eax
   330e7:	76 0a                	jbe    330f3 <add_tail+0x4b>
   330e9:	b8 00 00 00 00       	mov    $0x0,%eax
   330ee:	e9 ba 00 00 00       	jmp    331ad <add_tail+0x105>
   330f3:	8b 45 08             	mov    0x8(%ebp),%eax
   330f6:	8b 10                	mov    (%eax),%edx
   330f8:	8b 45 08             	mov    0x8(%ebp),%eax
   330fb:	8b 40 04             	mov    0x4(%eax),%eax
   330fe:	39 c2                	cmp    %eax,%edx
   33100:	73 68                	jae    3316a <add_tail+0xc2>
   33102:	8b 45 08             	mov    0x8(%ebp),%eax
   33105:	8b 40 04             	mov    0x4(%eax),%eax
   33108:	83 f8 1f             	cmp    $0x1f,%eax
   3310b:	75 2c                	jne    33139 <add_tail+0x91>
   3310d:	8b 45 08             	mov    0x8(%ebp),%eax
   33110:	8b 40 04             	mov    0x4(%eax),%eax
   33113:	0f b6 4d f4          	movzbl -0xc(%ebp),%ecx
   33117:	8b 55 08             	mov    0x8(%ebp),%edx
   3311a:	88 4c 02 0c          	mov    %cl,0xc(%edx,%eax,1)
   3311e:	8b 45 08             	mov    0x8(%ebp),%eax
   33121:	c7 40 04 00 00 00 00 	movl   $0x0,0x4(%eax)
   33128:	8b 45 08             	mov    0x8(%ebp),%eax
   3312b:	8b 40 08             	mov    0x8(%eax),%eax
   3312e:	8d 50 01             	lea    0x1(%eax),%edx
   33131:	8b 45 08             	mov    0x8(%ebp),%eax
   33134:	89 50 08             	mov    %edx,0x8(%eax)
   33137:	eb 6f                	jmp    331a8 <add_tail+0x100>
   33139:	8b 45 08             	mov    0x8(%ebp),%eax
   3313c:	8b 40 04             	mov    0x4(%eax),%eax
   3313f:	0f b6 4d f4          	movzbl -0xc(%ebp),%ecx
   33143:	8b 55 08             	mov    0x8(%ebp),%edx
   33146:	88 4c 02 0c          	mov    %cl,0xc(%edx,%eax,1)
   3314a:	8b 45 08             	mov    0x8(%ebp),%eax
   3314d:	8b 40 04             	mov    0x4(%eax),%eax
   33150:	8d 50 01             	lea    0x1(%eax),%edx
   33153:	8b 45 08             	mov    0x8(%ebp),%eax
   33156:	89 50 04             	mov    %edx,0x4(%eax)
   33159:	8b 45 08             	mov    0x8(%ebp),%eax
   3315c:	8b 40 08             	mov    0x8(%eax),%eax
   3315f:	8d 50 01             	lea    0x1(%eax),%edx
   33162:	8b 45 08             	mov    0x8(%ebp),%eax
   33165:	89 50 08             	mov    %edx,0x8(%eax)
   33168:	eb 3e                	jmp    331a8 <add_tail+0x100>
   3316a:	8b 45 08             	mov    0x8(%ebp),%eax
   3316d:	8b 10                	mov    (%eax),%edx
   3316f:	8b 45 08             	mov    0x8(%ebp),%eax
   33172:	8b 40 04             	mov    0x4(%eax),%eax
   33175:	39 c2                	cmp    %eax,%edx
   33177:	76 2f                	jbe    331a8 <add_tail+0x100>
   33179:	8b 45 08             	mov    0x8(%ebp),%eax
   3317c:	8b 40 04             	mov    0x4(%eax),%eax
   3317f:	0f b6 4d f4          	movzbl -0xc(%ebp),%ecx
   33183:	8b 55 08             	mov    0x8(%ebp),%edx
   33186:	88 4c 02 0c          	mov    %cl,0xc(%edx,%eax,1)
   3318a:	8b 45 08             	mov    0x8(%ebp),%eax
   3318d:	8b 40 04             	mov    0x4(%eax),%eax
   33190:	8d 50 01             	lea    0x1(%eax),%edx
   33193:	8b 45 08             	mov    0x8(%ebp),%eax
   33196:	89 50 04             	mov    %edx,0x4(%eax)
   33199:	8b 45 08             	mov    0x8(%ebp),%eax
   3319c:	8b 40 08             	mov    0x8(%eax),%eax
   3319f:	8d 50 01             	lea    0x1(%eax),%edx
   331a2:	8b 45 08             	mov    0x8(%ebp),%eax
   331a5:	89 50 08             	mov    %edx,0x8(%eax)
   331a8:	b8 01 00 00 00       	mov    $0x1,%eax
   331ad:	c9                   	leave  
   331ae:	c3                   	ret    

000331af <key_interrupt>:
   331af:	55                   	push   %ebp
   331b0:	89 e5                	mov    %esp,%ebp
   331b2:	83 ec 28             	sub    $0x28,%esp
   331b5:	c7 04 24 60 00 00 00 	movl   $0x60,(%esp)
   331bc:	e8 49 f9 ff ff       	call   32b0a <in_byte>
   331c1:	88 45 f7             	mov    %al,-0x9(%ebp)
   331c4:	0f b6 45 f7          	movzbl -0x9(%ebp),%eax
   331c8:	0f be c0             	movsbl %al,%eax
   331cb:	89 44 24 04          	mov    %eax,0x4(%esp)
   331cf:	c7 04 24 a0 86 03 00 	movl   $0x386a0,(%esp)
   331d6:	e8 cd fe ff ff       	call   330a8 <add_tail>
   331db:	c9                   	leave  
   331dc:	c3                   	ret    

000331dd <init_keyboard>:
   331dd:	55                   	push   %ebp
   331de:	89 e5                	mov    %esp,%ebp
   331e0:	83 ec 18             	sub    $0x18,%esp
   331e3:	c7 04 24 a0 86 03 00 	movl   $0x386a0,(%esp)
   331ea:	e8 9d fb ff ff       	call   32d8c <init_KB_INPUT>
   331ef:	c7 05 cc 86 03 00 00 	movl   $0x0,0x386cc
   331f6:	00 00 00 
   331f9:	c7 05 d0 86 03 00 00 	movl   $0x0,0x386d0
   33200:	00 00 00 
   33203:	c7 05 d4 86 03 00 00 	movl   $0x0,0x386d4
   3320a:	00 00 00 
   3320d:	c7 05 d8 86 03 00 00 	movl   $0x0,0x386d8
   33214:	00 00 00 
   33217:	c7 05 dc 86 03 00 00 	movl   $0x0,0x386dc
   3321e:	00 00 00 
   33221:	c7 05 e0 86 03 00 00 	movl   $0x0,0x386e0
   33228:	00 00 00 
   3322b:	c9                   	leave  
   3322c:	c3                   	ret    

0003322d <keyboard_read>:
   3322d:	55                   	push   %ebp
   3322e:	89 e5                	mov    %esp,%ebp
   33230:	83 ec 28             	sub    $0x28,%esp
   33233:	c7 45 ec 00 00 00 00 	movl   $0x0,-0x14(%ebp)
   3323a:	c7 45 f0 00 00 00 00 	movl   $0x0,-0x10(%ebp)
   33241:	c7 44 24 04 01 00 00 	movl   $0x1,0x4(%esp)
   33248:	00 
   33249:	c7 04 24 a0 86 03 00 	movl   $0x386a0,(%esp)
   33250:	e8 86 fb ff ff       	call   32ddb <get_scancode>
   33255:	88 45 f6             	mov    %al,-0xa(%ebp)
   33258:	80 7d f6 ff          	cmpb   $0xff,-0xa(%ebp)
   3325c:	75 0a                	jne    33268 <keyboard_read+0x3b>
   3325e:	b8 ff ff ff ff       	mov    $0xffffffff,%eax
   33263:	e9 f0 03 00 00       	jmp    33658 <keyboard_read+0x42b>
   33268:	80 7d f6 e1          	cmpb   $0xe1,-0xa(%ebp)
   3326c:	75 3b                	jne    332a9 <keyboard_read+0x7c>
   3326e:	a1 a8 86 03 00       	mov    0x386a8,%eax
   33273:	83 f8 03             	cmp    $0x3,%eax
   33276:	77 0a                	ja     33282 <keyboard_read+0x55>
   33278:	b8 ff ff ff ff       	mov    $0xffffffff,%eax
   3327d:	e9 d6 03 00 00       	jmp    33658 <keyboard_read+0x42b>
   33282:	c7 45 ec 1e 01 00 00 	movl   $0x11e,-0x14(%ebp)
   33289:	c7 45 f0 01 00 00 00 	movl   $0x1,-0x10(%ebp)
   33290:	c7 44 24 04 06 00 00 	movl   $0x6,0x4(%esp)
   33297:	00 
   33298:	c7 04 24 a0 86 03 00 	movl   $0x386a0,(%esp)
   3329f:	e8 e5 fc ff ff       	call   32f89 <shift_outM>
   332a4:	e9 ac 02 00 00       	jmp    33555 <keyboard_read+0x328>
   332a9:	80 7d f6 e0          	cmpb   $0xe0,-0xa(%ebp)
   332ad:	0f 85 7c 01 00 00    	jne    3342f <keyboard_read+0x202>
   332b3:	a1 a8 86 03 00       	mov    0x386a8,%eax
   332b8:	83 f8 01             	cmp    $0x1,%eax
   332bb:	77 0a                	ja     332c7 <keyboard_read+0x9a>
   332bd:	b8 ff ff ff ff       	mov    $0xffffffff,%eax
   332c2:	e9 91 03 00 00       	jmp    33658 <keyboard_read+0x42b>
   332c7:	c7 44 24 04 02 00 00 	movl   $0x2,0x4(%esp)
   332ce:	00 
   332cf:	c7 04 24 a0 86 03 00 	movl   $0x386a0,(%esp)
   332d6:	e8 00 fb ff ff       	call   32ddb <get_scancode>
   332db:	88 45 f7             	mov    %al,-0x9(%ebp)
   332de:	80 7d f7 00          	cmpb   $0x0,-0x9(%ebp)
   332e2:	78 26                	js     3330a <keyboard_read+0xdd>
   332e4:	80 7d f7 00          	cmpb   $0x0,-0x9(%ebp)
   332e8:	78 20                	js     3330a <keyboard_read+0xdd>
   332ea:	0f be 55 f7          	movsbl -0x9(%ebp),%edx
   332ee:	89 d0                	mov    %edx,%eax
   332f0:	01 c0                	add    %eax,%eax
   332f2:	01 d0                	add    %edx,%eax
   332f4:	83 c0 02             	add    $0x2,%eax
   332f7:	8b 04 85 80 5e 03 00 	mov    0x35e80(,%eax,4),%eax
   332fe:	89 45 ec             	mov    %eax,-0x14(%ebp)
   33301:	c7 45 f0 01 00 00 00 	movl   $0x1,-0x10(%ebp)
   33308:	eb 12                	jmp    3331c <keyboard_read+0xef>
   3330a:	0f be 45 f7          	movsbl -0x9(%ebp),%eax
   3330e:	83 e0 01             	and    $0x1,%eax
   33311:	84 c0                	test   %al,%al
   33313:	74 07                	je     3331c <keyboard_read+0xef>
   33315:	c7 45 f0 00 00 00 00 	movl   $0x0,-0x10(%ebp)
   3331c:	0f b6 45 f7          	movzbl -0x9(%ebp),%eax
   33320:	0f b6 c0             	movzbl %al,%eax
   33323:	83 f8 38             	cmp    $0x38,%eax
   33326:	74 50                	je     33378 <keyboard_read+0x14b>
   33328:	83 f8 38             	cmp    $0x38,%eax
   3332b:	7f 0f                	jg     3333c <keyboard_read+0x10f>
   3332d:	83 f8 1d             	cmp    $0x1d,%eax
   33330:	74 28                	je     3335a <keyboard_read+0x12d>
   33332:	83 f8 2a             	cmp    $0x2a,%eax
   33335:	74 5f                	je     33396 <keyboard_read+0x169>
   33337:	e9 da 00 00 00       	jmp    33416 <keyboard_read+0x1e9>
   3333c:	3d b7 00 00 00       	cmp    $0xb7,%eax
   33341:	0f 84 8f 00 00 00    	je     333d6 <keyboard_read+0x1a9>
   33347:	3d b8 00 00 00       	cmp    $0xb8,%eax
   3334c:	74 39                	je     33387 <keyboard_read+0x15a>
   3334e:	3d 9d 00 00 00       	cmp    $0x9d,%eax
   33353:	74 14                	je     33369 <keyboard_read+0x13c>
   33355:	e9 bc 00 00 00       	jmp    33416 <keyboard_read+0x1e9>
   3335a:	c7 05 d8 86 03 00 01 	movl   $0x1,0x386d8
   33361:	00 00 00 
   33364:	e9 ad 00 00 00       	jmp    33416 <keyboard_read+0x1e9>
   33369:	c7 05 d8 86 03 00 00 	movl   $0x0,0x386d8
   33370:	00 00 00 
   33373:	e9 9e 00 00 00       	jmp    33416 <keyboard_read+0x1e9>
   33378:	c7 05 e0 86 03 00 01 	movl   $0x1,0x386e0
   3337f:	00 00 00 
   33382:	e9 8f 00 00 00       	jmp    33416 <keyboard_read+0x1e9>
   33387:	c7 05 e0 86 03 00 00 	movl   $0x0,0x386e0
   3338e:	00 00 00 
   33391:	e9 80 00 00 00       	jmp    33416 <keyboard_read+0x1e9>
   33396:	a1 a8 86 03 00       	mov    0x386a8,%eax
   3339b:	83 f8 03             	cmp    $0x3,%eax
   3339e:	77 0a                	ja     333aa <keyboard_read+0x17d>
   333a0:	b8 ff ff ff ff       	mov    $0xffffffff,%eax
   333a5:	e9 ae 02 00 00       	jmp    33658 <keyboard_read+0x42b>
   333aa:	c7 45 ec 1d 01 00 00 	movl   $0x11d,-0x14(%ebp)
   333b1:	c7 45 f0 01 00 00 00 	movl   $0x1,-0x10(%ebp)
   333b8:	c7 44 24 04 04 00 00 	movl   $0x4,0x4(%esp)
   333bf:	00 
   333c0:	c7 04 24 a0 86 03 00 	movl   $0x386a0,(%esp)
   333c7:	e8 bd fb ff ff       	call   32f89 <shift_outM>
   333cc:	b8 ff ff ff ff       	mov    $0xffffffff,%eax
   333d1:	e9 82 02 00 00       	jmp    33658 <keyboard_read+0x42b>
   333d6:	a1 a8 86 03 00       	mov    0x386a8,%eax
   333db:	83 f8 03             	cmp    $0x3,%eax
   333de:	77 0a                	ja     333ea <keyboard_read+0x1bd>
   333e0:	b8 ff ff ff ff       	mov    $0xffffffff,%eax
   333e5:	e9 6e 02 00 00       	jmp    33658 <keyboard_read+0x42b>
   333ea:	c7 45 ec 1d 01 00 00 	movl   $0x11d,-0x14(%ebp)
   333f1:	c7 45 f0 00 00 00 00 	movl   $0x0,-0x10(%ebp)
   333f8:	c7 44 24 04 04 00 00 	movl   $0x4,0x4(%esp)
   333ff:	00 
   33400:	c7 04 24 a0 86 03 00 	movl   $0x386a0,(%esp)
   33407:	e8 7d fb ff ff       	call   32f89 <shift_outM>
   3340c:	b8 ff ff ff ff       	mov    $0xffffffff,%eax
   33411:	e9 42 02 00 00       	jmp    33658 <keyboard_read+0x42b>
   33416:	c7 44 24 04 02 00 00 	movl   $0x2,0x4(%esp)
   3341d:	00 
   3341e:	c7 04 24 a0 86 03 00 	movl   $0x386a0,(%esp)
   33425:	e8 5f fb ff ff       	call   32f89 <shift_outM>
   3342a:	e9 26 01 00 00       	jmp    33555 <keyboard_read+0x328>
   3342f:	80 7d f6 00          	cmpb   $0x0,-0xa(%ebp)
   33433:	0f 88 ad 00 00 00    	js     334e6 <keyboard_read+0x2b9>
   33439:	80 7d f6 00          	cmpb   $0x0,-0xa(%ebp)
   3343d:	0f 88 a3 00 00 00    	js     334e6 <keyboard_read+0x2b9>
   33443:	0f be 45 f6          	movsbl -0xa(%ebp),%eax
   33447:	83 f8 2a             	cmp    $0x2a,%eax
   3344a:	74 24                	je     33470 <keyboard_read+0x243>
   3344c:	83 f8 2a             	cmp    $0x2a,%eax
   3344f:	7f 07                	jg     33458 <keyboard_read+0x22b>
   33451:	83 f8 1d             	cmp    $0x1d,%eax
   33454:	74 26                	je     3347c <keyboard_read+0x24f>
   33456:	eb 3a                	jmp    33492 <keyboard_read+0x265>
   33458:	83 f8 36             	cmp    $0x36,%eax
   3345b:	74 07                	je     33464 <keyboard_read+0x237>
   3345d:	83 f8 38             	cmp    $0x38,%eax
   33460:	74 26                	je     33488 <keyboard_read+0x25b>
   33462:	eb 2e                	jmp    33492 <keyboard_read+0x265>
   33464:	c7 05 d0 86 03 00 01 	movl   $0x1,0x386d0
   3346b:	00 00 00 
   3346e:	eb 22                	jmp    33492 <keyboard_read+0x265>
   33470:	c7 05 cc 86 03 00 01 	movl   $0x1,0x386cc
   33477:	00 00 00 
   3347a:	eb 16                	jmp    33492 <keyboard_read+0x265>
   3347c:	c7 05 d4 86 03 00 01 	movl   $0x1,0x386d4
   33483:	00 00 00 
   33486:	eb 0a                	jmp    33492 <keyboard_read+0x265>
   33488:	c7 05 dc 86 03 00 01 	movl   $0x1,0x386dc
   3348f:	00 00 00 
   33492:	0f be 55 f6          	movsbl -0xa(%ebp),%edx
   33496:	89 d0                	mov    %edx,%eax
   33498:	01 c0                	add    %eax,%eax
   3349a:	01 d0                	add    %edx,%eax
   3349c:	8b 04 85 80 5e 03 00 	mov    0x35e80(,%eax,4),%eax
   334a3:	89 45 ec             	mov    %eax,-0x14(%ebp)
   334a6:	a1 cc 86 03 00       	mov    0x386cc,%eax
   334ab:	83 f8 01             	cmp    $0x1,%eax
   334ae:	74 0a                	je     334ba <keyboard_read+0x28d>
   334b0:	a1 d0 86 03 00       	mov    0x386d0,%eax
   334b5:	83 f8 01             	cmp    $0x1,%eax
   334b8:	75 17                	jne    334d1 <keyboard_read+0x2a4>
   334ba:	0f be 55 f6          	movsbl -0xa(%ebp),%edx
   334be:	89 d0                	mov    %edx,%eax
   334c0:	01 c0                	add    %eax,%eax
   334c2:	01 d0                	add    %edx,%eax
   334c4:	83 c0 01             	add    $0x1,%eax
   334c7:	8b 04 85 80 5e 03 00 	mov    0x35e80(,%eax,4),%eax
   334ce:	89 45 ec             	mov    %eax,-0x14(%ebp)
   334d1:	c7 45 f0 01 00 00 00 	movl   $0x1,-0x10(%ebp)
   334d8:	c7 04 24 a0 86 03 00 	movl   $0x386a0,(%esp)
   334df:	e8 b8 f9 ff ff       	call   32e9c <shift_out>
   334e4:	eb 6f                	jmp    33555 <keyboard_read+0x328>
   334e6:	0f b6 45 f6          	movzbl -0xa(%ebp),%eax
   334ea:	0f b6 c0             	movzbl %al,%eax
   334ed:	3d aa 00 00 00       	cmp    $0xaa,%eax
   334f2:	74 2c                	je     33520 <keyboard_read+0x2f3>
   334f4:	3d aa 00 00 00       	cmp    $0xaa,%eax
   334f9:	7f 09                	jg     33504 <keyboard_read+0x2d7>
   334fb:	3d 9d 00 00 00       	cmp    $0x9d,%eax
   33500:	74 2a                	je     3352c <keyboard_read+0x2ff>
   33502:	eb 3e                	jmp    33542 <keyboard_read+0x315>
   33504:	3d b6 00 00 00       	cmp    $0xb6,%eax
   33509:	74 09                	je     33514 <keyboard_read+0x2e7>
   3350b:	3d b8 00 00 00       	cmp    $0xb8,%eax
   33510:	74 26                	je     33538 <keyboard_read+0x30b>
   33512:	eb 2e                	jmp    33542 <keyboard_read+0x315>
   33514:	c7 05 d0 86 03 00 00 	movl   $0x0,0x386d0
   3351b:	00 00 00 
   3351e:	eb 22                	jmp    33542 <keyboard_read+0x315>
   33520:	c7 05 cc 86 03 00 00 	movl   $0x0,0x386cc
   33527:	00 00 00 
   3352a:	eb 16                	jmp    33542 <keyboard_read+0x315>
   3352c:	c7 05 d4 86 03 00 00 	movl   $0x0,0x386d4
   33533:	00 00 00 
   33536:	eb 0a                	jmp    33542 <keyboard_read+0x315>
   33538:	c7 05 dc 86 03 00 00 	movl   $0x0,0x386dc
   3353f:	00 00 00 
   33542:	c7 45 f0 00 00 00 00 	movl   $0x0,-0x10(%ebp)
   33549:	c7 04 24 a0 86 03 00 	movl   $0x386a0,(%esp)
   33550:	e8 47 f9 ff ff       	call   32e9c <shift_out>
   33555:	83 7d f0 01          	cmpl   $0x1,-0x10(%ebp)
   33559:	0f 85 f4 00 00 00    	jne    33653 <keyboard_read+0x426>
   3355f:	a1 dc 86 03 00       	mov    0x386dc,%eax
   33564:	83 f8 01             	cmp    $0x1,%eax
   33567:	74 0a                	je     33573 <keyboard_read+0x346>
   33569:	a1 e0 86 03 00       	mov    0x386e0,%eax
   3356e:	83 f8 01             	cmp    $0x1,%eax
   33571:	75 36                	jne    335a9 <keyboard_read+0x37c>
   33573:	8b 45 ec             	mov    -0x14(%ebp),%eax
   33576:	3d 12 01 00 00       	cmp    $0x112,%eax
   3357b:	74 18                	je     33595 <keyboard_read+0x368>
   3357d:	3d 13 01 00 00       	cmp    $0x113,%eax
   33582:	74 1b                	je     3359f <keyboard_read+0x372>
   33584:	3d 11 01 00 00       	cmp    $0x111,%eax
   33589:	75 1e                	jne    335a9 <keyboard_read+0x37c>
   3358b:	b8 00 00 00 00       	mov    $0x0,%eax
   33590:	e9 c3 00 00 00       	jmp    33658 <keyboard_read+0x42b>
   33595:	b8 01 00 00 00       	mov    $0x1,%eax
   3359a:	e9 b9 00 00 00       	jmp    33658 <keyboard_read+0x42b>
   3359f:	b8 02 00 00 00       	mov    $0x2,%eax
   335a4:	e9 af 00 00 00       	jmp    33658 <keyboard_read+0x42b>
   335a9:	a1 cc 86 03 00       	mov    0x386cc,%eax
   335ae:	85 c0                	test   %eax,%eax
   335b0:	74 07                	je     335b9 <keyboard_read+0x38c>
   335b2:	b8 00 02 00 00       	mov    $0x200,%eax
   335b7:	eb 05                	jmp    335be <keyboard_read+0x391>
   335b9:	b8 00 00 00 00       	mov    $0x0,%eax
   335be:	09 45 ec             	or     %eax,-0x14(%ebp)
   335c1:	a1 d0 86 03 00       	mov    0x386d0,%eax
   335c6:	85 c0                	test   %eax,%eax
   335c8:	74 07                	je     335d1 <keyboard_read+0x3a4>
   335ca:	b8 00 04 00 00       	mov    $0x400,%eax
   335cf:	eb 05                	jmp    335d6 <keyboard_read+0x3a9>
   335d1:	b8 00 00 00 00       	mov    $0x0,%eax
   335d6:	09 45 ec             	or     %eax,-0x14(%ebp)
   335d9:	a1 dc 86 03 00       	mov    0x386dc,%eax
   335de:	85 c0                	test   %eax,%eax
   335e0:	74 07                	je     335e9 <keyboard_read+0x3bc>
   335e2:	b8 00 20 00 00       	mov    $0x2000,%eax
   335e7:	eb 05                	jmp    335ee <keyboard_read+0x3c1>
   335e9:	b8 00 00 00 00       	mov    $0x0,%eax
   335ee:	09 45 ec             	or     %eax,-0x14(%ebp)
   335f1:	a1 e0 86 03 00       	mov    0x386e0,%eax
   335f6:	85 c0                	test   %eax,%eax
   335f8:	74 07                	je     33601 <keyboard_read+0x3d4>
   335fa:	b8 00 40 00 00       	mov    $0x4000,%eax
   335ff:	eb 05                	jmp    33606 <keyboard_read+0x3d9>
   33601:	b8 00 00 00 00       	mov    $0x0,%eax
   33606:	09 45 ec             	or     %eax,-0x14(%ebp)
   33609:	a1 d4 86 03 00       	mov    0x386d4,%eax
   3360e:	85 c0                	test   %eax,%eax
   33610:	74 07                	je     33619 <keyboard_read+0x3ec>
   33612:	b8 00 08 00 00       	mov    $0x800,%eax
   33617:	eb 05                	jmp    3361e <keyboard_read+0x3f1>
   33619:	b8 00 00 00 00       	mov    $0x0,%eax
   3361e:	09 45 ec             	or     %eax,-0x14(%ebp)
   33621:	a1 d8 86 03 00       	mov    0x386d8,%eax
   33626:	85 c0                	test   %eax,%eax
   33628:	74 07                	je     33631 <keyboard_read+0x404>
   3362a:	b8 00 10 00 00       	mov    $0x1000,%eax
   3362f:	eb 05                	jmp    33636 <keyboard_read+0x409>
   33631:	b8 00 00 00 00       	mov    $0x0,%eax
   33636:	09 45 ec             	or     %eax,-0x14(%ebp)
   33639:	8b 45 08             	mov    0x8(%ebp),%eax
   3363c:	89 04 24             	mov    %eax,(%esp)
   3363f:	e8 45 05 00 00       	call   33b89 <tty2id>
   33644:	8b 55 ec             	mov    -0x14(%ebp),%edx
   33647:	89 54 24 04          	mov    %edx,0x4(%esp)
   3364b:	89 04 24             	mov    %eax,(%esp)
   3364e:	e8 c5 00 00 00       	call   33718 <printChar>
   33653:	b8 ff ff ff ff       	mov    $0xffffffff,%eax
   33658:	c9                   	leave  
   33659:	c3                   	ret    

0003365a <set_cursor>:
   3365a:	55                   	push   %ebp
   3365b:	89 e5                	mov    %esp,%ebp
   3365d:	83 ec 18             	sub    $0x18,%esp
   33660:	c7 44 24 04 0e 00 00 	movl   $0xe,0x4(%esp)
   33667:	00 
   33668:	c7 04 24 d4 03 00 00 	movl   $0x3d4,(%esp)
   3366f:	e8 86 f4 ff ff       	call   32afa <out_byte>
   33674:	8b 45 08             	mov    0x8(%ebp),%eax
   33677:	c1 f8 08             	sar    $0x8,%eax
   3367a:	0f b6 c0             	movzbl %al,%eax
   3367d:	89 44 24 04          	mov    %eax,0x4(%esp)
   33681:	c7 04 24 d5 03 00 00 	movl   $0x3d5,(%esp)
   33688:	e8 6d f4 ff ff       	call   32afa <out_byte>
   3368d:	c7 44 24 04 0f 00 00 	movl   $0xf,0x4(%esp)
   33694:	00 
   33695:	c7 04 24 d4 03 00 00 	movl   $0x3d4,(%esp)
   3369c:	e8 59 f4 ff ff       	call   32afa <out_byte>
   336a1:	8b 45 08             	mov    0x8(%ebp),%eax
   336a4:	0f b6 c0             	movzbl %al,%eax
   336a7:	89 44 24 04          	mov    %eax,0x4(%esp)
   336ab:	c7 04 24 d5 03 00 00 	movl   $0x3d5,(%esp)
   336b2:	e8 43 f4 ff ff       	call   32afa <out_byte>
   336b7:	c9                   	leave  
   336b8:	c3                   	ret    

000336b9 <set_disp_addr>:
   336b9:	55                   	push   %ebp
   336ba:	89 e5                	mov    %esp,%ebp
   336bc:	83 ec 18             	sub    $0x18,%esp
   336bf:	c7 44 24 04 0c 00 00 	movl   $0xc,0x4(%esp)
   336c6:	00 
   336c7:	c7 04 24 d4 03 00 00 	movl   $0x3d4,(%esp)
   336ce:	e8 27 f4 ff ff       	call   32afa <out_byte>
   336d3:	8b 45 08             	mov    0x8(%ebp),%eax
   336d6:	c1 f8 08             	sar    $0x8,%eax
   336d9:	0f b6 c0             	movzbl %al,%eax
   336dc:	89 44 24 04          	mov    %eax,0x4(%esp)
   336e0:	c7 04 24 d5 03 00 00 	movl   $0x3d5,(%esp)
   336e7:	e8 0e f4 ff ff       	call   32afa <out_byte>
   336ec:	c7 44 24 04 0d 00 00 	movl   $0xd,0x4(%esp)
   336f3:	00 
   336f4:	c7 04 24 d4 03 00 00 	movl   $0x3d4,(%esp)
   336fb:	e8 fa f3 ff ff       	call   32afa <out_byte>
   33700:	8b 45 08             	mov    0x8(%ebp),%eax
   33703:	0f b6 c0             	movzbl %al,%eax
   33706:	89 44 24 04          	mov    %eax,0x4(%esp)
   3370a:	c7 04 24 d5 03 00 00 	movl   $0x3d5,(%esp)
   33711:	e8 e4 f3 ff ff       	call   32afa <out_byte>
   33716:	c9                   	leave  
   33717:	c3                   	ret    

00033718 <printChar>:
   33718:	55                   	push   %ebp
   33719:	89 e5                	mov    %esp,%ebp
   3371b:	83 ec 58             	sub    $0x58,%esp
   3371e:	c7 45 d4 38 4c 03 00 	movl   $0x34c38,-0x2c(%ebp)
   33725:	8b 45 0c             	mov    0xc(%ebp),%eax
   33728:	25 00 01 00 00       	and    $0x100,%eax
   3372d:	89 45 d8             	mov    %eax,-0x28(%ebp)
   33730:	83 7d 08 00          	cmpl   $0x0,0x8(%ebp)
   33734:	78 06                	js     3373c <printChar+0x24>
   33736:	83 7d 08 02          	cmpl   $0x2,0x8(%ebp)
   3373a:	7e 24                	jle    33760 <printChar+0x48>
   3373c:	c7 44 24 0c 41 01 00 	movl   $0x141,0xc(%esp)
   33743:	00 
   33744:	c7 44 24 08 1b 4c 03 	movl   $0x34c1b,0x8(%esp)
   3374b:	00 
   3374c:	c7 44 24 04 1b 4c 03 	movl   $0x34c1b,0x4(%esp)
   33753:	00 
   33754:	c7 04 24 3a 4c 03 00 	movl   $0x34c3a,(%esp)
   3375b:	e8 2f f2 ff ff       	call   3298f <assertion_failure>
   33760:	8b 45 08             	mov    0x8(%ebp),%eax
   33763:	89 04 24             	mov    %eax,(%esp)
   33766:	e8 61 04 00 00       	call   33bcc <id2tty>
   3376b:	89 45 dc             	mov    %eax,-0x24(%ebp)
   3376e:	8b 45 dc             	mov    -0x24(%ebp),%eax
   33771:	8b 50 0c             	mov    0xc(%eax),%edx
   33774:	8b 45 dc             	mov    -0x24(%ebp),%eax
   33777:	8b 40 04             	mov    0x4(%eax),%eax
   3377a:	39 c2                	cmp    %eax,%edx
   3377c:	72 0b                	jb     33789 <printChar+0x71>
   3377e:	8b 45 dc             	mov    -0x24(%ebp),%eax
   33781:	8b 10                	mov    (%eax),%edx
   33783:	8b 45 dc             	mov    -0x24(%ebp),%eax
   33786:	89 50 0c             	mov    %edx,0xc(%eax)
   33789:	c7 45 e0 ff ff ff ff 	movl   $0xffffffff,-0x20(%ebp)
   33790:	8b 45 dc             	mov    -0x24(%ebp),%eax
   33793:	8b 40 0c             	mov    0xc(%eax),%eax
   33796:	01 c0                	add    %eax,%eax
   33798:	a3 68 5e 03 00       	mov    %eax,0x35e68
   3379d:	83 7d d8 00          	cmpl   $0x0,-0x28(%ebp)
   337a1:	75 1e                	jne    337c1 <printChar+0xa9>
   337a3:	8b 45 0c             	mov    0xc(%ebp),%eax
   337a6:	89 c2                	mov    %eax,%edx
   337a8:	8b 45 d4             	mov    -0x2c(%ebp),%eax
   337ab:	88 10                	mov    %dl,(%eax)
   337ad:	8b 45 d4             	mov    -0x2c(%ebp),%eax
   337b0:	89 04 24             	mov    %eax,(%esp)
   337b3:	e8 ec f2 ff ff       	call   32aa4 <disp_str>
   337b8:	c7 45 e0 00 00 00 00 	movl   $0x0,-0x20(%ebp)
   337bf:	eb 76                	jmp    33837 <printChar+0x11f>
   337c1:	8b 45 0c             	mov    0xc(%ebp),%eax
   337c4:	25 ff 01 00 00       	and    $0x1ff,%eax
   337c9:	89 45 f4             	mov    %eax,-0xc(%ebp)
   337cc:	8b 45 f4             	mov    -0xc(%ebp),%eax
   337cf:	3d 04 01 00 00       	cmp    $0x104,%eax
   337d4:	74 35                	je     3380b <printChar+0xf3>
   337d6:	3d 04 01 00 00       	cmp    $0x104,%eax
   337db:	7f 09                	jg     337e6 <printChar+0xce>
   337dd:	3d 03 01 00 00       	cmp    $0x103,%eax
   337e2:	74 12                	je     337f6 <printChar+0xde>
   337e4:	eb 51                	jmp    33837 <printChar+0x11f>
   337e6:	3d 25 01 00 00       	cmp    $0x125,%eax
   337eb:	74 34                	je     33821 <printChar+0x109>
   337ed:	3d 26 01 00 00       	cmp    $0x126,%eax
   337f2:	74 39                	je     3382d <printChar+0x115>
   337f4:	eb 41                	jmp    33837 <printChar+0x11f>
   337f6:	c7 04 24 51 4c 03 00 	movl   $0x34c51,(%esp)
   337fd:	e8 a2 f2 ff ff       	call   32aa4 <disp_str>
   33802:	c7 45 e0 00 00 00 00 	movl   $0x0,-0x20(%ebp)
   33809:	eb 2c                	jmp    33837 <printChar+0x11f>
   3380b:	a1 68 5e 03 00       	mov    0x35e68,%eax
   33810:	83 e8 02             	sub    $0x2,%eax
   33813:	a3 68 5e 03 00       	mov    %eax,0x35e68
   33818:	c7 45 e0 00 00 00 00 	movl   $0x0,-0x20(%ebp)
   3381f:	eb 16                	jmp    33837 <printChar+0x11f>
   33821:	8b 45 0c             	mov    0xc(%ebp),%eax
   33824:	25 00 02 00 00       	and    $0x200,%eax
   33829:	85 c0                	test   %eax,%eax
   3382b:	eb 0a                	jmp    33837 <printChar+0x11f>
   3382d:	8b 45 0c             	mov    0xc(%ebp),%eax
   33830:	25 00 02 00 00       	and    $0x200,%eax
   33835:	85 c0                	test   %eax,%eax
   33837:	a1 68 5e 03 00       	mov    0x35e68,%eax
   3383c:	89 c2                	mov    %eax,%edx
   3383e:	c1 ea 1f             	shr    $0x1f,%edx
   33841:	8d 04 02             	lea    (%edx,%eax,1),%eax
   33844:	d1 f8                	sar    %eax
   33846:	89 c2                	mov    %eax,%edx
   33848:	8b 45 dc             	mov    -0x24(%ebp),%eax
   3384b:	89 50 0c             	mov    %edx,0xc(%eax)
   3384e:	8b 45 dc             	mov    -0x24(%ebp),%eax
   33851:	89 04 24             	mov    %eax,(%esp)
   33854:	e8 30 03 00 00       	call   33b89 <tty2id>
   33859:	8b 15 e8 ff 09 00    	mov    0x9ffe8,%edx
   3385f:	39 d0                	cmp    %edx,%eax
   33861:	75 17                	jne    3387a <printChar+0x162>
   33863:	a1 68 5e 03 00       	mov    0x35e68,%eax
   33868:	89 c2                	mov    %eax,%edx
   3386a:	c1 ea 1f             	shr    $0x1f,%edx
   3386d:	8d 04 02             	lea    (%edx,%eax,1),%eax
   33870:	d1 f8                	sar    %eax
   33872:	89 04 24             	mov    %eax,(%esp)
   33875:	e8 e0 fd ff ff       	call   3365a <set_cursor>
   3387a:	8b 0d 68 5e 03 00    	mov    0x35e68,%ecx
   33880:	ba 67 66 66 66       	mov    $0x66666667,%edx
   33885:	89 c8                	mov    %ecx,%eax
   33887:	f7 ea                	imul   %edx
   33889:	c1 fa 06             	sar    $0x6,%edx
   3388c:	89 c8                	mov    %ecx,%eax
   3388e:	c1 f8 1f             	sar    $0x1f,%eax
   33891:	89 d1                	mov    %edx,%ecx
   33893:	29 c1                	sub    %eax,%ecx
   33895:	89 c8                	mov    %ecx,%eax
   33897:	89 45 e4             	mov    %eax,-0x1c(%ebp)
   3389a:	8b 45 dc             	mov    -0x24(%ebp),%eax
   3389d:	8b 40 08             	mov    0x8(%eax),%eax
   338a0:	89 45 c4             	mov    %eax,-0x3c(%ebp)
   338a3:	ba cd cc cc cc       	mov    $0xcccccccd,%edx
   338a8:	8b 45 c4             	mov    -0x3c(%ebp),%eax
   338ab:	f7 e2                	mul    %edx
   338ad:	89 d0                	mov    %edx,%eax
   338af:	c1 e8 06             	shr    $0x6,%eax
   338b2:	89 45 e8             	mov    %eax,-0x18(%ebp)
   338b5:	8b 45 e8             	mov    -0x18(%ebp),%eax
   338b8:	8b 55 e4             	mov    -0x1c(%ebp),%edx
   338bb:	89 d1                	mov    %edx,%ecx
   338bd:	29 c1                	sub    %eax,%ecx
   338bf:	89 c8                	mov    %ecx,%eax
   338c1:	89 45 ec             	mov    %eax,-0x14(%ebp)
   338c4:	8b 45 ec             	mov    -0x14(%ebp),%eax
   338c7:	83 e8 18             	sub    $0x18,%eax
   338ca:	89 45 f0             	mov    %eax,-0x10(%ebp)
   338cd:	83 7d f0 00          	cmpl   $0x0,-0x10(%ebp)
   338d1:	7e 6b                	jle    3393e <printChar+0x226>
   338d3:	8b 45 dc             	mov    -0x24(%ebp),%eax
   338d6:	8b 48 08             	mov    0x8(%eax),%ecx
   338d9:	8b 55 f0             	mov    -0x10(%ebp),%edx
   338dc:	89 d0                	mov    %edx,%eax
   338de:	c1 e0 02             	shl    $0x2,%eax
   338e1:	01 d0                	add    %edx,%eax
   338e3:	c1 e0 04             	shl    $0x4,%eax
   338e6:	8d 14 01             	lea    (%ecx,%eax,1),%edx
   338e9:	8b 45 dc             	mov    -0x24(%ebp),%eax
   338ec:	89 50 08             	mov    %edx,0x8(%eax)
   338ef:	8b 45 dc             	mov    -0x24(%ebp),%eax
   338f2:	8b 40 08             	mov    0x8(%eax),%eax
   338f5:	8d 90 80 07 00 00    	lea    0x780(%eax),%edx
   338fb:	8b 45 dc             	mov    -0x24(%ebp),%eax
   338fe:	8b 40 04             	mov    0x4(%eax),%eax
   33901:	39 c2                	cmp    %eax,%edx
   33903:	72 16                	jb     3391b <printChar+0x203>
   33905:	8b 45 dc             	mov    -0x24(%ebp),%eax
   33908:	8b 10                	mov    (%eax),%edx
   3390a:	8b 45 dc             	mov    -0x24(%ebp),%eax
   3390d:	89 50 08             	mov    %edx,0x8(%eax)
   33910:	8b 45 dc             	mov    -0x24(%ebp),%eax
   33913:	8b 10                	mov    (%eax),%edx
   33915:	8b 45 dc             	mov    -0x24(%ebp),%eax
   33918:	89 50 0c             	mov    %edx,0xc(%eax)
   3391b:	8b 45 dc             	mov    -0x24(%ebp),%eax
   3391e:	89 04 24             	mov    %eax,(%esp)
   33921:	e8 63 02 00 00       	call   33b89 <tty2id>
   33926:	8b 15 e8 ff 09 00    	mov    0x9ffe8,%edx
   3392c:	39 d0                	cmp    %edx,%eax
   3392e:	75 0e                	jne    3393e <printChar+0x226>
   33930:	8b 45 dc             	mov    -0x24(%ebp),%eax
   33933:	8b 40 08             	mov    0x8(%eax),%eax
   33936:	89 04 24             	mov    %eax,(%esp)
   33939:	e8 7b fd ff ff       	call   336b9 <set_disp_addr>
   3393e:	8b 45 e0             	mov    -0x20(%ebp),%eax
   33941:	c9                   	leave  
   33942:	c3                   	ret    

00033943 <printStr>:
   33943:	55                   	push   %ebp
   33944:	89 e5                	mov    %esp,%ebp
   33946:	83 ec 28             	sub    $0x28,%esp
   33949:	c7 45 f4 00 00 00 00 	movl   $0x0,-0xc(%ebp)
   33950:	eb 1f                	jmp    33971 <printStr+0x2e>
   33952:	8b 45 f4             	mov    -0xc(%ebp),%eax
   33955:	03 45 0c             	add    0xc(%ebp),%eax
   33958:	0f b6 00             	movzbl (%eax),%eax
   3395b:	0f be c0             	movsbl %al,%eax
   3395e:	89 44 24 04          	mov    %eax,0x4(%esp)
   33962:	8b 45 08             	mov    0x8(%ebp),%eax
   33965:	89 04 24             	mov    %eax,(%esp)
   33968:	e8 ab fd ff ff       	call   33718 <printChar>
   3396d:	83 45 f4 01          	addl   $0x1,-0xc(%ebp)
   33971:	8b 45 f4             	mov    -0xc(%ebp),%eax
   33974:	03 45 0c             	add    0xc(%ebp),%eax
   33977:	0f b6 00             	movzbl (%eax),%eax
   3397a:	84 c0                	test   %al,%al
   3397c:	75 d4                	jne    33952 <printStr+0xf>
   3397e:	c9                   	leave  
   3397f:	c3                   	ret    

00033980 <printStrLen>:
   33980:	55                   	push   %ebp
   33981:	89 e5                	mov    %esp,%ebp
   33983:	83 ec 28             	sub    $0x28,%esp
   33986:	c7 45 f4 00 00 00 00 	movl   $0x0,-0xc(%ebp)
   3398d:	eb 1f                	jmp    339ae <printStrLen+0x2e>
   3398f:	8b 45 f4             	mov    -0xc(%ebp),%eax
   33992:	03 45 0c             	add    0xc(%ebp),%eax
   33995:	0f b6 00             	movzbl (%eax),%eax
   33998:	0f be c0             	movsbl %al,%eax
   3399b:	89 44 24 04          	mov    %eax,0x4(%esp)
   3399f:	8b 45 08             	mov    0x8(%ebp),%eax
   339a2:	89 04 24             	mov    %eax,(%esp)
   339a5:	e8 6e fd ff ff       	call   33718 <printChar>
   339aa:	83 45 f4 01          	addl   $0x1,-0xc(%ebp)
   339ae:	8b 45 f4             	mov    -0xc(%ebp),%eax
   339b1:	3b 45 10             	cmp    0x10(%ebp),%eax
   339b4:	7d 0d                	jge    339c3 <printStrLen+0x43>
   339b6:	8b 45 f4             	mov    -0xc(%ebp),%eax
   339b9:	03 45 0c             	add    0xc(%ebp),%eax
   339bc:	0f b6 00             	movzbl (%eax),%eax
   339bf:	84 c0                	test   %al,%al
   339c1:	75 cc                	jne    3398f <printStrLen+0xf>
   339c3:	c9                   	leave  
   339c4:	c3                   	ret    
   339c5:	90                   	nop
   339c6:	90                   	nop
   339c7:	90                   	nop

000339c8 <task_tty>:
   339c8:	55                   	push   %ebp
   339c9:	89 e5                	mov    %esp,%ebp
   339cb:	53                   	push   %ebx
   339cc:	83 ec 24             	sub    $0x24,%esp
   339cf:	eb 0a                	jmp    339db <task_tty+0x13>
   339d1:	90                   	nop
   339d2:	eb 07                	jmp    339db <task_tty+0x13>
   339d4:	90                   	nop
   339d5:	eb 04                	jmp    339db <task_tty+0x13>
   339d7:	90                   	nop
   339d8:	eb 01                	jmp    339db <task_tty+0x13>
   339da:	90                   	nop
   339db:	a1 e8 ff 09 00       	mov    0x9ffe8,%eax
   339e0:	89 04 24             	mov    %eax,(%esp)
   339e3:	e8 e4 01 00 00       	call   33bcc <id2tty>
   339e8:	89 04 24             	mov    %eax,(%esp)
   339eb:	e8 3d f8 ff ff       	call   3322d <keyboard_read>
   339f0:	89 45 f4             	mov    %eax,-0xc(%ebp)
   339f3:	a1 e8 ff 09 00       	mov    0x9ffe8,%eax
   339f8:	39 45 f4             	cmp    %eax,-0xc(%ebp)
   339fb:	74 d4                	je     339d1 <task_tty+0x9>
   339fd:	83 7d f4 ff          	cmpl   $0xffffffff,-0xc(%ebp)
   33a01:	74 d1                	je     339d4 <task_tty+0xc>
   33a03:	83 7d f4 00          	cmpl   $0x0,-0xc(%ebp)
   33a07:	78 ce                	js     339d7 <task_tty+0xf>
   33a09:	83 7d f4 02          	cmpl   $0x2,-0xc(%ebp)
   33a0d:	7f cb                	jg     339da <task_tty+0x12>
   33a0f:	a1 e8 ff 09 00       	mov    0x9ffe8,%eax
   33a14:	89 04 24             	mov    %eax,(%esp)
   33a17:	e8 b0 01 00 00       	call   33bcc <id2tty>
   33a1c:	89 c3                	mov    %eax,%ebx
   33a1e:	8b 45 f4             	mov    -0xc(%ebp),%eax
   33a21:	89 04 24             	mov    %eax,(%esp)
   33a24:	e8 a3 01 00 00       	call   33bcc <id2tty>
   33a29:	89 5c 24 04          	mov    %ebx,0x4(%esp)
   33a2d:	89 04 24             	mov    %eax,(%esp)
   33a30:	e8 23 01 00 00       	call   33b58 <switch_tty>
   33a35:	8b 45 f4             	mov    -0xc(%ebp),%eax
   33a38:	a3 e8 ff 09 00       	mov    %eax,0x9ffe8
   33a3d:	eb 9c                	jmp    339db <task_tty+0x13>
   33a3f:	90                   	nop

00033a40 <init_tty>:
   33a40:	55                   	push   %ebp
   33a41:	89 e5                	mov    %esp,%ebp
   33a43:	83 ec 18             	sub    $0x18,%esp
   33a46:	8b 45 0c             	mov    0xc(%ebp),%eax
   33a49:	3b 45 10             	cmp    0x10(%ebp),%eax
   33a4c:	7c 0e                	jl     33a5c <init_tty+0x1c>
   33a4e:	c7 04 24 54 4c 03 00 	movl   $0x34c54,(%esp)
   33a55:	e8 4a f0 ff ff       	call   32aa4 <disp_str>
   33a5a:	eb 27                	jmp    33a83 <init_tty+0x43>
   33a5c:	8b 55 0c             	mov    0xc(%ebp),%edx
   33a5f:	8b 45 08             	mov    0x8(%ebp),%eax
   33a62:	89 10                	mov    %edx,(%eax)
   33a64:	8b 55 10             	mov    0x10(%ebp),%edx
   33a67:	8b 45 08             	mov    0x8(%ebp),%eax
   33a6a:	89 50 04             	mov    %edx,0x4(%eax)
   33a6d:	8b 45 08             	mov    0x8(%ebp),%eax
   33a70:	8b 10                	mov    (%eax),%edx
   33a72:	8b 45 08             	mov    0x8(%ebp),%eax
   33a75:	89 50 08             	mov    %edx,0x8(%eax)
   33a78:	8b 45 08             	mov    0x8(%ebp),%eax
   33a7b:	8b 10                	mov    (%eax),%edx
   33a7d:	8b 45 08             	mov    0x8(%ebp),%eax
   33a80:	89 50 0c             	mov    %edx,0xc(%eax)
   33a83:	c9                   	leave  
   33a84:	c3                   	ret    

00033a85 <init_all_ttys>:
   33a85:	55                   	push   %ebp
   33a86:	89 e5                	mov    %esp,%ebp
   33a88:	83 ec 18             	sub    $0x18,%esp
   33a8b:	e8 4d f7 ff ff       	call   331dd <init_keyboard>
   33a90:	c7 04 24 00 00 00 00 	movl   $0x0,(%esp)
   33a97:	e8 30 01 00 00       	call   33bcc <id2tty>
   33a9c:	c7 44 24 08 d0 07 00 	movl   $0x7d0,0x8(%esp)
   33aa3:	00 
   33aa4:	c7 44 24 04 00 00 00 	movl   $0x0,0x4(%esp)
   33aab:	00 
   33aac:	89 04 24             	mov    %eax,(%esp)
   33aaf:	e8 8c ff ff ff       	call   33a40 <init_tty>
   33ab4:	a1 68 5e 03 00       	mov    0x35e68,%eax
   33ab9:	89 c2                	mov    %eax,%edx
   33abb:	c1 ea 1f             	shr    $0x1f,%edx
   33abe:	8d 04 02             	lea    (%edx,%eax,1),%eax
   33ac1:	d1 f8                	sar    %eax
   33ac3:	a3 0c 87 03 00       	mov    %eax,0x3870c
   33ac8:	c7 44 24 04 84 4c 03 	movl   $0x34c84,0x4(%esp)
   33acf:	00 
   33ad0:	c7 04 24 00 00 00 00 	movl   $0x0,(%esp)
   33ad7:	e8 67 fe ff ff       	call   33943 <printStr>
   33adc:	c7 04 24 01 00 00 00 	movl   $0x1,(%esp)
   33ae3:	e8 e4 00 00 00       	call   33bcc <id2tty>
   33ae8:	c7 44 24 08 90 1a 00 	movl   $0x1a90,0x8(%esp)
   33aef:	00 
   33af0:	c7 44 24 04 c0 12 00 	movl   $0x12c0,0x4(%esp)
   33af7:	00 
   33af8:	89 04 24             	mov    %eax,(%esp)
   33afb:	e8 40 ff ff ff       	call   33a40 <init_tty>
   33b00:	c7 44 24 04 a4 4c 03 	movl   $0x34ca4,0x4(%esp)
   33b07:	00 
   33b08:	c7 04 24 01 00 00 00 	movl   $0x1,(%esp)
   33b0f:	e8 2f fe ff ff       	call   33943 <printStr>
   33b14:	c7 04 24 02 00 00 00 	movl   $0x2,(%esp)
   33b1b:	e8 ac 00 00 00       	call   33bcc <id2tty>
   33b20:	c7 44 24 08 50 2d 00 	movl   $0x2d50,0x8(%esp)
   33b27:	00 
   33b28:	c7 44 24 04 80 25 00 	movl   $0x2580,0x4(%esp)
   33b2f:	00 
   33b30:	89 04 24             	mov    %eax,(%esp)
   33b33:	e8 08 ff ff ff       	call   33a40 <init_tty>
   33b38:	c7 44 24 04 c4 4c 03 	movl   $0x34cc4,0x4(%esp)
   33b3f:	00 
   33b40:	c7 04 24 02 00 00 00 	movl   $0x2,(%esp)
   33b47:	e8 f7 fd ff ff       	call   33943 <printStr>
   33b4c:	c7 05 e8 ff 09 00 00 	movl   $0x0,0x9ffe8
   33b53:	00 00 00 
   33b56:	c9                   	leave  
   33b57:	c3                   	ret    

00033b58 <switch_tty>:
   33b58:	55                   	push   %ebp
   33b59:	89 e5                	mov    %esp,%ebp
   33b5b:	83 ec 18             	sub    $0x18,%esp
   33b5e:	8b 45 08             	mov    0x8(%ebp),%eax
   33b61:	8b 40 08             	mov    0x8(%eax),%eax
   33b64:	89 04 24             	mov    %eax,(%esp)
   33b67:	e8 4d fb ff ff       	call   336b9 <set_disp_addr>
   33b6c:	8b 45 08             	mov    0x8(%ebp),%eax
   33b6f:	8b 40 0c             	mov    0xc(%eax),%eax
   33b72:	89 04 24             	mov    %eax,(%esp)
   33b75:	e8 e0 fa ff ff       	call   3365a <set_cursor>
   33b7a:	8b 45 08             	mov    0x8(%ebp),%eax
   33b7d:	8b 40 0c             	mov    0xc(%eax),%eax
   33b80:	01 c0                	add    %eax,%eax
   33b82:	a3 68 5e 03 00       	mov    %eax,0x35e68
   33b87:	c9                   	leave  
   33b88:	c3                   	ret    

00033b89 <tty2id>:
   33b89:	55                   	push   %ebp
   33b8a:	89 e5                	mov    %esp,%ebp
   33b8c:	83 ec 18             	sub    $0x18,%esp
   33b8f:	83 7d 08 00          	cmpl   $0x0,0x8(%ebp)
   33b93:	75 24                	jne    33bb9 <tty2id+0x30>
   33b95:	c7 44 24 0c 3a 00 00 	movl   $0x3a,0xc(%esp)
   33b9c:	00 
   33b9d:	c7 44 24 08 e4 4c 03 	movl   $0x34ce4,0x8(%esp)
   33ba4:	00 
   33ba5:	c7 44 24 04 e4 4c 03 	movl   $0x34ce4,0x4(%esp)
   33bac:	00 
   33bad:	c7 04 24 f8 4c 03 00 	movl   $0x34cf8,(%esp)
   33bb4:	e8 d6 ed ff ff       	call   3298f <assertion_failure>
   33bb9:	8b 55 08             	mov    0x8(%ebp),%edx
   33bbc:	b8 00 87 03 00       	mov    $0x38700,%eax
   33bc1:	89 d1                	mov    %edx,%ecx
   33bc3:	29 c1                	sub    %eax,%ecx
   33bc5:	89 c8                	mov    %ecx,%eax
   33bc7:	c1 f8 04             	sar    $0x4,%eax
   33bca:	c9                   	leave  
   33bcb:	c3                   	ret    

00033bcc <id2tty>:
   33bcc:	55                   	push   %ebp
   33bcd:	89 e5                	mov    %esp,%ebp
   33bcf:	83 ec 18             	sub    $0x18,%esp
   33bd2:	83 7d 08 00          	cmpl   $0x0,0x8(%ebp)
   33bd6:	79 24                	jns    33bfc <id2tty+0x30>
   33bd8:	c7 44 24 0c 3f 00 00 	movl   $0x3f,0xc(%esp)
   33bdf:	00 
   33be0:	c7 44 24 08 e4 4c 03 	movl   $0x34ce4,0x8(%esp)
   33be7:	00 
   33be8:	c7 44 24 04 e4 4c 03 	movl   $0x34ce4,0x4(%esp)
   33bef:	00 
   33bf0:	c7 04 24 fa 4c 03 00 	movl   $0x34cfa,(%esp)
   33bf7:	e8 93 ed ff ff       	call   3298f <assertion_failure>
   33bfc:	8b 45 08             	mov    0x8(%ebp),%eax
   33bff:	c1 e0 04             	shl    $0x4,%eax
   33c02:	05 00 87 03 00       	add    $0x38700,%eax
   33c07:	c9                   	leave  
   33c08:	c3                   	ret    
   33c09:	90                   	nop
   33c0a:	90                   	nop
   33c0b:	90                   	nop

00033c0c <task_tick>:
   33c0c:	55                   	push   %ebp
   33c0d:	89 e5                	mov    %esp,%ebp
   33c0f:	83 ec 58             	sub    $0x58,%esp
   33c12:	8d 45 c4             	lea    -0x3c(%ebp),%eax
   33c15:	89 44 24 08          	mov    %eax,0x8(%esp)
   33c19:	c7 44 24 04 0f 27 00 	movl   $0x270f,0x4(%esp)
   33c20:	00 
   33c21:	c7 04 24 02 00 00 00 	movl   $0x2,(%esp)
   33c28:	e8 11 d7 ff ff       	call   3133e <sendrec>
   33c2d:	8b 45 c4             	mov    -0x3c(%ebp),%eax
   33c30:	89 45 f4             	mov    %eax,-0xc(%ebp)
   33c33:	c7 45 c4 02 00 00 00 	movl   $0x2,-0x3c(%ebp)
   33c3a:	c7 45 c8 00 00 00 00 	movl   $0x0,-0x38(%ebp)
   33c41:	a1 60 98 03 00       	mov    0x39860,%eax
   33c46:	89 45 cc             	mov    %eax,-0x34(%ebp)
   33c49:	83 7d f4 00          	cmpl   $0x0,-0xc(%ebp)
   33c4d:	75 24                	jne    33c73 <task_tick+0x67>
   33c4f:	c7 44 24 0c 16 00 00 	movl   $0x16,0xc(%esp)
   33c56:	00 
   33c57:	c7 44 24 08 00 4d 03 	movl   $0x34d00,0x8(%esp)
   33c5e:	00 
   33c5f:	c7 44 24 04 00 4d 03 	movl   $0x34d00,0x4(%esp)
   33c66:	00 
   33c67:	c7 04 24 1b 4d 03 00 	movl   $0x34d1b,(%esp)
   33c6e:	e8 1c ed ff ff       	call   3298f <assertion_failure>
   33c73:	8d 45 c4             	lea    -0x3c(%ebp),%eax
   33c76:	89 44 24 08          	mov    %eax,0x8(%esp)
   33c7a:	8b 45 f4             	mov    -0xc(%ebp),%eax
   33c7d:	89 44 24 04          	mov    %eax,0x4(%esp)
   33c81:	c7 04 24 01 00 00 00 	movl   $0x1,(%esp)
   33c88:	e8 b1 d6 ff ff       	call   3133e <sendrec>
   33c8d:	eb 83                	jmp    33c12 <task_tick+0x6>
   33c8f:	90                   	nop

00033c90 <task_fs>:
   33c90:	55                   	push   %ebp
   33c91:	89 e5                	mov    %esp,%ebp
   33c93:	83 ec 48             	sub    $0x48,%esp
   33c96:	c7 04 24 2a 4d 03 00 	movl   $0x34d2a,(%esp)
   33c9d:	e8 12 df ff ff       	call   31bb4 <printf>
   33ca2:	c7 45 cc 03 00 00 00 	movl   $0x3,-0x34(%ebp)
   33ca9:	8d 45 c8             	lea    -0x38(%ebp),%eax
   33cac:	89 44 24 08          	mov    %eax,0x8(%esp)
   33cb0:	c7 44 24 04 03 00 00 	movl   $0x3,0x4(%esp)
   33cb7:	00 
   33cb8:	c7 04 24 01 00 00 00 	movl   $0x1,(%esp)
   33cbf:	e8 7a d6 ff ff       	call   3133e <sendrec>
   33cc4:	c7 04 24 48 4d 03 00 	movl   $0x34d48,(%esp)
   33ccb:	e8 a4 ec ff ff       	call   32974 <spin>
   33cd0:	c9                   	leave  
   33cd1:	c3                   	ret    
   33cd2:	90                   	nop
   33cd3:	90                   	nop

00033cd4 <hd_handler>:
   33cd4:	55                   	push   %ebp
   33cd5:	89 e5                	mov    %esp,%ebp
   33cd7:	83 ec 18             	sub    $0x18,%esp
   33cda:	c7 04 24 58 4d 03 00 	movl   $0x34d58,(%esp)
   33ce1:	e8 c6 cc ff ff       	call   309ac <printf_kernel>
   33ce6:	c7 04 24 03 00 00 00 	movl   $0x3,(%esp)
   33ced:	e8 03 de ff ff       	call   31af5 <inform_int>
   33cf2:	c9                   	leave  
   33cf3:	c3                   	ret    

00033cf4 <task_disk>:
   33cf4:	55                   	push   %ebp
   33cf5:	89 e5                	mov    %esp,%ebp
   33cf7:	83 ec 58             	sub    $0x58,%esp
   33cfa:	c7 45 f0 75 04 00 00 	movl   $0x475,-0x10(%ebp)
   33d01:	8b 45 f0             	mov    -0x10(%ebp),%eax
   33d04:	0f b6 00             	movzbl (%eax),%eax
   33d07:	0f b6 c0             	movzbl %al,%eax
   33d0a:	89 44 24 04          	mov    %eax,0x4(%esp)
   33d0e:	c7 04 24 82 4d 03 00 	movl   $0x34d82,(%esp)
   33d15:	e8 9a de ff ff       	call   31bb4 <printf>
   33d1a:	8b 45 f0             	mov    -0x10(%ebp),%eax
   33d1d:	0f b6 00             	movzbl (%eax),%eax
   33d20:	84 c0                	test   %al,%al
   33d22:	75 24                	jne    33d48 <task_disk+0x54>
   33d24:	c7 44 24 0c 2a 00 00 	movl   $0x2a,0xc(%esp)
   33d2b:	00 
   33d2c:	c7 44 24 08 90 4d 03 	movl   $0x34d90,0x8(%esp)
   33d33:	00 
   33d34:	c7 44 24 04 90 4d 03 	movl   $0x34d90,0x4(%esp)
   33d3b:	00 
   33d3c:	c7 04 24 ab 4d 03 00 	movl   $0x34dab,(%esp)
   33d43:	e8 47 ec ff ff       	call   3298f <assertion_failure>
   33d48:	b8 b3 25 03 00       	mov    $0x325b3,%eax
   33d4d:	89 04 24             	mov    %eax,(%esp)
   33d50:	e8 88 e3 ff ff       	call   320dd <set_hd_handler>
   33d55:	e8 99 ea ff ff       	call   327f3 <enable_disk>
   33d5a:	c7 04 24 b6 4d 03 00 	movl   $0x34db6,(%esp)
   33d61:	e8 4e de ff ff       	call   31bb4 <printf>
   33d66:	eb 01                	jmp    33d69 <task_disk+0x75>
   33d68:	90                   	nop
   33d69:	8d 45 c0             	lea    -0x40(%ebp),%eax
   33d6c:	89 44 24 08          	mov    %eax,0x8(%esp)
   33d70:	c7 44 24 04 0f 27 00 	movl   $0x270f,0x4(%esp)
   33d77:	00 
   33d78:	c7 04 24 02 00 00 00 	movl   $0x2,(%esp)
   33d7f:	e8 ba d5 ff ff       	call   3133e <sendrec>
   33d84:	8b 45 c4             	mov    -0x3c(%ebp),%eax
   33d87:	83 f8 03             	cmp    $0x3,%eax
   33d8a:	75 dc                	jne    33d68 <task_disk+0x74>
   33d8c:	c7 04 24 00 00 00 00 	movl   $0x0,(%esp)
   33d93:	e8 03 00 00 00       	call   33d9b <hd_identify>
   33d98:	90                   	nop
   33d99:	eb ce                	jmp    33d69 <task_disk+0x75>

00033d9b <hd_identify>:
   33d9b:	55                   	push   %ebp
   33d9c:	89 e5                	mov    %esp,%ebp
   33d9e:	83 ec 28             	sub    $0x28,%esp
   33da1:	8b 45 08             	mov    0x8(%ebp),%eax
   33da4:	c1 e0 04             	shl    $0x4,%eax
   33da7:	83 c8 a0             	or     $0xffffffa0,%eax
   33daa:	88 45 f6             	mov    %al,-0xa(%ebp)
   33dad:	c6 45 f7 ec          	movb   $0xec,-0x9(%ebp)
   33db1:	8d 45 f0             	lea    -0x10(%ebp),%eax
   33db4:	89 04 24             	mov    %eax,(%esp)
   33db7:	e8 2f 00 00 00       	call   33deb <hd_cmd_out>
   33dbc:	e8 77 e7 ff ff       	call   32538 <interrupt_wait>
   33dc1:	c7 44 24 08 00 02 00 	movl   $0x200,0x8(%esp)
   33dc8:	00 
   33dc9:	c7 44 24 04 40 87 03 	movl   $0x38740,0x4(%esp)
   33dd0:	00 
   33dd1:	c7 04 24 f0 01 00 00 	movl   $0x1f0,(%esp)
   33dd8:	e8 3c ed ff ff       	call   32b19 <port_read>
   33ddd:	c7 04 24 40 87 03 00 	movl   $0x38740,(%esp)
   33de4:	e8 5c 01 00 00       	call   33f45 <print_identify_info>
   33de9:	c9                   	leave  
   33dea:	c3                   	ret    

00033deb <hd_cmd_out>:
   33deb:	55                   	push   %ebp
   33dec:	89 e5                	mov    %esp,%ebp
   33dee:	83 ec 18             	sub    $0x18,%esp
   33df1:	c7 44 24 08 10 27 00 	movl   $0x2710,0x8(%esp)
   33df8:	00 
   33df9:	c7 44 24 04 00 00 00 	movl   $0x0,0x4(%esp)
   33e00:	00 
   33e01:	c7 04 24 80 00 00 00 	movl   $0x80,(%esp)
   33e08:	e8 dc 00 00 00       	call   33ee9 <waitfor>
   33e0d:	85 c0                	test   %eax,%eax
   33e0f:	75 0c                	jne    33e1d <hd_cmd_out+0x32>
   33e11:	c7 04 24 c9 4d 03 00 	movl   $0x34dc9,(%esp)
   33e18:	e8 c1 eb ff ff       	call   329de <panic>
   33e1d:	c7 44 24 04 00 00 00 	movl   $0x0,0x4(%esp)
   33e24:	00 
   33e25:	c7 04 24 f6 03 00 00 	movl   $0x3f6,(%esp)
   33e2c:	e8 c9 ec ff ff       	call   32afa <out_byte>
   33e31:	8b 45 08             	mov    0x8(%ebp),%eax
   33e34:	0f b6 40 01          	movzbl 0x1(%eax),%eax
   33e38:	0f b6 c0             	movzbl %al,%eax
   33e3b:	89 44 24 04          	mov    %eax,0x4(%esp)
   33e3f:	c7 04 24 f1 01 00 00 	movl   $0x1f1,(%esp)
   33e46:	e8 af ec ff ff       	call   32afa <out_byte>
   33e4b:	8b 45 08             	mov    0x8(%ebp),%eax
   33e4e:	0f b6 40 02          	movzbl 0x2(%eax),%eax
   33e52:	0f b6 c0             	movzbl %al,%eax
   33e55:	89 44 24 04          	mov    %eax,0x4(%esp)
   33e59:	c7 04 24 f2 01 00 00 	movl   $0x1f2,(%esp)
   33e60:	e8 95 ec ff ff       	call   32afa <out_byte>
   33e65:	8b 45 08             	mov    0x8(%ebp),%eax
   33e68:	0f b6 40 03          	movzbl 0x3(%eax),%eax
   33e6c:	0f b6 c0             	movzbl %al,%eax
   33e6f:	89 44 24 04          	mov    %eax,0x4(%esp)
   33e73:	c7 04 24 f3 01 00 00 	movl   $0x1f3,(%esp)
   33e7a:	e8 7b ec ff ff       	call   32afa <out_byte>
   33e7f:	8b 45 08             	mov    0x8(%ebp),%eax
   33e82:	0f b6 40 04          	movzbl 0x4(%eax),%eax
   33e86:	0f b6 c0             	movzbl %al,%eax
   33e89:	89 44 24 04          	mov    %eax,0x4(%esp)
   33e8d:	c7 04 24 f4 01 00 00 	movl   $0x1f4,(%esp)
   33e94:	e8 61 ec ff ff       	call   32afa <out_byte>
   33e99:	8b 45 08             	mov    0x8(%ebp),%eax
   33e9c:	0f b6 40 05          	movzbl 0x5(%eax),%eax
   33ea0:	0f b6 c0             	movzbl %al,%eax
   33ea3:	89 44 24 04          	mov    %eax,0x4(%esp)
   33ea7:	c7 04 24 f5 01 00 00 	movl   $0x1f5,(%esp)
   33eae:	e8 47 ec ff ff       	call   32afa <out_byte>
   33eb3:	8b 45 08             	mov    0x8(%ebp),%eax
   33eb6:	0f b6 40 06          	movzbl 0x6(%eax),%eax
   33eba:	0f b6 c0             	movzbl %al,%eax
   33ebd:	89 44 24 04          	mov    %eax,0x4(%esp)
   33ec1:	c7 04 24 f6 01 00 00 	movl   $0x1f6,(%esp)
   33ec8:	e8 2d ec ff ff       	call   32afa <out_byte>
   33ecd:	8b 45 08             	mov    0x8(%ebp),%eax
   33ed0:	0f b6 40 07          	movzbl 0x7(%eax),%eax
   33ed4:	0f b6 c0             	movzbl %al,%eax
   33ed7:	89 44 24 04          	mov    %eax,0x4(%esp)
   33edb:	c7 04 24 f7 01 00 00 	movl   $0x1f7,(%esp)
   33ee2:	e8 13 ec ff ff       	call   32afa <out_byte>
   33ee7:	c9                   	leave  
   33ee8:	c3                   	ret    

00033ee9 <waitfor>:
   33ee9:	55                   	push   %ebp
   33eea:	89 e5                	mov    %esp,%ebp
   33eec:	83 ec 28             	sub    $0x28,%esp
   33eef:	e8 54 ee ff ff       	call   32d48 <get_ticks>
   33ef4:	89 45 f4             	mov    %eax,-0xc(%ebp)
   33ef7:	eb 1b                	jmp    33f14 <waitfor+0x2b>
   33ef9:	c7 04 24 f7 01 00 00 	movl   $0x1f7,(%esp)
   33f00:	e8 05 ec ff ff       	call   32b0a <in_byte>
   33f05:	23 45 08             	and    0x8(%ebp),%eax
   33f08:	3b 45 0c             	cmp    0xc(%ebp),%eax
   33f0b:	75 07                	jne    33f14 <waitfor+0x2b>
   33f0d:	b8 01 00 00 00       	mov    $0x1,%eax
   33f12:	eb 2f                	jmp    33f43 <waitfor+0x5a>
   33f14:	e8 2f ee ff ff       	call   32d48 <get_ticks>
   33f19:	2b 45 f4             	sub    -0xc(%ebp),%eax
   33f1c:	69 c8 e8 03 00 00    	imul   $0x3e8,%eax,%ecx
   33f22:	ba 1f 85 eb 51       	mov    $0x51eb851f,%edx
   33f27:	89 c8                	mov    %ecx,%eax
   33f29:	f7 ea                	imul   %edx
   33f2b:	c1 fa 04             	sar    $0x4,%edx
   33f2e:	89 c8                	mov    %ecx,%eax
   33f30:	c1 f8 1f             	sar    $0x1f,%eax
   33f33:	89 d1                	mov    %edx,%ecx
   33f35:	29 c1                	sub    %eax,%ecx
   33f37:	89 c8                	mov    %ecx,%eax
   33f39:	3b 45 10             	cmp    0x10(%ebp),%eax
   33f3c:	7c bb                	jl     33ef9 <waitfor+0x10>
   33f3e:	b8 00 00 00 00       	mov    $0x0,%eax
   33f43:	c9                   	leave  
   33f44:	c3                   	ret    

00033f45 <print_identify_info>:
   33f45:	55                   	push   %ebp
   33f46:	89 e5                	mov    %esp,%ebp
   33f48:	81 ec 98 00 00 00    	sub    $0x98,%esp
   33f4e:	c7 45 80 0a 00 00 00 	movl   $0xa,-0x80(%ebp)
   33f55:	c7 45 84 14 00 00 00 	movl   $0x14,-0x7c(%ebp)
   33f5c:	c7 45 88 d3 4d 03 00 	movl   $0x34dd3,-0x78(%ebp)
   33f63:	c7 45 8c 1b 00 00 00 	movl   $0x1b,-0x74(%ebp)
   33f6a:	c7 45 90 28 00 00 00 	movl   $0x28,-0x70(%ebp)
   33f71:	c7 45 94 d9 4d 03 00 	movl   $0x34dd9,-0x6c(%ebp)
   33f78:	c7 45 dc 00 00 00 00 	movl   $0x0,-0x24(%ebp)
   33f7f:	e9 c6 00 00 00       	jmp    3404a <print_identify_info+0x105>
   33f84:	8b 55 dc             	mov    -0x24(%ebp),%edx
   33f87:	89 d0                	mov    %edx,%eax
   33f89:	01 c0                	add    %eax,%eax
   33f8b:	01 d0                	add    %edx,%eax
   33f8d:	c1 e0 02             	shl    $0x2,%eax
   33f90:	8d 55 f8             	lea    -0x8(%ebp),%edx
   33f93:	8d 04 02             	lea    (%edx,%eax,1),%eax
   33f96:	83 e8 78             	sub    $0x78,%eax
   33f99:	8b 00                	mov    (%eax),%eax
   33f9b:	89 45 ec             	mov    %eax,-0x14(%ebp)
   33f9e:	8b 55 dc             	mov    -0x24(%ebp),%edx
   33fa1:	89 d0                	mov    %edx,%eax
   33fa3:	01 c0                	add    %eax,%eax
   33fa5:	01 d0                	add    %edx,%eax
   33fa7:	c1 e0 02             	shl    $0x2,%eax
   33faa:	8d 55 f8             	lea    -0x8(%ebp),%edx
   33fad:	8d 04 02             	lea    (%edx,%eax,1),%eax
   33fb0:	83 e8 74             	sub    $0x74,%eax
   33fb3:	8b 00                	mov    (%eax),%eax
   33fb5:	89 45 f0             	mov    %eax,-0x10(%ebp)
   33fb8:	8b 45 08             	mov    0x8(%ebp),%eax
   33fbb:	8b 55 ec             	mov    -0x14(%ebp),%edx
   33fbe:	01 d2                	add    %edx,%edx
   33fc0:	01 d0                	add    %edx,%eax
   33fc2:	89 45 f4             	mov    %eax,-0xc(%ebp)
   33fc5:	c7 45 d8 00 00 00 00 	movl   $0x0,-0x28(%ebp)
   33fcc:	eb 2e                	jmp    33ffc <print_identify_info+0xb7>
   33fce:	8b 45 d8             	mov    -0x28(%ebp),%eax
   33fd1:	01 c0                	add    %eax,%eax
   33fd3:	8d 50 01             	lea    0x1(%eax),%edx
   33fd6:	8b 45 f4             	mov    -0xc(%ebp),%eax
   33fd9:	0f b6 00             	movzbl (%eax),%eax
   33fdc:	88 44 15 98          	mov    %al,-0x68(%ebp,%edx,1)
   33fe0:	83 45 f4 01          	addl   $0x1,-0xc(%ebp)
   33fe4:	8b 45 d8             	mov    -0x28(%ebp),%eax
   33fe7:	8d 14 00             	lea    (%eax,%eax,1),%edx
   33fea:	8b 45 f4             	mov    -0xc(%ebp),%eax
   33fed:	0f b6 00             	movzbl (%eax),%eax
   33ff0:	88 44 15 98          	mov    %al,-0x68(%ebp,%edx,1)
   33ff4:	83 45 f4 01          	addl   $0x1,-0xc(%ebp)
   33ff8:	83 45 d8 01          	addl   $0x1,-0x28(%ebp)
   33ffc:	8b 45 f0             	mov    -0x10(%ebp),%eax
   33fff:	89 c2                	mov    %eax,%edx
   34001:	c1 ea 1f             	shr    $0x1f,%edx
   34004:	8d 04 02             	lea    (%edx,%eax,1),%eax
   34007:	d1 f8                	sar    %eax
   34009:	3b 45 d8             	cmp    -0x28(%ebp),%eax
   3400c:	7f c0                	jg     33fce <print_identify_info+0x89>
   3400e:	8b 45 d8             	mov    -0x28(%ebp),%eax
   34011:	01 c0                	add    %eax,%eax
   34013:	c6 44 05 98 00       	movb   $0x0,-0x68(%ebp,%eax,1)
   34018:	8b 55 dc             	mov    -0x24(%ebp),%edx
   3401b:	89 d0                	mov    %edx,%eax
   3401d:	01 c0                	add    %eax,%eax
   3401f:	01 d0                	add    %edx,%eax
   34021:	c1 e0 02             	shl    $0x2,%eax
   34024:	8d 55 f8             	lea    -0x8(%ebp),%edx
   34027:	8d 04 02             	lea    (%edx,%eax,1),%eax
   3402a:	83 e8 70             	sub    $0x70,%eax
   3402d:	8b 00                	mov    (%eax),%eax
   3402f:	8d 55 98             	lea    -0x68(%ebp),%edx
   34032:	89 54 24 08          	mov    %edx,0x8(%esp)
   34036:	89 44 24 04          	mov    %eax,0x4(%esp)
   3403a:	c7 04 24 e2 4d 03 00 	movl   $0x34de2,(%esp)
   34041:	e8 6e db ff ff       	call   31bb4 <printf>
   34046:	83 45 dc 01          	addl   $0x1,-0x24(%ebp)
   3404a:	8b 45 dc             	mov    -0x24(%ebp),%eax
   3404d:	83 f8 01             	cmp    $0x1,%eax
   34050:	0f 86 2e ff ff ff    	jbe    33f84 <print_identify_info+0x3f>
   34056:	8b 45 08             	mov    0x8(%ebp),%eax
   34059:	83 c0 62             	add    $0x62,%eax
   3405c:	0f b7 00             	movzwl (%eax),%eax
   3405f:	0f b7 c0             	movzwl %ax,%eax
   34062:	89 45 e0             	mov    %eax,-0x20(%ebp)
   34065:	8b 45 e0             	mov    -0x20(%ebp),%eax
   34068:	25 00 02 00 00       	and    $0x200,%eax
   3406d:	85 c0                	test   %eax,%eax
   3406f:	74 07                	je     34078 <print_identify_info+0x133>
   34071:	b8 eb 4d 03 00       	mov    $0x34deb,%eax
   34076:	eb 05                	jmp    3407d <print_identify_info+0x138>
   34078:	b8 ef 4d 03 00       	mov    $0x34def,%eax
   3407d:	89 44 24 04          	mov    %eax,0x4(%esp)
   34081:	c7 04 24 f2 4d 03 00 	movl   $0x34df2,(%esp)
   34088:	e8 27 db ff ff       	call   31bb4 <printf>
   3408d:	8b 45 08             	mov    0x8(%ebp),%eax
   34090:	05 a6 00 00 00       	add    $0xa6,%eax
   34095:	0f b7 00             	movzwl (%eax),%eax
   34098:	0f b7 c0             	movzwl %ax,%eax
   3409b:	89 45 e4             	mov    %eax,-0x1c(%ebp)
   3409e:	8b 45 e4             	mov    -0x1c(%ebp),%eax
   340a1:	25 00 04 00 00       	and    $0x400,%eax
   340a6:	85 c0                	test   %eax,%eax
   340a8:	74 07                	je     340b1 <print_identify_info+0x16c>
   340aa:	b8 eb 4d 03 00       	mov    $0x34deb,%eax
   340af:	eb 05                	jmp    340b6 <print_identify_info+0x171>
   340b1:	b8 ef 4d 03 00       	mov    $0x34def,%eax
   340b6:	89 44 24 04          	mov    %eax,0x4(%esp)
   340ba:	c7 04 24 06 4e 03 00 	movl   $0x34e06,(%esp)
   340c1:	e8 ee da ff ff       	call   31bb4 <printf>
   340c6:	8b 45 08             	mov    0x8(%ebp),%eax
   340c9:	83 c0 7a             	add    $0x7a,%eax
   340cc:	0f b7 00             	movzwl (%eax),%eax
   340cf:	0f b7 c0             	movzwl %ax,%eax
   340d2:	89 c2                	mov    %eax,%edx
   340d4:	c1 e2 10             	shl    $0x10,%edx
   340d7:	8b 45 08             	mov    0x8(%ebp),%eax
   340da:	83 c0 78             	add    $0x78,%eax
   340dd:	0f b7 00             	movzwl (%eax),%eax
   340e0:	0f b7 c0             	movzwl %ax,%eax
   340e3:	8d 04 02             	lea    (%edx,%eax,1),%eax
   340e6:	89 45 e8             	mov    %eax,-0x18(%ebp)
   340e9:	8b 45 e8             	mov    -0x18(%ebp),%eax
   340ec:	89 44 24 04          	mov    %eax,0x4(%esp)
   340f0:	c7 04 24 1c 4e 03 00 	movl   $0x34e1c,(%esp)
   340f7:	e8 b8 da ff ff       	call   31bb4 <printf>
   340fc:	8b 45 e8             	mov    -0x18(%ebp),%eax
   340ff:	89 c2                	mov    %eax,%edx
   34101:	c1 fa 1f             	sar    $0x1f,%edx
   34104:	c1 ea 16             	shr    $0x16,%edx
   34107:	8d 04 02             	lea    (%edx,%eax,1),%eax
   3410a:	c1 f8 0a             	sar    $0xa,%eax
   3410d:	c1 e0 09             	shl    $0x9,%eax
   34110:	89 c2                	mov    %eax,%edx
   34112:	c1 fa 1f             	sar    $0x1f,%edx
   34115:	c1 ea 16             	shr    $0x16,%edx
   34118:	8d 04 02             	lea    (%edx,%eax,1),%eax
   3411b:	c1 f8 0a             	sar    $0xa,%eax
   3411e:	89 44 24 04          	mov    %eax,0x4(%esp)
   34122:	c7 04 24 2e 4e 03 00 	movl   $0x34e2e,(%esp)
   34129:	e8 86 da ff ff       	call   31bb4 <printf>
   3412e:	c9                   	leave  
   3412f:	c3                   	ret    

00034130 <milli_delay>:
   34130:	55                   	push   %ebp
   34131:	89 e5                	mov    %esp,%ebp
   34133:	83 ec 18             	sub    $0x18,%esp
   34136:	e8 0d ec ff ff       	call   32d48 <get_ticks>
   3413b:	89 45 f0             	mov    %eax,-0x10(%ebp)
   3413e:	eb 01                	jmp    34141 <milli_delay+0x11>
   34140:	90                   	nop
   34141:	e8 02 ec ff ff       	call   32d48 <get_ticks>
   34146:	89 45 f4             	mov    %eax,-0xc(%ebp)
   34149:	8b 45 f0             	mov    -0x10(%ebp),%eax
   3414c:	8b 55 f4             	mov    -0xc(%ebp),%edx
   3414f:	29 c2                	sub    %eax,%edx
   34151:	89 d0                	mov    %edx,%eax
   34153:	c1 e0 02             	shl    $0x2,%eax
   34156:	01 d0                	add    %edx,%eax
   34158:	01 c0                	add    %eax,%eax
   3415a:	89 c2                	mov    %eax,%edx
   3415c:	8b 45 08             	mov    0x8(%ebp),%eax
   3415f:	39 c2                	cmp    %eax,%edx
   34161:	76 dd                	jbe    34140 <milli_delay+0x10>
   34163:	c9                   	leave  
   34164:	c3                   	ret    

00034165 <p1>:
   34165:	55                   	push   %ebp
   34166:	89 e5                	mov    %esp,%ebp
   34168:	83 ec 28             	sub    $0x28,%esp
   3416b:	c7 45 f0 3e 4e 03 00 	movl   $0x34e3e,-0x10(%ebp)
   34172:	c7 45 f4 49 4e 03 00 	movl   $0x34e49,-0xc(%ebp)
   34179:	e8 ca eb ff ff       	call   32d48 <get_ticks>
   3417e:	89 45 ec             	mov    %eax,-0x14(%ebp)
   34181:	c7 04 24 50 4e 03 00 	movl   $0x34e50,(%esp)
   34188:	e8 27 da ff ff       	call   31bb4 <printf>
   3418d:	c7 04 24 e8 03 00 00 	movl   $0x3e8,(%esp)
   34194:	e8 97 ff ff ff       	call   34130 <milli_delay>
   34199:	eb de                	jmp    34179 <p1+0x14>

0003419b <p2>:
   3419b:	55                   	push   %ebp
   3419c:	89 e5                	mov    %esp,%ebp
   3419e:	83 ec 28             	sub    $0x28,%esp
   341a1:	c7 45 f4 00 00 00 00 	movl   $0x0,-0xc(%ebp)
   341a8:	c7 04 24 54 4e 03 00 	movl   $0x34e54,(%esp)
   341af:	e8 00 da ff ff       	call   31bb4 <printf>
   341b4:	c7 04 24 e8 03 00 00 	movl   $0x3e8,(%esp)
   341bb:	e8 70 ff ff ff       	call   34130 <milli_delay>
   341c0:	eb e6                	jmp    341a8 <p2+0xd>

000341c2 <p3>:
   341c2:	55                   	push   %ebp
   341c3:	89 e5                	mov    %esp,%ebp
   341c5:	83 ec 28             	sub    $0x28,%esp
   341c8:	c7 45 f4 00 00 00 00 	movl   $0x0,-0xc(%ebp)
   341cf:	c7 04 24 58 4e 03 00 	movl   $0x34e58,(%esp)
   341d6:	e8 d9 d9 ff ff       	call   31bb4 <printf>
   341db:	c7 04 24 e8 03 00 00 	movl   $0x3e8,(%esp)
   341e2:	e8 49 ff ff ff       	call   34130 <milli_delay>
   341e7:	eb e6                	jmp    341cf <p3+0xd>

000341e9 <init_normal_process>:
   341e9:	55                   	push   %ebp
   341ea:	89 e5                	mov    %esp,%ebp
   341ec:	83 ec 48             	sub    $0x48,%esp
   341ef:	c7 45 d8 14 00 00 00 	movl   $0x14,-0x28(%ebp)
   341f6:	c7 45 dc 15 00 00 00 	movl   $0x15,-0x24(%ebp)
   341fd:	c7 45 e0 16 00 00 00 	movl   $0x16,-0x20(%ebp)
   34204:	c7 45 e4 00 00 00 00 	movl   $0x0,-0x1c(%ebp)
   3420b:	8b 45 d8             	mov    -0x28(%ebp),%eax
   3420e:	69 c0 fc 28 00 00    	imul   $0x28fc,%eax,%eax
   34214:	05 80 98 03 00       	add    $0x39880,%eax
   34219:	89 45 e8             	mov    %eax,-0x18(%ebp)
   3421c:	8b 45 dc             	mov    -0x24(%ebp),%eax
   3421f:	69 c0 fc 28 00 00    	imul   $0x28fc,%eax,%eax
   34225:	05 80 98 03 00       	add    $0x39880,%eax
   3422a:	89 45 ec             	mov    %eax,-0x14(%ebp)
   3422d:	8b 45 e0             	mov    -0x20(%ebp),%eax
   34230:	69 c0 fc 28 00 00    	imul   $0x28fc,%eax,%eax
   34236:	05 80 98 03 00       	add    $0x39880,%eax
   3423b:	89 45 f0             	mov    %eax,-0x10(%ebp)
   3423e:	c7 45 f4 02 02 00 00 	movl   $0x202,-0xc(%ebp)
   34245:	8b 45 e8             	mov    -0x18(%ebp),%eax
   34248:	05 d4 00 00 00       	add    $0xd4,%eax
   3424d:	8d 90 ff 27 00 00    	lea    0x27ff(%eax),%edx
   34253:	b8 65 41 03 00       	mov    $0x34165,%eax
   34258:	c7 44 24 1c 17 00 00 	movl   $0x17,0x1c(%esp)
   3425f:	00 
   34260:	c7 44 24 18 1f 00 00 	movl   $0x1f,0x18(%esp)
   34267:	00 
   34268:	c7 44 24 14 0f 00 00 	movl   $0xf,0x14(%esp)
   3426f:	00 
   34270:	89 54 24 10          	mov    %edx,0x10(%esp)
   34274:	8b 55 f4             	mov    -0xc(%ebp),%edx
   34277:	89 54 24 0c          	mov    %edx,0xc(%esp)
   3427b:	c7 44 24 08 07 00 00 	movl   $0x7,0x8(%esp)
   34282:	00 
   34283:	89 44 24 04          	mov    %eax,0x4(%esp)
   34287:	8b 45 e8             	mov    -0x18(%ebp),%eax
   3428a:	89 04 24             	mov    %eax,(%esp)
   3428d:	e8 c0 c3 ff ff       	call   30652 <set_process_regs>
   34292:	8b 45 ec             	mov    -0x14(%ebp),%eax
   34295:	05 d4 00 00 00       	add    $0xd4,%eax
   3429a:	8d 90 ff 27 00 00    	lea    0x27ff(%eax),%edx
   342a0:	b8 9b 41 03 00       	mov    $0x3419b,%eax
   342a5:	c7 44 24 1c 17 00 00 	movl   $0x17,0x1c(%esp)
   342ac:	00 
   342ad:	c7 44 24 18 0f 00 00 	movl   $0xf,0x18(%esp)
   342b4:	00 
   342b5:	c7 44 24 14 1f 00 00 	movl   $0x1f,0x14(%esp)
   342bc:	00 
   342bd:	89 54 24 10          	mov    %edx,0x10(%esp)
   342c1:	8b 55 f4             	mov    -0xc(%ebp),%edx
   342c4:	89 54 24 0c          	mov    %edx,0xc(%esp)
   342c8:	c7 44 24 08 07 00 00 	movl   $0x7,0x8(%esp)
   342cf:	00 
   342d0:	89 44 24 04          	mov    %eax,0x4(%esp)
   342d4:	8b 45 ec             	mov    -0x14(%ebp),%eax
   342d7:	89 04 24             	mov    %eax,(%esp)
   342da:	e8 73 c3 ff ff       	call   30652 <set_process_regs>
   342df:	8b 45 f0             	mov    -0x10(%ebp),%eax
   342e2:	05 d4 00 00 00       	add    $0xd4,%eax
   342e7:	8d 90 ff 27 00 00    	lea    0x27ff(%eax),%edx
   342ed:	b8 c2 41 03 00       	mov    $0x341c2,%eax
   342f2:	c7 44 24 1c 17 00 00 	movl   $0x17,0x1c(%esp)
   342f9:	00 
   342fa:	c7 44 24 18 0f 00 00 	movl   $0xf,0x18(%esp)
   34301:	00 
   34302:	c7 44 24 14 1f 00 00 	movl   $0x1f,0x14(%esp)
   34309:	00 
   3430a:	89 54 24 10          	mov    %edx,0x10(%esp)
   3430e:	8b 55 f4             	mov    -0xc(%ebp),%edx
   34311:	89 54 24 0c          	mov    %edx,0xc(%esp)
   34315:	c7 44 24 08 07 00 00 	movl   $0x7,0x8(%esp)
   3431c:	00 
   3431d:	89 44 24 04          	mov    %eax,0x4(%esp)
   34321:	8b 45 f0             	mov    -0x10(%ebp),%eax
   34324:	89 04 24             	mov    %eax,(%esp)
   34327:	e8 26 c3 ff ff       	call   30652 <set_process_regs>
   3432c:	c7 44 24 10 00 00 00 	movl   $0x0,0x10(%esp)
   34333:	00 
   34334:	c7 44 24 0c 03 00 00 	movl   $0x3,0xc(%esp)
   3433b:	00 
   3433c:	c7 44 24 08 1e 00 00 	movl   $0x1e,0x8(%esp)
   34343:	00 
   34344:	c7 44 24 04 1e 00 00 	movl   $0x1e,0x4(%esp)
   3434b:	00 
   3434c:	8b 45 e8             	mov    -0x18(%ebp),%eax
   3434f:	89 04 24             	mov    %eax,(%esp)
   34352:	e8 a5 c3 ff ff       	call   306fc <initProcess>
   34357:	c7 44 24 10 01 00 00 	movl   $0x1,0x10(%esp)
   3435e:	00 
   3435f:	c7 44 24 0c 03 00 00 	movl   $0x3,0xc(%esp)
   34366:	00 
   34367:	c7 44 24 08 1e 00 00 	movl   $0x1e,0x8(%esp)
   3436e:	00 
   3436f:	c7 44 24 04 1e 00 00 	movl   $0x1e,0x4(%esp)
   34376:	00 
   34377:	8b 45 ec             	mov    -0x14(%ebp),%eax
   3437a:	89 04 24             	mov    %eax,(%esp)
   3437d:	e8 7a c3 ff ff       	call   306fc <initProcess>
   34382:	c7 44 24 10 02 00 00 	movl   $0x2,0x10(%esp)
   34389:	00 
   3438a:	c7 44 24 0c 03 00 00 	movl   $0x3,0xc(%esp)
   34391:	00 
   34392:	c7 44 24 08 1e 00 00 	movl   $0x1e,0x8(%esp)
   34399:	00 
   3439a:	c7 44 24 04 1e 00 00 	movl   $0x1e,0x4(%esp)
   343a1:	00 
   343a2:	8b 45 f0             	mov    -0x10(%ebp),%eax
   343a5:	89 04 24             	mov    %eax,(%esp)
   343a8:	e8 4f c3 ff ff       	call   306fc <initProcess>
   343ad:	8b 45 e8             	mov    -0x18(%ebp),%eax
   343b0:	83 c0 54             	add    $0x54,%eax
   343b3:	c7 44 24 0c e2 40 00 	movl   $0x40e2,0xc(%esp)
   343ba:	00 
   343bb:	c7 44 24 08 7f 00 00 	movl   $0x7f,0x8(%esp)
   343c2:	00 
   343c3:	89 44 24 04          	mov    %eax,0x4(%esp)
   343c7:	c7 04 24 08 00 00 00 	movl   $0x8,(%esp)
   343ce:	e8 4f ce ff ff       	call   31222 <setGDTEntry>
   343d3:	8b 45 e8             	mov    -0x18(%ebp),%eax
   343d6:	c7 40 48 43 00 00 00 	movl   $0x43,0x48(%eax)
   343dd:	8b 45 ec             	mov    -0x14(%ebp),%eax
   343e0:	83 c0 54             	add    $0x54,%eax
   343e3:	c7 44 24 0c e2 40 00 	movl   $0x40e2,0xc(%esp)
   343ea:	00 
   343eb:	c7 44 24 08 7f 00 00 	movl   $0x7f,0x8(%esp)
   343f2:	00 
   343f3:	89 44 24 04          	mov    %eax,0x4(%esp)
   343f7:	c7 04 24 09 00 00 00 	movl   $0x9,(%esp)
   343fe:	e8 1f ce ff ff       	call   31222 <setGDTEntry>
   34403:	8b 45 ec             	mov    -0x14(%ebp),%eax
   34406:	c7 40 48 4b 00 00 00 	movl   $0x4b,0x48(%eax)
   3440d:	8b 45 f0             	mov    -0x10(%ebp),%eax
   34410:	83 c0 54             	add    $0x54,%eax
   34413:	c7 44 24 0c e2 40 00 	movl   $0x40e2,0xc(%esp)
   3441a:	00 
   3441b:	c7 44 24 08 7f 00 00 	movl   $0x7f,0x8(%esp)
   34422:	00 
   34423:	89 44 24 04          	mov    %eax,0x4(%esp)
   34427:	c7 04 24 0a 00 00 00 	movl   $0xa,(%esp)
   3442e:	e8 ef cd ff ff       	call   31222 <setGDTEntry>
   34433:	8b 45 f0             	mov    -0x10(%ebp),%eax
   34436:	c7 40 48 53 00 00 00 	movl   $0x53,0x48(%eax)
   3443d:	8b 45 e8             	mov    -0x18(%ebp),%eax
   34440:	83 c0 54             	add    $0x54,%eax
   34443:	c7 44 24 10 fa c0 00 	movl   $0xc0fa,0x10(%esp)
   3444a:	00 
   3444b:	c7 44 24 0c ff ff 00 	movl   $0xffff,0xc(%esp)
   34452:	00 
   34453:	c7 44 24 08 00 00 00 	movl   $0x0,0x8(%esp)
   3445a:	00 
   3445b:	c7 44 24 04 00 00 00 	movl   $0x0,0x4(%esp)
   34462:	00 
   34463:	89 04 24             	mov    %eax,(%esp)
   34466:	e8 61 c1 ff ff       	call   305cc <setLDTEntry>
   3446b:	8b 45 e8             	mov    -0x18(%ebp),%eax
   3446e:	83 c0 54             	add    $0x54,%eax
   34471:	c7 44 24 10 f2 c0 00 	movl   $0xc0f2,0x10(%esp)
   34478:	00 
   34479:	c7 44 24 0c ff ff 00 	movl   $0xffff,0xc(%esp)
   34480:	00 
   34481:	c7 44 24 08 00 00 00 	movl   $0x0,0x8(%esp)
   34488:	00 
   34489:	c7 44 24 04 03 00 00 	movl   $0x3,0x4(%esp)
   34490:	00 
   34491:	89 04 24             	mov    %eax,(%esp)
   34494:	e8 33 c1 ff ff       	call   305cc <setLDTEntry>
   34499:	8b 45 e8             	mov    -0x18(%ebp),%eax
   3449c:	83 c0 54             	add    $0x54,%eax
   3449f:	c7 44 24 10 f2 c0 00 	movl   $0xc0f2,0x10(%esp)
   344a6:	00 
   344a7:	c7 44 24 0c ff ff 00 	movl   $0xffff,0xc(%esp)
   344ae:	00 
   344af:	c7 44 24 08 00 00 00 	movl   $0x0,0x8(%esp)
   344b6:	00 
   344b7:	c7 44 24 04 02 00 00 	movl   $0x2,0x4(%esp)
   344be:	00 
   344bf:	89 04 24             	mov    %eax,(%esp)
   344c2:	e8 05 c1 ff ff       	call   305cc <setLDTEntry>
   344c7:	8b 45 e8             	mov    -0x18(%ebp),%eax
   344ca:	05 d4 00 00 00       	add    $0xd4,%eax
   344cf:	8d 90 ff 27 00 00    	lea    0x27ff(%eax),%edx
   344d5:	8b 45 e8             	mov    -0x18(%ebp),%eax
   344d8:	83 c0 54             	add    $0x54,%eax
   344db:	c7 44 24 10 f2 40 00 	movl   $0x40f2,0x10(%esp)
   344e2:	00 
   344e3:	89 54 24 0c          	mov    %edx,0xc(%esp)
   344e7:	c7 44 24 08 00 00 00 	movl   $0x0,0x8(%esp)
   344ee:	00 
   344ef:	c7 44 24 04 01 00 00 	movl   $0x1,0x4(%esp)
   344f6:	00 
   344f7:	89 04 24             	mov    %eax,(%esp)
   344fa:	e8 cd c0 ff ff       	call   305cc <setLDTEntry>
   344ff:	8b 45 ec             	mov    -0x14(%ebp),%eax
   34502:	83 c0 54             	add    $0x54,%eax
   34505:	c7 44 24 10 fa c0 00 	movl   $0xc0fa,0x10(%esp)
   3450c:	00 
   3450d:	c7 44 24 0c ff ff 00 	movl   $0xffff,0xc(%esp)
   34514:	00 
   34515:	c7 44 24 08 00 00 00 	movl   $0x0,0x8(%esp)
   3451c:	00 
   3451d:	c7 44 24 04 00 00 00 	movl   $0x0,0x4(%esp)
   34524:	00 
   34525:	89 04 24             	mov    %eax,(%esp)
   34528:	e8 9f c0 ff ff       	call   305cc <setLDTEntry>
   3452d:	8b 45 ec             	mov    -0x14(%ebp),%eax
   34530:	83 c0 54             	add    $0x54,%eax
   34533:	c7 44 24 10 f2 c0 00 	movl   $0xc0f2,0x10(%esp)
   3453a:	00 
   3453b:	c7 44 24 0c ff ff 00 	movl   $0xffff,0xc(%esp)
   34542:	00 
   34543:	c7 44 24 08 00 00 00 	movl   $0x0,0x8(%esp)
   3454a:	00 
   3454b:	c7 44 24 04 01 00 00 	movl   $0x1,0x4(%esp)
   34552:	00 
   34553:	89 04 24             	mov    %eax,(%esp)
   34556:	e8 71 c0 ff ff       	call   305cc <setLDTEntry>
   3455b:	8b 45 ec             	mov    -0x14(%ebp),%eax
   3455e:	83 c0 54             	add    $0x54,%eax
   34561:	c7 44 24 10 f2 c0 00 	movl   $0xc0f2,0x10(%esp)
   34568:	00 
   34569:	c7 44 24 0c ff ff 00 	movl   $0xffff,0xc(%esp)
   34570:	00 
   34571:	c7 44 24 08 00 00 00 	movl   $0x0,0x8(%esp)
   34578:	00 
   34579:	c7 44 24 04 02 00 00 	movl   $0x2,0x4(%esp)
   34580:	00 
   34581:	89 04 24             	mov    %eax,(%esp)
   34584:	e8 43 c0 ff ff       	call   305cc <setLDTEntry>
   34589:	8b 45 ec             	mov    -0x14(%ebp),%eax
   3458c:	05 d4 00 00 00       	add    $0xd4,%eax
   34591:	8d 90 ff 27 00 00    	lea    0x27ff(%eax),%edx
   34597:	8b 45 ec             	mov    -0x14(%ebp),%eax
   3459a:	83 c0 54             	add    $0x54,%eax
   3459d:	c7 44 24 10 f2 40 00 	movl   $0x40f2,0x10(%esp)
   345a4:	00 
   345a5:	89 54 24 0c          	mov    %edx,0xc(%esp)
   345a9:	c7 44 24 08 00 00 00 	movl   $0x0,0x8(%esp)
   345b0:	00 
   345b1:	c7 44 24 04 03 00 00 	movl   $0x3,0x4(%esp)
   345b8:	00 
   345b9:	89 04 24             	mov    %eax,(%esp)
   345bc:	e8 0b c0 ff ff       	call   305cc <setLDTEntry>
   345c1:	8b 45 f0             	mov    -0x10(%ebp),%eax
   345c4:	83 c0 54             	add    $0x54,%eax
   345c7:	c7 44 24 10 fa c0 00 	movl   $0xc0fa,0x10(%esp)
   345ce:	00 
   345cf:	c7 44 24 0c ff ff 00 	movl   $0xffff,0xc(%esp)
   345d6:	00 
   345d7:	c7 44 24 08 00 00 00 	movl   $0x0,0x8(%esp)
   345de:	00 
   345df:	c7 44 24 04 00 00 00 	movl   $0x0,0x4(%esp)
   345e6:	00 
   345e7:	89 04 24             	mov    %eax,(%esp)
   345ea:	e8 dd bf ff ff       	call   305cc <setLDTEntry>
   345ef:	8b 45 f0             	mov    -0x10(%ebp),%eax
   345f2:	83 c0 54             	add    $0x54,%eax
   345f5:	c7 44 24 10 f2 c0 00 	movl   $0xc0f2,0x10(%esp)
   345fc:	00 
   345fd:	c7 44 24 0c ff ff 00 	movl   $0xffff,0xc(%esp)
   34604:	00 
   34605:	c7 44 24 08 00 00 00 	movl   $0x0,0x8(%esp)
   3460c:	00 
   3460d:	c7 44 24 04 01 00 00 	movl   $0x1,0x4(%esp)
   34614:	00 
   34615:	89 04 24             	mov    %eax,(%esp)
   34618:	e8 af bf ff ff       	call   305cc <setLDTEntry>
   3461d:	8b 45 f0             	mov    -0x10(%ebp),%eax
   34620:	83 c0 54             	add    $0x54,%eax
   34623:	c7 44 24 10 f2 c0 00 	movl   $0xc0f2,0x10(%esp)
   3462a:	00 
   3462b:	c7 44 24 0c ff ff 00 	movl   $0xffff,0xc(%esp)
   34632:	00 
   34633:	c7 44 24 08 00 00 00 	movl   $0x0,0x8(%esp)
   3463a:	00 
   3463b:	c7 44 24 04 02 00 00 	movl   $0x2,0x4(%esp)
   34642:	00 
   34643:	89 04 24             	mov    %eax,(%esp)
   34646:	e8 81 bf ff ff       	call   305cc <setLDTEntry>
   3464b:	8b 45 f0             	mov    -0x10(%ebp),%eax
   3464e:	05 d4 00 00 00       	add    $0xd4,%eax
   34653:	8d 90 ff 27 00 00    	lea    0x27ff(%eax),%edx
   34659:	8b 45 f0             	mov    -0x10(%ebp),%eax
   3465c:	83 c0 54             	add    $0x54,%eax
   3465f:	c7 44 24 10 f2 40 00 	movl   $0x40f2,0x10(%esp)
   34666:	00 
   34667:	89 54 24 0c          	mov    %edx,0xc(%esp)
   3466b:	c7 44 24 08 00 00 00 	movl   $0x0,0x8(%esp)
   34672:	00 
   34673:	c7 44 24 04 03 00 00 	movl   $0x3,0x4(%esp)
   3467a:	00 
   3467b:	89 04 24             	mov    %eax,(%esp)
   3467e:	e8 49 bf ff ff       	call   305cc <setLDTEntry>
   34683:	c9                   	leave  
   34684:	c3                   	ret    
