
kernel/kernel.bin:     file format elf32-i386

Disassembly of section .text:

00030500 <_start>:
   30500:	bc 20 76 03 00       	mov    $0x37620,%esp
   30505:	0f 01 05 e0 81 03 00 	sgdtl  0x381e0
   3050c:	e8 57 1e 00 00       	call   32368 <init_Gdt_Idt>
   30511:	0f 01 15 e0 81 03 00 	lgdtl  0x381e0
   30518:	0f 01 1d e0 7c 03 00 	lidtl  0x37ce0
   3051f:	ea 26 05 03 00 08 00 	ljmp   $0x8,$0x30526

00030526 <csinit>:
   30526:	e8 3d 1f 00 00       	call   32468 <sys_init>
   3052b:	66 b8 20 00          	mov    $0x20,%ax
   3052f:	0f 00 d8             	ltr    %ax
   30532:	31 c0                	xor    %eax,%eax
   30534:	66 8c d0             	movw   %ss,%ax
   30537:	a3 28 81 03 00       	mov    %eax,0x38128
   3053c:	c7 05 00 81 03 00 15 	movl   $0x15,0x38100
   30543:	00 00 00 
   30546:	ff 35 00 81 03 00    	pushl  0x38100
   3054c:	e8 7b 00 00 00       	call   305cc <setTssEspReady>
   30551:	81 c4 04 00 00 00    	add    $0x4,%esp
   30557:	66 b8 43 00          	mov    $0x43,%ax
   3055b:	0f 00 d0             	lldt   %ax
   3055e:	c7 05 84 f1 09 00 00 	movl   $0x0,0x9f184
   30565:	00 00 00 
   30568:	b6 0f                	mov    $0xf,%dh
   3056a:	b2 41                	mov    $0x41,%dl
   3056c:	65 66 89 15 1a 02 00 	mov    %dx,%gs:0x21a
   30573:	00 
   30574:	65 66 89 15 1c 02 00 	mov    %dx,%gs:0x21c
   3057b:	00 
   3057c:	65 66 89 15 1e 02 00 	mov    %dx,%gs:0x21e
   30583:	00 
   30584:	65 66 89 15 20 02 00 	mov    %dx,%gs:0x220
   3058b:	00 
   3058c:	65 66 89 15 26 02 00 	mov    %dx,%gs:0x226
   30593:	00 
   30594:	c7 05 e8 7c 03 00 00 	movl   $0x0,0x37ce8
   3059b:	00 00 00 
   3059e:	b8 0f 00 00 00       	mov    $0xf,%eax
   305a3:	50                   	push   %eax
   305a4:	b8 e7 03 00 00       	mov    $0x3e7,%eax
   305a9:	50                   	push   %eax
   305aa:	b8 07 00 00 00       	mov    $0x7,%eax
   305af:	50                   	push   %eax
   305b0:	b8 a0 42 03 00       	mov    $0x342a0,%eax
   305b5:	50                   	push   %eax
   305b6:	66 b8 1f 00          	mov    $0x1f,%ax
   305ba:	8e d8                	movl   %eax,%ds
   305bc:	66 b8 17 00          	mov    $0x17,%ax
   305c0:	8e c0                	movl   %eax,%es
   305c2:	fb                   	sti    
   305c3:	cb                   	lret   
   305c4:	e9 fb ff ff ff       	jmp    305c4 <csinit+0x9e>
   305c9:	90                   	nop    
   305ca:	90                   	nop    
   305cb:	90                   	nop    

000305cc <setTssEspReady>:
   305cc:	55                   	push   %ebp
   305cd:	89 e5                	mov    %esp,%ebp
   305cf:	8b 45 08             	mov    0x8(%ebp),%eax
   305d2:	69 d0 fc 28 00 00    	imul   $0x28fc,%eax,%edx
   305d8:	a1 2c 4b 03 00       	mov    0x34b2c,%eax
   305dd:	01 c2                	add    %eax,%edx
   305df:	b8 20 8a 03 00       	mov    $0x38a20,%eax
   305e4:	2d fc 28 00 00       	sub    $0x28fc,%eax
   305e9:	8d 04 02             	lea    (%edx,%eax,1),%eax
   305ec:	a3 24 81 03 00       	mov    %eax,0x38124
   305f1:	5d                   	pop    %ebp
   305f2:	c3                   	ret    

000305f3 <getProRegTop>:
   305f3:	55                   	push   %ebp
   305f4:	89 e5                	mov    %esp,%ebp
   305f6:	8b 45 08             	mov    0x8(%ebp),%eax
   305f9:	69 d0 fc 28 00 00    	imul   $0x28fc,%eax,%edx
   305ff:	a1 30 4b 03 00       	mov    0x34b30,%eax
   30604:	01 c2                	add    %eax,%edx
   30606:	b8 20 8a 03 00       	mov    $0x38a20,%eax
   3060b:	2d fc 28 00 00       	sub    $0x28fc,%eax
   30610:	8d 04 02             	lea    (%edx,%eax,1),%eax
   30613:	a3 20 78 03 00       	mov    %eax,0x37820
   30618:	5d                   	pop    %ebp
   30619:	c3                   	ret    
   3061a:	90                   	nop    
   3061b:	90                   	nop    
   3061c:	90                   	nop    
   3061d:	90                   	nop    
   3061e:	90                   	nop    
   3061f:	90                   	nop    

00030620 <myprintf>:
   30620:	55                   	push   %ebp
   30621:	89 e5                	mov    %esp,%ebp
   30623:	81 ec 40 00 00 00    	sub    $0x40,%esp
   30629:	8b 45 08             	mov    0x8(%ebp),%eax
   3062c:	50                   	push   %eax
   3062d:	89 e8                	mov    %ebp,%eax
   3062f:	05 0c 00 00 00       	add    $0xc,%eax
   30634:	50                   	push   %eax
   30635:	89 e8                	mov    %ebp,%eax
   30637:	2d 40 00 00 00       	sub    $0x40,%eax
   3063c:	50                   	push   %eax
   3063d:	e8 39 1a 00 00       	call   3207b <vsprintf>
   30642:	81 c4 0c 00 00 00    	add    $0xc,%esp
   30648:	50                   	push   %eax
   30649:	89 e8                	mov    %ebp,%eax
   3064b:	2d 40 00 00 00       	sub    $0x40,%eax
   30650:	50                   	push   %eax
   30651:	e8 f4 12 00 00       	call   3194a <printx>
   30656:	81 c4 08 00 00 00    	add    $0x8,%esp
   3065c:	81 c4 40 00 00 00    	add    $0x40,%esp
   30662:	89 ec                	mov    %ebp,%esp
   30664:	5d                   	pop    %ebp
   30665:	c3                   	ret    
   30666:	90                   	nop    
   30667:	90                   	nop    

00030668 <msg_send>:
   30668:	55                   	push   %ebp
   30669:	89 e5                	mov    %esp,%ebp
   3066b:	53                   	push   %ebx
   3066c:	83 ec 24             	sub    $0x24,%esp
   3066f:	83 7d 08 00          	cmpl   $0x0,0x8(%ebp)
   30673:	74 08                	je     3067d <msg_send+0x15>
   30675:	83 7d 08 00          	cmpl   $0x0,0x8(%ebp)
   30679:	78 02                	js     3067d <msg_send+0x15>
   3067b:	eb 24                	jmp    306a1 <msg_send+0x39>
   3067d:	c7 44 24 0c 1b 00 00 	movl   $0x1b,0xc(%esp)
   30684:	00 
   30685:	c7 44 24 08 c0 47 03 	movl   $0x347c0,0x8(%esp)
   3068c:	00 
   3068d:	c7 44 24 04 c0 47 03 	movl   $0x347c0,0x4(%esp)
   30694:	00 
   30695:	c7 04 24 cd 47 03 00 	movl   $0x347cd,(%esp)
   3069c:	e8 48 25 00 00       	call   32be9 <assertion_failure_kernel>
   306a1:	83 7d 0c 00          	cmpl   $0x0,0xc(%ebp)
   306a5:	74 08                	je     306af <msg_send+0x47>
   306a7:	83 7d 0c 00          	cmpl   $0x0,0xc(%ebp)
   306ab:	78 02                	js     306af <msg_send+0x47>
   306ad:	eb 24                	jmp    306d3 <msg_send+0x6b>
   306af:	c7 44 24 0c 1c 00 00 	movl   $0x1c,0xc(%esp)
   306b6:	00 
   306b7:	c7 44 24 08 c0 47 03 	movl   $0x347c0,0x8(%esp)
   306be:	00 
   306bf:	c7 44 24 04 c0 47 03 	movl   $0x347c0,0x4(%esp)
   306c6:	00 
   306c7:	c7 04 24 e6 47 03 00 	movl   $0x347e6,(%esp)
   306ce:	e8 16 25 00 00       	call   32be9 <assertion_failure_kernel>
   306d3:	8b 45 08             	mov    0x8(%ebp),%eax
   306d6:	3b 45 0c             	cmp    0xc(%ebp),%eax
   306d9:	75 24                	jne    306ff <msg_send+0x97>
   306db:	c7 44 24 0c 1d 00 00 	movl   $0x1d,0xc(%esp)
   306e2:	00 
   306e3:	c7 44 24 08 c0 47 03 	movl   $0x347c0,0x8(%esp)
   306ea:	00 
   306eb:	c7 44 24 04 c0 47 03 	movl   $0x347c0,0x4(%esp)
   306f2:	00 
   306f3:	c7 04 24 01 48 03 00 	movl   $0x34801,(%esp)
   306fa:	e8 ea 24 00 00       	call   32be9 <assertion_failure_kernel>
   306ff:	83 7d 10 00          	cmpl   $0x0,0x10(%ebp)
   30703:	75 24                	jne    30729 <msg_send+0xc1>
   30705:	c7 44 24 0c 1e 00 00 	movl   $0x1e,0xc(%esp)
   3070c:	00 
   3070d:	c7 44 24 08 c0 47 03 	movl   $0x347c0,0x8(%esp)
   30714:	00 
   30715:	c7 44 24 04 c0 47 03 	movl   $0x347c0,0x4(%esp)
   3071c:	00 
   3071d:	c7 04 24 0b 48 03 00 	movl   $0x3480b,(%esp)
   30724:	e8 c0 24 00 00       	call   32be9 <assertion_failure_kernel>
   30729:	8b 45 08             	mov    0x8(%ebp),%eax
   3072c:	89 04 24             	mov    %eax,(%esp)
   3072f:	e8 81 16 00 00       	call   31db5 <pid2proc>
   30734:	89 45 f0             	mov    %eax,0xfffffff0(%ebp)
   30737:	8b 45 0c             	mov    0xc(%ebp),%eax
   3073a:	89 04 24             	mov    %eax,(%esp)
   3073d:	e8 73 16 00 00       	call   31db5 <pid2proc>
   30742:	89 45 f4             	mov    %eax,0xfffffff4(%ebp)
   30745:	8b 45 f4             	mov    0xfffffff4(%ebp),%eax
   30748:	8b 80 e0 28 00 00    	mov    0x28e0(%eax),%eax
   3074e:	83 e0 04             	and    $0x4,%eax
   30751:	85 c0                	test   %eax,%eax
   30753:	0f 84 0e 01 00 00    	je     30867 <msg_send+0x1ff>
   30759:	8b 45 f4             	mov    0xfffffff4(%ebp),%eax
   3075c:	8b 90 f4 28 00 00    	mov    0x28f4(%eax),%edx
   30762:	8b 45 08             	mov    0x8(%ebp),%eax
   30765:	39 c2                	cmp    %eax,%edx
   30767:	74 14                	je     3077d <msg_send+0x115>
   30769:	8b 45 f4             	mov    0xfffffff4(%ebp),%eax
   3076c:	8b 80 f4 28 00 00    	mov    0x28f4(%eax),%eax
   30772:	3d 0f 27 00 00       	cmp    $0x270f,%eax
   30777:	0f 85 ea 00 00 00    	jne    30867 <msg_send+0x1ff>
   3077d:	8b 45 f4             	mov    0xfffffff4(%ebp),%eax
   30780:	8b 80 e8 28 00 00    	mov    0x28e8(%eax),%eax
   30786:	85 c0                	test   %eax,%eax
   30788:	75 24                	jne    307ae <msg_send+0x146>
   3078a:	c7 44 24 0c 2e 00 00 	movl   $0x2e,0xc(%esp)
   30791:	00 
   30792:	c7 44 24 08 c0 47 03 	movl   $0x347c0,0x8(%esp)
   30799:	00 
   3079a:	c7 44 24 04 c0 47 03 	movl   $0x347c0,0x4(%esp)
   307a1:	00 
   307a2:	c7 04 24 0d 48 03 00 	movl   $0x3480d,(%esp)
   307a9:	e8 3b 24 00 00       	call   32be9 <assertion_failure_kernel>
   307ae:	8b 45 10             	mov    0x10(%ebp),%eax
   307b1:	89 44 24 04          	mov    %eax,0x4(%esp)
   307b5:	8b 45 08             	mov    0x8(%ebp),%eax
   307b8:	89 04 24             	mov    %eax,(%esp)
   307bb:	e8 47 17 00 00       	call   31f07 <va2la>
   307c0:	89 c3                	mov    %eax,%ebx
   307c2:	8b 45 f4             	mov    0xfffffff4(%ebp),%eax
   307c5:	8b 80 e8 28 00 00    	mov    0x28e8(%eax),%eax
   307cb:	89 44 24 04          	mov    %eax,0x4(%esp)
   307cf:	8b 45 0c             	mov    0xc(%ebp),%eax
   307d2:	89 04 24             	mov    %eax,(%esp)
   307d5:	e8 2d 17 00 00       	call   31f07 <va2la>
   307da:	c7 44 24 08 30 00 00 	movl   $0x30,0x8(%esp)
   307e1:	00 
   307e2:	89 5c 24 04          	mov    %ebx,0x4(%esp)
   307e6:	89 04 24             	mov    %eax,(%esp)
   307e9:	e8 9a 22 00 00       	call   32a88 <memcpy>
   307ee:	8b 45 f4             	mov    0xfffffff4(%ebp),%eax
   307f1:	c7 80 e8 28 00 00 00 	movl   $0x0,0x28e8(%eax)
   307f8:	00 00 00 
   307fb:	8b 45 f4             	mov    0xfffffff4(%ebp),%eax
   307fe:	8b 80 e0 28 00 00    	mov    0x28e0(%eax),%eax
   30804:	89 c2                	mov    %eax,%edx
   30806:	83 e2 fb             	and    $0xfffffffb,%edx
   30809:	8b 45 f4             	mov    0xfffffff4(%ebp),%eax
   3080c:	89 90 e0 28 00 00    	mov    %edx,0x28e0(%eax)
   30812:	8b 45 f4             	mov    0xfffffff4(%ebp),%eax
   30815:	c7 80 f4 28 00 00 8c 	movl   $0x8c,0x28f4(%eax)
   3081c:	00 00 00 
   3081f:	a1 24 78 03 00       	mov    0x37824,%eax
   30824:	83 f8 01             	cmp    $0x1,%eax
   30827:	75 2e                	jne    30857 <msg_send+0x1ef>
   30829:	a1 00 50 03 00       	mov    0x35000,%eax
   3082e:	39 45 08             	cmp    %eax,0x8(%ebp)
   30831:	74 0a                	je     3083d <msg_send+0x1d5>
   30833:	a1 00 50 03 00       	mov    0x35000,%eax
   30838:	39 45 0c             	cmp    %eax,0xc(%ebp)
   3083b:	75 1a                	jne    30857 <msg_send+0x1ef>
   3083d:	8b 45 0c             	mov    0xc(%ebp),%eax
   30840:	89 44 24 08          	mov    %eax,0x8(%esp)
   30844:	8b 45 08             	mov    0x8(%ebp),%eax
   30847:	89 44 24 04          	mov    %eax,0x4(%esp)
   3084b:	c7 04 24 1b 48 03 00 	movl   $0x3481b,(%esp)
   30852:	e8 35 19 00 00       	call   3218c <printf_kernel>
   30857:	8b 45 f4             	mov    0xfffffff4(%ebp),%eax
   3085a:	89 04 24             	mov    %eax,(%esp)
   3085d:	e8 b1 15 00 00       	call   31e13 <unblock>
   30862:	e9 20 01 00 00       	jmp    30987 <msg_send+0x31f>
   30867:	a1 24 78 03 00       	mov    0x37824,%eax
   3086c:	83 f8 01             	cmp    $0x1,%eax
   3086f:	75 4e                	jne    308bf <msg_send+0x257>
   30871:	a1 00 50 03 00       	mov    0x35000,%eax
   30876:	39 45 08             	cmp    %eax,0x8(%ebp)
   30879:	74 0a                	je     30885 <msg_send+0x21d>
   3087b:	a1 00 50 03 00       	mov    0x35000,%eax
   30880:	39 45 0c             	cmp    %eax,0xc(%ebp)
   30883:	75 3a                	jne    308bf <msg_send+0x257>
   30885:	8b 45 f4             	mov    0xfffffff4(%ebp),%eax
   30888:	8b 80 f4 28 00 00    	mov    0x28f4(%eax),%eax
   3088e:	89 44 24 08          	mov    %eax,0x8(%esp)
   30892:	8b 45 0c             	mov    0xc(%ebp),%eax
   30895:	89 44 24 04          	mov    %eax,0x4(%esp)
   30899:	c7 04 24 33 48 03 00 	movl   $0x34833,(%esp)
   308a0:	e8 e7 18 00 00       	call   3218c <printf_kernel>
   308a5:	8b 45 0c             	mov    0xc(%ebp),%eax
   308a8:	89 44 24 08          	mov    %eax,0x8(%esp)
   308ac:	8b 45 08             	mov    0x8(%ebp),%eax
   308af:	89 44 24 04          	mov    %eax,0x4(%esp)
   308b3:	c7 04 24 47 48 03 00 	movl   $0x34847,(%esp)
   308ba:	e8 cd 18 00 00       	call   3218c <printf_kernel>
   308bf:	8b 45 f4             	mov    0xfffffff4(%ebp),%eax
   308c2:	8b 80 f0 28 00 00    	mov    0x28f0(%eax),%eax
   308c8:	89 45 f8             	mov    %eax,0xfffffff8(%ebp)
   308cb:	83 7d f8 00          	cmpl   $0x0,0xfffffff8(%ebp)
   308cf:	75 1a                	jne    308eb <msg_send+0x283>
   308d1:	8b 55 f4             	mov    0xfffffff4(%ebp),%edx
   308d4:	8b 45 f0             	mov    0xfffffff0(%ebp),%eax
   308d7:	89 82 f0 28 00 00    	mov    %eax,0x28f0(%edx)
   308dd:	eb 25                	jmp    30904 <msg_send+0x29c>
   308df:	8b 45 f8             	mov    0xfffffff8(%ebp),%eax
   308e2:	8b 80 ec 28 00 00    	mov    0x28ec(%eax),%eax
   308e8:	89 45 f8             	mov    %eax,0xfffffff8(%ebp)
   308eb:	8b 45 f8             	mov    0xfffffff8(%ebp),%eax
   308ee:	8b 80 ec 28 00 00    	mov    0x28ec(%eax),%eax
   308f4:	85 c0                	test   %eax,%eax
   308f6:	75 e7                	jne    308df <msg_send+0x277>
   308f8:	8b 55 f8             	mov    0xfffffff8(%ebp),%edx
   308fb:	8b 45 f0             	mov    0xfffffff0(%ebp),%eax
   308fe:	89 82 ec 28 00 00    	mov    %eax,0x28ec(%edx)
   30904:	8b 55 f0             	mov    0xfffffff0(%ebp),%edx
   30907:	8b 45 10             	mov    0x10(%ebp),%eax
   3090a:	89 82 e8 28 00 00    	mov    %eax,0x28e8(%edx)
   30910:	8b 55 10             	mov    0x10(%ebp),%edx
   30913:	8b 45 08             	mov    0x8(%ebp),%eax
   30916:	89 02                	mov    %eax,(%edx)
   30918:	8b 55 0c             	mov    0xc(%ebp),%edx
   3091b:	8b 45 f0             	mov    0xfffffff0(%ebp),%eax
   3091e:	89 90 e4 28 00 00    	mov    %edx,0x28e4(%eax)
   30924:	8b 45 f0             	mov    0xfffffff0(%ebp),%eax
   30927:	c7 80 ec 28 00 00 00 	movl   $0x0,0x28ec(%eax)
   3092e:	00 00 00 
   30931:	8b 45 f0             	mov    0xfffffff0(%ebp),%eax
   30934:	8b 80 e0 28 00 00    	mov    0x28e0(%eax),%eax
   3093a:	89 c2                	mov    %eax,%edx
   3093c:	83 ca 02             	or     $0x2,%edx
   3093f:	8b 45 f0             	mov    0xfffffff0(%ebp),%eax
   30942:	89 90 e0 28 00 00    	mov    %edx,0x28e0(%eax)
   30948:	8b 45 f0             	mov    0xfffffff0(%ebp),%eax
   3094b:	8b 80 e0 28 00 00    	mov    0x28e0(%eax),%eax
   30951:	83 e0 02             	and    $0x2,%eax
   30954:	85 c0                	test   %eax,%eax
   30956:	75 24                	jne    3097c <msg_send+0x314>
   30958:	c7 44 24 0c 56 00 00 	movl   $0x56,0xc(%esp)
   3095f:	00 
   30960:	c7 44 24 08 c0 47 03 	movl   $0x347c0,0x8(%esp)
   30967:	00 
   30968:	c7 44 24 04 c0 47 03 	movl   $0x347c0,0x4(%esp)
   3096f:	00 
   30970:	c7 04 24 64 48 03 00 	movl   $0x34864,(%esp)
   30977:	e8 6d 22 00 00       	call   32be9 <assertion_failure_kernel>
   3097c:	8b 45 f0             	mov    0xfffffff0(%ebp),%eax
   3097f:	89 04 24             	mov    %eax,(%esp)
   30982:	e8 00 15 00 00       	call   31e87 <block>
   30987:	83 c4 24             	add    $0x24,%esp
   3098a:	5b                   	pop    %ebx
   3098b:	5d                   	pop    %ebp
   3098c:	c3                   	ret    

0003098d <msg_receive>:
   3098d:	55                   	push   %ebp
   3098e:	89 e5                	mov    %esp,%ebp
   30990:	53                   	push   %ebx
   30991:	83 ec 24             	sub    $0x24,%esp
   30994:	8b 45 08             	mov    0x8(%ebp),%eax
   30997:	3b 45 0c             	cmp    0xc(%ebp),%eax
   3099a:	75 24                	jne    309c0 <msg_receive+0x33>
   3099c:	c7 44 24 0c 6c 00 00 	movl   $0x6c,0xc(%esp)
   309a3:	00 
   309a4:	c7 44 24 08 c0 47 03 	movl   $0x347c0,0x8(%esp)
   309ab:	00 
   309ac:	c7 44 24 04 c0 47 03 	movl   $0x347c0,0x4(%esp)
   309b3:	00 
   309b4:	c7 04 24 84 48 03 00 	movl   $0x34884,(%esp)
   309bb:	e8 29 22 00 00       	call   32be9 <assertion_failure_kernel>
   309c0:	83 7d 08 00          	cmpl   $0x0,0x8(%ebp)
   309c4:	7e 08                	jle    309ce <msg_receive+0x41>
   309c6:	83 7d 08 00          	cmpl   $0x0,0x8(%ebp)
   309ca:	78 02                	js     309ce <msg_receive+0x41>
   309cc:	eb 24                	jmp    309f2 <msg_receive+0x65>
   309ce:	c7 44 24 0c 6d 00 00 	movl   $0x6d,0xc(%esp)
   309d5:	00 
   309d6:	c7 44 24 08 c0 47 03 	movl   $0x347c0,0x8(%esp)
   309dd:	00 
   309de:	c7 44 24 04 c0 47 03 	movl   $0x347c0,0x4(%esp)
   309e5:	00 
   309e6:	c7 04 24 8e 48 03 00 	movl   $0x3488e,(%esp)
   309ed:	e8 f7 21 00 00       	call   32be9 <assertion_failure_kernel>
   309f2:	83 7d 0c 00          	cmpl   $0x0,0xc(%ebp)
   309f6:	78 08                	js     30a00 <msg_receive+0x73>
   309f8:	83 7d 0c 00          	cmpl   $0x0,0xc(%ebp)
   309fc:	78 02                	js     30a00 <msg_receive+0x73>
   309fe:	eb 24                	jmp    30a24 <msg_receive+0x97>
   30a00:	c7 44 24 0c 6e 00 00 	movl   $0x6e,0xc(%esp)
   30a07:	00 
   30a08:	c7 44 24 08 c0 47 03 	movl   $0x347c0,0x8(%esp)
   30a0f:	00 
   30a10:	c7 44 24 04 c0 47 03 	movl   $0x347c0,0x4(%esp)
   30a17:	00 
   30a18:	c7 04 24 a8 48 03 00 	movl   $0x348a8,(%esp)
   30a1f:	e8 c5 21 00 00       	call   32be9 <assertion_failure_kernel>
   30a24:	83 7d 10 00          	cmpl   $0x0,0x10(%ebp)
   30a28:	75 24                	jne    30a4e <msg_receive+0xc1>
   30a2a:	c7 44 24 0c 6f 00 00 	movl   $0x6f,0xc(%esp)
   30a31:	00 
   30a32:	c7 44 24 08 c0 47 03 	movl   $0x347c0,0x8(%esp)
   30a39:	00 
   30a3a:	c7 44 24 04 c0 47 03 	movl   $0x347c0,0x4(%esp)
   30a41:	00 
   30a42:	c7 04 24 0b 48 03 00 	movl   $0x3480b,(%esp)
   30a49:	e8 9b 21 00 00       	call   32be9 <assertion_failure_kernel>
   30a4e:	c7 45 f0 00 00 00 00 	movl   $0x0,0xfffffff0(%ebp)
   30a55:	8b 45 08             	mov    0x8(%ebp),%eax
   30a58:	89 04 24             	mov    %eax,(%esp)
   30a5b:	e8 55 13 00 00       	call   31db5 <pid2proc>
   30a60:	89 45 f4             	mov    %eax,0xfffffff4(%ebp)
   30a63:	c7 45 f8 00 00 00 00 	movl   $0x0,0xfffffff8(%ebp)
   30a6a:	83 7d 0c 00          	cmpl   $0x0,0xc(%ebp)
   30a6e:	75 20                	jne    30a90 <msg_receive+0x103>
   30a70:	8b 45 f4             	mov    0xfffffff4(%ebp),%eax
   30a73:	8b 80 f8 28 00 00    	mov    0x28f8(%eax),%eax
   30a79:	83 f8 01             	cmp    $0x1,%eax
   30a7c:	75 12                	jne    30a90 <msg_receive+0x103>
   30a7e:	8b 45 f4             	mov    0xfffffff4(%ebp),%eax
   30a81:	c7 80 f8 28 00 00 00 	movl   $0x0,0x28f8(%eax)
   30a88:	00 00 00 
   30a8b:	e9 33 03 00 00       	jmp    30dc3 <msg_receive+0x436>
   30a90:	81 7d 0c 0f 27 00 00 	cmpl   $0x270f,0xc(%ebp)
   30a97:	0f 85 10 01 00 00    	jne    30bad <msg_receive+0x220>
   30a9d:	a1 24 78 03 00       	mov    0x37824,%eax
   30aa2:	83 f8 01             	cmp    $0x1,%eax
   30aa5:	75 20                	jne    30ac7 <msg_receive+0x13a>
   30aa7:	a1 00 50 03 00       	mov    0x35000,%eax
   30aac:	39 45 08             	cmp    %eax,0x8(%ebp)
   30aaf:	74 0a                	je     30abb <msg_receive+0x12e>
   30ab1:	a1 00 50 03 00       	mov    0x35000,%eax
   30ab6:	39 45 0c             	cmp    %eax,0xc(%ebp)
   30ab9:	75 0c                	jne    30ac7 <msg_receive+0x13a>
   30abb:	c7 04 24 c1 48 03 00 	movl   $0x348c1,(%esp)
   30ac2:	e8 c5 16 00 00       	call   3218c <printf_kernel>
   30ac7:	8b 45 f4             	mov    0xfffffff4(%ebp),%eax
   30aca:	8b 80 f0 28 00 00    	mov    0x28f0(%eax),%eax
   30ad0:	85 c0                	test   %eax,%eax
   30ad2:	0f 84 e3 00 00 00    	je     30bbb <msg_receive+0x22e>
   30ad8:	8b 45 f4             	mov    0xfffffff4(%ebp),%eax
   30adb:	8b 80 f0 28 00 00    	mov    0x28f0(%eax),%eax
   30ae1:	89 45 f0             	mov    %eax,0xfffffff0(%ebp)
   30ae4:	83 7d f0 00          	cmpl   $0x0,0xfffffff0(%ebp)
   30ae8:	75 24                	jne    30b0e <msg_receive+0x181>
   30aea:	c7 44 24 0c 7f 00 00 	movl   $0x7f,0xc(%esp)
   30af1:	00 
   30af2:	c7 44 24 08 c0 47 03 	movl   $0x347c0,0x8(%esp)
   30af9:	00 
   30afa:	c7 44 24 04 c0 47 03 	movl   $0x347c0,0x4(%esp)
   30b01:	00 
   30b02:	c7 04 24 ce 48 03 00 	movl   $0x348ce,(%esp)
   30b09:	e8 db 20 00 00       	call   32be9 <assertion_failure_kernel>
   30b0e:	8b 45 f0             	mov    0xfffffff0(%ebp),%eax
   30b11:	8b 80 e0 28 00 00    	mov    0x28e0(%eax),%eax
   30b17:	83 e0 02             	and    $0x2,%eax
   30b1a:	85 c0                	test   %eax,%eax
   30b1c:	75 24                	jne    30b42 <msg_receive+0x1b5>
   30b1e:	c7 44 24 0c 80 00 00 	movl   $0x80,0xc(%esp)
   30b25:	00 
   30b26:	c7 44 24 08 c0 47 03 	movl   $0x347c0,0x8(%esp)
   30b2d:	00 
   30b2e:	c7 44 24 04 c0 47 03 	movl   $0x347c0,0x4(%esp)
   30b35:	00 
   30b36:	c7 04 24 d5 48 03 00 	movl   $0x348d5,(%esp)
   30b3d:	e8 a7 20 00 00       	call   32be9 <assertion_failure_kernel>
   30b42:	8b 45 f0             	mov    0xfffffff0(%ebp),%eax
   30b45:	8b 90 e4 28 00 00    	mov    0x28e4(%eax),%edx
   30b4b:	8b 45 08             	mov    0x8(%ebp),%eax
   30b4e:	39 c2                	cmp    %eax,%edx
   30b50:	74 24                	je     30b76 <msg_receive+0x1e9>
   30b52:	c7 44 24 0c 81 00 00 	movl   $0x81,0xc(%esp)
   30b59:	00 
   30b5a:	c7 44 24 08 c0 47 03 	movl   $0x347c0,0x8(%esp)
   30b61:	00 
   30b62:	c7 44 24 04 c0 47 03 	movl   $0x347c0,0x4(%esp)
   30b69:	00 
   30b6a:	c7 04 24 f2 48 03 00 	movl   $0x348f2,(%esp)
   30b71:	e8 73 20 00 00       	call   32be9 <assertion_failure_kernel>
   30b76:	8b 45 f0             	mov    0xfffffff0(%ebp),%eax
   30b79:	89 04 24             	mov    %eax,(%esp)
   30b7c:	e8 bb 11 00 00       	call   31d3c <proc2pid>
   30b81:	89 45 0c             	mov    %eax,0xc(%ebp)
   30b84:	a1 24 78 03 00       	mov    0x37824,%eax
   30b89:	83 f8 01             	cmp    $0x1,%eax
   30b8c:	75 2d                	jne    30bbb <msg_receive+0x22e>
   30b8e:	a1 00 50 03 00       	mov    0x35000,%eax
   30b93:	39 45 0c             	cmp    %eax,0xc(%ebp)
   30b96:	75 23                	jne    30bbb <msg_receive+0x22e>
   30b98:	8b 45 0c             	mov    0xc(%ebp),%eax
   30b9b:	89 44 24 04          	mov    %eax,0x4(%esp)
   30b9f:	c7 04 24 0c 49 03 00 	movl   $0x3490c,(%esp)
   30ba6:	e8 e1 15 00 00       	call   3218c <printf_kernel>
   30bab:	eb 0e                	jmp    30bbb <msg_receive+0x22e>
   30bad:	8b 45 0c             	mov    0xc(%ebp),%eax
   30bb0:	89 04 24             	mov    %eax,(%esp)
   30bb3:	e8 fd 11 00 00       	call   31db5 <pid2proc>
   30bb8:	89 45 f0             	mov    %eax,0xfffffff0(%ebp)
   30bbb:	83 7d f0 00          	cmpl   $0x0,0xfffffff0(%ebp)
   30bbf:	0f 84 8c 01 00 00    	je     30d51 <msg_receive+0x3c4>
   30bc5:	8b 45 f0             	mov    0xfffffff0(%ebp),%eax
   30bc8:	8b 80 e0 28 00 00    	mov    0x28e0(%eax),%eax
   30bce:	83 e0 02             	and    $0x2,%eax
   30bd1:	85 c0                	test   %eax,%eax
   30bd3:	0f 84 78 01 00 00    	je     30d51 <msg_receive+0x3c4>
   30bd9:	8b 45 f0             	mov    0xfffffff0(%ebp),%eax
   30bdc:	8b 90 e4 28 00 00    	mov    0x28e4(%eax),%edx
   30be2:	8b 45 08             	mov    0x8(%ebp),%eax
   30be5:	39 c2                	cmp    %eax,%edx
   30be7:	0f 85 64 01 00 00    	jne    30d51 <msg_receive+0x3c4>
   30bed:	8b 45 f0             	mov    0xfffffff0(%ebp),%eax
   30bf0:	8b 80 e8 28 00 00    	mov    0x28e8(%eax),%eax
   30bf6:	89 44 24 04          	mov    %eax,0x4(%esp)
   30bfa:	8b 45 0c             	mov    0xc(%ebp),%eax
   30bfd:	89 04 24             	mov    %eax,(%esp)
   30c00:	e8 02 13 00 00       	call   31f07 <va2la>
   30c05:	89 c3                	mov    %eax,%ebx
   30c07:	8b 45 10             	mov    0x10(%ebp),%eax
   30c0a:	89 44 24 04          	mov    %eax,0x4(%esp)
   30c0e:	8b 45 08             	mov    0x8(%ebp),%eax
   30c11:	89 04 24             	mov    %eax,(%esp)
   30c14:	e8 ee 12 00 00       	call   31f07 <va2la>
   30c19:	c7 44 24 08 30 00 00 	movl   $0x30,0x8(%esp)
   30c20:	00 
   30c21:	89 5c 24 04          	mov    %ebx,0x4(%esp)
   30c25:	89 04 24             	mov    %eax,(%esp)
   30c28:	e8 5b 1e 00 00       	call   32a88 <memcpy>
   30c2d:	8b 45 f0             	mov    0xfffffff0(%ebp),%eax
   30c30:	c7 80 e8 28 00 00 00 	movl   $0x0,0x28e8(%eax)
   30c37:	00 00 00 
   30c3a:	8b 45 f0             	mov    0xfffffff0(%ebp),%eax
   30c3d:	c7 80 e4 28 00 00 8c 	movl   $0x8c,0x28e4(%eax)
   30c44:	00 00 00 
   30c47:	8b 45 f0             	mov    0xfffffff0(%ebp),%eax
   30c4a:	8b 80 e0 28 00 00    	mov    0x28e0(%eax),%eax
   30c50:	89 c2                	mov    %eax,%edx
   30c52:	83 e2 fd             	and    $0xfffffffd,%edx
   30c55:	8b 45 f0             	mov    0xfffffff0(%ebp),%eax
   30c58:	89 90 e0 28 00 00    	mov    %edx,0x28e0(%eax)
   30c5e:	a1 24 78 03 00       	mov    0x37824,%eax
   30c63:	83 f8 01             	cmp    $0x1,%eax
   30c66:	75 2e                	jne    30c96 <msg_receive+0x309>
   30c68:	a1 00 50 03 00       	mov    0x35000,%eax
   30c6d:	39 45 0c             	cmp    %eax,0xc(%ebp)
   30c70:	74 0a                	je     30c7c <msg_receive+0x2ef>
   30c72:	a1 00 50 03 00       	mov    0x35000,%eax
   30c77:	39 45 08             	cmp    %eax,0x8(%ebp)
   30c7a:	75 1a                	jne    30c96 <msg_receive+0x309>
   30c7c:	8b 45 0c             	mov    0xc(%ebp),%eax
   30c7f:	89 44 24 08          	mov    %eax,0x8(%esp)
   30c83:	8b 45 08             	mov    0x8(%ebp),%eax
   30c86:	89 44 24 04          	mov    %eax,0x4(%esp)
   30c8a:	c7 04 24 30 49 03 00 	movl   $0x34930,(%esp)
   30c91:	e8 f6 14 00 00       	call   3218c <printf_kernel>
   30c96:	8b 45 f0             	mov    0xfffffff0(%ebp),%eax
   30c99:	89 04 24             	mov    %eax,(%esp)
   30c9c:	e8 72 11 00 00       	call   31e13 <unblock>
   30ca1:	8b 45 f4             	mov    0xfffffff4(%ebp),%eax
   30ca4:	8b 80 f0 28 00 00    	mov    0x28f0(%eax),%eax
   30caa:	3b 45 f0             	cmp    0xfffffff0(%ebp),%eax
   30cad:	75 17                	jne    30cc6 <msg_receive+0x339>
   30caf:	8b 45 f0             	mov    0xfffffff0(%ebp),%eax
   30cb2:	8b 90 ec 28 00 00    	mov    0x28ec(%eax),%edx
   30cb8:	8b 45 f4             	mov    0xfffffff4(%ebp),%eax
   30cbb:	89 90 f0 28 00 00    	mov    %edx,0x28f0(%eax)
   30cc1:	e9 fd 00 00 00       	jmp    30dc3 <msg_receive+0x436>
   30cc6:	8b 45 f4             	mov    0xfffffff4(%ebp),%eax
   30cc9:	8b 90 f0 28 00 00    	mov    0x28f0(%eax),%edx
   30ccf:	8b 45 f0             	mov    0xfffffff0(%ebp),%eax
   30cd2:	89 44 24 04          	mov    %eax,0x4(%esp)
   30cd6:	89 14 24             	mov    %edx,(%esp)
   30cd9:	e8 eb 00 00 00       	call   30dc9 <inSendingQueue>
   30cde:	89 45 f8             	mov    %eax,0xfffffff8(%ebp)
   30ce1:	83 7d f8 00          	cmpl   $0x0,0xfffffff8(%ebp)
   30ce5:	75 24                	jne    30d0b <msg_receive+0x37e>
   30ce7:	c7 44 24 0c a0 00 00 	movl   $0xa0,0xc(%esp)
   30cee:	00 
   30cef:	c7 44 24 08 c0 47 03 	movl   $0x347c0,0x8(%esp)
   30cf6:	00 
   30cf7:	c7 44 24 04 c0 47 03 	movl   $0x347c0,0x4(%esp)
   30cfe:	00 
   30cff:	c7 04 24 4e 49 03 00 	movl   $0x3494e,(%esp)
   30d06:	e8 de 1e 00 00       	call   32be9 <assertion_failure_kernel>
   30d0b:	8b 45 f8             	mov    0xfffffff8(%ebp),%eax
   30d0e:	8b 80 ec 28 00 00    	mov    0x28ec(%eax),%eax
   30d14:	3b 45 f0             	cmp    0xfffffff0(%ebp),%eax
   30d17:	74 24                	je     30d3d <msg_receive+0x3b0>
   30d19:	c7 44 24 0c a1 00 00 	movl   $0xa1,0xc(%esp)
   30d20:	00 
   30d21:	c7 44 24 08 c0 47 03 	movl   $0x347c0,0x8(%esp)
   30d28:	00 
   30d29:	c7 44 24 04 c0 47 03 	movl   $0x347c0,0x4(%esp)
   30d30:	00 
   30d31:	c7 04 24 52 49 03 00 	movl   $0x34952,(%esp)
   30d38:	e8 ac 1e 00 00       	call   32be9 <assertion_failure_kernel>
   30d3d:	8b 45 f0             	mov    0xfffffff0(%ebp),%eax
   30d40:	8b 90 ec 28 00 00    	mov    0x28ec(%eax),%edx
   30d46:	8b 45 f8             	mov    0xfffffff8(%ebp),%eax
   30d49:	89 90 ec 28 00 00    	mov    %edx,0x28ec(%eax)
   30d4f:	eb 72                	jmp    30dc3 <msg_receive+0x436>
   30d51:	8b 45 f4             	mov    0xfffffff4(%ebp),%eax
   30d54:	8b 80 e0 28 00 00    	mov    0x28e0(%eax),%eax
   30d5a:	89 c2                	mov    %eax,%edx
   30d5c:	83 ca 04             	or     $0x4,%edx
   30d5f:	8b 45 f4             	mov    0xfffffff4(%ebp),%eax
   30d62:	89 90 e0 28 00 00    	mov    %edx,0x28e0(%eax)
   30d68:	8b 55 0c             	mov    0xc(%ebp),%edx
   30d6b:	8b 45 f4             	mov    0xfffffff4(%ebp),%eax
   30d6e:	89 90 f4 28 00 00    	mov    %edx,0x28f4(%eax)
   30d74:	8b 55 f4             	mov    0xfffffff4(%ebp),%edx
   30d77:	8b 45 10             	mov    0x10(%ebp),%eax
   30d7a:	89 82 e8 28 00 00    	mov    %eax,0x28e8(%edx)
   30d80:	a1 24 78 03 00       	mov    0x37824,%eax
   30d85:	83 f8 01             	cmp    $0x1,%eax
   30d88:	75 2e                	jne    30db8 <msg_receive+0x42b>
   30d8a:	a1 00 50 03 00       	mov    0x35000,%eax
   30d8f:	39 45 0c             	cmp    %eax,0xc(%ebp)
   30d92:	74 0a                	je     30d9e <msg_receive+0x411>
   30d94:	a1 00 50 03 00       	mov    0x35000,%eax
   30d99:	39 45 08             	cmp    %eax,0x8(%ebp)
   30d9c:	75 1a                	jne    30db8 <msg_receive+0x42b>
   30d9e:	8b 45 0c             	mov    0xc(%ebp),%eax
   30da1:	89 44 24 08          	mov    %eax,0x8(%esp)
   30da5:	8b 45 08             	mov    0x8(%ebp),%eax
   30da8:	89 44 24 04          	mov    %eax,0x4(%esp)
   30dac:	c7 04 24 70 49 03 00 	movl   $0x34970,(%esp)
   30db3:	e8 d4 13 00 00       	call   3218c <printf_kernel>
   30db8:	8b 45 f4             	mov    0xfffffff4(%ebp),%eax
   30dbb:	89 04 24             	mov    %eax,(%esp)
   30dbe:	e8 c4 10 00 00       	call   31e87 <block>
   30dc3:	83 c4 24             	add    $0x24,%esp
   30dc6:	5b                   	pop    %ebx
   30dc7:	5d                   	pop    %ebp
   30dc8:	c3                   	ret    

00030dc9 <inSendingQueue>:
   30dc9:	55                   	push   %ebp
   30dca:	89 e5                	mov    %esp,%ebp
   30dcc:	83 ec 04             	sub    $0x4,%esp
   30dcf:	eb 22                	jmp    30df3 <inSendingQueue+0x2a>
   30dd1:	8b 45 08             	mov    0x8(%ebp),%eax
   30dd4:	8b 80 ec 28 00 00    	mov    0x28ec(%eax),%eax
   30dda:	3b 45 0c             	cmp    0xc(%ebp),%eax
   30ddd:	75 08                	jne    30de7 <inSendingQueue+0x1e>
   30ddf:	8b 45 08             	mov    0x8(%ebp),%eax
   30de2:	89 45 fc             	mov    %eax,0xfffffffc(%ebp)
   30de5:	eb 20                	jmp    30e07 <inSendingQueue+0x3e>
   30de7:	8b 45 08             	mov    0x8(%ebp),%eax
   30dea:	8b 80 ec 28 00 00    	mov    0x28ec(%eax),%eax
   30df0:	89 45 08             	mov    %eax,0x8(%ebp)
   30df3:	8b 45 08             	mov    0x8(%ebp),%eax
   30df6:	8b 80 ec 28 00 00    	mov    0x28ec(%eax),%eax
   30dfc:	85 c0                	test   %eax,%eax
   30dfe:	75 d1                	jne    30dd1 <inSendingQueue+0x8>
   30e00:	c7 45 fc 00 00 00 00 	movl   $0x0,0xfffffffc(%ebp)
   30e07:	8b 45 fc             	mov    0xfffffffc(%ebp),%eax
   30e0a:	c9                   	leave  
   30e0b:	c3                   	ret    

00030e0c <inform_int>:
   30e0c:	55                   	push   %ebp
   30e0d:	89 e5                	mov    %esp,%ebp
   30e0f:	83 ec 28             	sub    $0x28,%esp
   30e12:	8b 45 08             	mov    0x8(%ebp),%eax
   30e15:	89 04 24             	mov    %eax,(%esp)
   30e18:	e8 98 0f 00 00       	call   31db5 <pid2proc>
   30e1d:	89 45 fc             	mov    %eax,0xfffffffc(%ebp)
   30e20:	83 7d fc 00          	cmpl   $0x0,0xfffffffc(%ebp)
   30e24:	75 24                	jne    30e4a <inform_int+0x3e>
   30e26:	c7 44 24 0c cf 00 00 	movl   $0xcf,0xc(%esp)
   30e2d:	00 
   30e2e:	c7 44 24 08 c0 47 03 	movl   $0x347c0,0x8(%esp)
   30e35:	00 
   30e36:	c7 44 24 04 c0 47 03 	movl   $0x347c0,0x4(%esp)
   30e3d:	00 
   30e3e:	c7 04 24 8f 49 03 00 	movl   $0x3498f,(%esp)
   30e45:	e8 9f 1d 00 00       	call   32be9 <assertion_failure_kernel>
   30e4a:	8b 45 08             	mov    0x8(%ebp),%eax
   30e4d:	89 44 24 04          	mov    %eax,0x4(%esp)
   30e51:	c7 04 24 94 49 03 00 	movl   $0x34994,(%esp)
   30e58:	e8 2f 13 00 00       	call   3218c <printf_kernel>
   30e5d:	8b 45 fc             	mov    0xfffffffc(%ebp),%eax
   30e60:	8b 80 e0 28 00 00    	mov    0x28e0(%eax),%eax
   30e66:	83 e0 04             	and    $0x4,%eax
   30e69:	85 c0                	test   %eax,%eax
   30e6b:	74 4e                	je     30ebb <inform_int+0xaf>
   30e6d:	8b 45 fc             	mov    0xfffffffc(%ebp),%eax
   30e70:	8b 80 f4 28 00 00    	mov    0x28f4(%eax),%eax
   30e76:	3d 0f 27 00 00       	cmp    $0x270f,%eax
   30e7b:	74 0d                	je     30e8a <inform_int+0x7e>
   30e7d:	8b 45 fc             	mov    0xfffffffc(%ebp),%eax
   30e80:	8b 80 f4 28 00 00    	mov    0x28f4(%eax),%eax
   30e86:	85 c0                	test   %eax,%eax
   30e88:	75 31                	jne    30ebb <inform_int+0xaf>
   30e8a:	8b 45 fc             	mov    0xfffffffc(%ebp),%eax
   30e8d:	c7 80 f8 28 00 00 01 	movl   $0x1,0x28f8(%eax)
   30e94:	00 00 00 
   30e97:	8b 45 fc             	mov    0xfffffffc(%ebp),%eax
   30e9a:	8b 80 e0 28 00 00    	mov    0x28e0(%eax),%eax
   30ea0:	89 c2                	mov    %eax,%edx
   30ea2:	83 e2 fb             	and    $0xfffffffb,%edx
   30ea5:	8b 45 fc             	mov    0xfffffffc(%ebp),%eax
   30ea8:	89 90 e0 28 00 00    	mov    %edx,0x28e0(%eax)
   30eae:	8b 45 fc             	mov    0xfffffffc(%ebp),%eax
   30eb1:	89 04 24             	mov    %eax,(%esp)
   30eb4:	e8 5a 0f 00 00       	call   31e13 <unblock>
   30eb9:	eb 0d                	jmp    30ec8 <inform_int+0xbc>
   30ebb:	8b 45 fc             	mov    0xfffffffc(%ebp),%eax
   30ebe:	c7 80 f8 28 00 00 01 	movl   $0x1,0x28f8(%eax)
   30ec5:	00 00 00 
   30ec8:	c9                   	leave  
   30ec9:	c3                   	ret    
   30eca:	90                   	nop    
   30ecb:	90                   	nop    

00030ecc <setLDTEntry>:
   30ecc:	55                   	push   %ebp
   30ecd:	89 e5                	mov    %esp,%ebp
   30ecf:	83 ec 04             	sub    $0x4,%esp
   30ed2:	8b 45 18             	mov    0x18(%ebp),%eax
   30ed5:	66 89 45 fc          	mov    %ax,0xfffffffc(%ebp)
   30ed9:	8b 45 0c             	mov    0xc(%ebp),%eax
   30edc:	c1 e0 03             	shl    $0x3,%eax
   30edf:	89 c2                	mov    %eax,%edx
   30ee1:	03 55 08             	add    0x8(%ebp),%edx
   30ee4:	8b 45 14             	mov    0x14(%ebp),%eax
   30ee7:	66 89 02             	mov    %ax,(%edx)
   30eea:	8b 45 0c             	mov    0xc(%ebp),%eax
   30eed:	c1 e0 03             	shl    $0x3,%eax
   30ef0:	89 c2                	mov    %eax,%edx
   30ef2:	03 55 08             	add    0x8(%ebp),%edx
   30ef5:	8b 45 10             	mov    0x10(%ebp),%eax
   30ef8:	66 89 42 02          	mov    %ax,0x2(%edx)
   30efc:	8b 45 0c             	mov    0xc(%ebp),%eax
   30eff:	c1 e0 03             	shl    $0x3,%eax
   30f02:	89 c2                	mov    %eax,%edx
   30f04:	03 55 08             	add    0x8(%ebp),%edx
   30f07:	8b 45 10             	mov    0x10(%ebp),%eax
   30f0a:	c1 e8 10             	shr    $0x10,%eax
   30f0d:	88 42 04             	mov    %al,0x4(%edx)
   30f10:	8b 45 0c             	mov    0xc(%ebp),%eax
   30f13:	c1 e0 03             	shl    $0x3,%eax
   30f16:	89 c1                	mov    %eax,%ecx
   30f18:	03 4d 08             	add    0x8(%ebp),%ecx
   30f1b:	0f b7 45 fc          	movzwl 0xfffffffc(%ebp),%eax
   30f1f:	89 c2                	mov    %eax,%edx
   30f21:	b8 ff ff ff ff       	mov    $0xffffffff,%eax
   30f26:	21 d0                	and    %edx,%eax
   30f28:	88 41 05             	mov    %al,0x5(%ecx)
   30f2b:	8b 45 0c             	mov    0xc(%ebp),%eax
   30f2e:	c1 e0 03             	shl    $0x3,%eax
   30f31:	89 c1                	mov    %eax,%ecx
   30f33:	03 4d 08             	add    0x8(%ebp),%ecx
   30f36:	0f b7 45 fc          	movzwl 0xfffffffc(%ebp),%eax
   30f3a:	66 c1 e8 08          	shr    $0x8,%ax
   30f3e:	89 c2                	mov    %eax,%edx
   30f40:	83 e2 f0             	and    $0xfffffff0,%edx
   30f43:	8b 45 14             	mov    0x14(%ebp),%eax
   30f46:	c1 e8 10             	shr    $0x10,%eax
   30f49:	83 e0 0f             	and    $0xf,%eax
   30f4c:	09 d0                	or     %edx,%eax
   30f4e:	88 41 06             	mov    %al,0x6(%ecx)
   30f51:	8b 45 0c             	mov    0xc(%ebp),%eax
   30f54:	c1 e0 03             	shl    $0x3,%eax
   30f57:	89 c2                	mov    %eax,%edx
   30f59:	03 55 08             	add    0x8(%ebp),%edx
   30f5c:	8b 45 10             	mov    0x10(%ebp),%eax
   30f5f:	c1 e8 18             	shr    $0x18,%eax
   30f62:	88 42 07             	mov    %al,0x7(%edx)
   30f65:	c9                   	leave  
   30f66:	c3                   	ret    

00030f67 <set_process_regs>:
   30f67:	55                   	push   %ebp
   30f68:	89 e5                	mov    %esp,%ebp
   30f6a:	83 7d 08 00          	cmpl   $0x0,0x8(%ebp)
   30f6e:	0f 84 98 00 00 00    	je     3100c <set_process_regs+0xa5>
   30f74:	8b 55 0c             	mov    0xc(%ebp),%edx
   30f77:	8b 45 08             	mov    0x8(%ebp),%eax
   30f7a:	89 50 34             	mov    %edx,0x34(%eax)
   30f7d:	8b 55 10             	mov    0x10(%ebp),%edx
   30f80:	8b 45 08             	mov    0x8(%ebp),%eax
   30f83:	89 50 38             	mov    %edx,0x38(%eax)
   30f86:	8b 45 08             	mov    0x8(%ebp),%eax
   30f89:	c7 40 2c 00 00 00 00 	movl   $0x0,0x2c(%eax)
   30f90:	8b 45 08             	mov    0x8(%ebp),%eax
   30f93:	c7 40 20 00 00 00 00 	movl   $0x0,0x20(%eax)
   30f9a:	8b 45 08             	mov    0x8(%ebp),%eax
   30f9d:	c7 40 28 00 00 00 00 	movl   $0x0,0x28(%eax)
   30fa4:	8b 45 08             	mov    0x8(%ebp),%eax
   30fa7:	c7 40 24 00 00 00 00 	movl   $0x0,0x24(%eax)
   30fae:	8b 45 08             	mov    0x8(%ebp),%eax
   30fb1:	c7 40 10 00 00 00 00 	movl   $0x0,0x10(%eax)
   30fb8:	8b 45 08             	mov    0x8(%ebp),%eax
   30fbb:	c7 40 14 00 00 00 00 	movl   $0x0,0x14(%eax)
   30fc2:	8b 45 08             	mov    0x8(%ebp),%eax
   30fc5:	c7 40 18 00 00 00 00 	movl   $0x0,0x18(%eax)
   30fcc:	8b 55 18             	mov    0x18(%ebp),%edx
   30fcf:	8b 45 08             	mov    0x8(%ebp),%eax
   30fd2:	89 50 40             	mov    %edx,0x40(%eax)
   30fd5:	8b 55 1c             	mov    0x1c(%ebp),%edx
   30fd8:	8b 45 08             	mov    0x8(%ebp),%eax
   30fdb:	89 50 44             	mov    %edx,0x44(%eax)
   30fde:	8b 55 20             	mov    0x20(%ebp),%edx
   30fe1:	8b 45 08             	mov    0x8(%ebp),%eax
   30fe4:	89 50 0c             	mov    %edx,0xc(%eax)
   30fe7:	8b 55 24             	mov    0x24(%ebp),%edx
   30fea:	8b 45 08             	mov    0x8(%ebp),%eax
   30fed:	89 50 08             	mov    %edx,0x8(%eax)
   30ff0:	8b 45 08             	mov    0x8(%ebp),%eax
   30ff3:	c7 40 04 00 00 00 00 	movl   $0x0,0x4(%eax)
   30ffa:	8b 45 08             	mov    0x8(%ebp),%eax
   30ffd:	c7 00 1b 00 00 00    	movl   $0x1b,(%eax)
   31003:	8b 55 14             	mov    0x14(%ebp),%edx
   31006:	8b 45 08             	mov    0x8(%ebp),%eax
   31009:	89 50 3c             	mov    %edx,0x3c(%eax)
   3100c:	5d                   	pop    %ebp
   3100d:	c3                   	ret    

0003100e <initProcess>:
   3100e:	55                   	push   %ebp
   3100f:	89 e5                	mov    %esp,%ebp
   31011:	8b 55 0c             	mov    0xc(%ebp),%edx
   31014:	8b 45 08             	mov    0x8(%ebp),%eax
   31017:	89 50 4c             	mov    %edx,0x4c(%eax)
   3101a:	8b 55 10             	mov    0x10(%ebp),%edx
   3101d:	8b 45 08             	mov    0x8(%ebp),%eax
   31020:	89 50 50             	mov    %edx,0x50(%eax)
   31023:	8b 55 14             	mov    0x14(%ebp),%edx
   31026:	8b 45 08             	mov    0x8(%ebp),%eax
   31029:	89 90 d4 28 00 00    	mov    %edx,0x28d4(%eax)
   3102f:	8b 55 18             	mov    0x18(%ebp),%edx
   31032:	8b 45 08             	mov    0x8(%ebp),%eax
   31035:	89 90 d8 28 00 00    	mov    %edx,0x28d8(%eax)
   3103b:	8b 45 08             	mov    0x8(%ebp),%eax
   3103e:	c7 80 dc 28 00 00 00 	movl   $0x0,0x28dc(%eax)
   31045:	00 00 00 
   31048:	8b 45 08             	mov    0x8(%ebp),%eax
   3104b:	c7 80 e0 28 00 00 00 	movl   $0x0,0x28e0(%eax)
   31052:	00 00 00 
   31055:	8b 45 08             	mov    0x8(%ebp),%eax
   31058:	c7 80 e8 28 00 00 00 	movl   $0x0,0x28e8(%eax)
   3105f:	00 00 00 
   31062:	8b 45 08             	mov    0x8(%ebp),%eax
   31065:	c7 80 ec 28 00 00 00 	movl   $0x0,0x28ec(%eax)
   3106c:	00 00 00 
   3106f:	8b 45 08             	mov    0x8(%ebp),%eax
   31072:	c7 80 f0 28 00 00 00 	movl   $0x0,0x28f0(%eax)
   31079:	00 00 00 
   3107c:	8b 45 08             	mov    0x8(%ebp),%eax
   3107f:	c7 80 f4 28 00 00 8c 	movl   $0x8c,0x28f4(%eax)
   31086:	00 00 00 
   31089:	8b 45 08             	mov    0x8(%ebp),%eax
   3108c:	c7 80 e4 28 00 00 8c 	movl   $0x8c,0x28e4(%eax)
   31093:	00 00 00 
   31096:	8b 45 08             	mov    0x8(%ebp),%eax
   31099:	c7 80 f8 28 00 00 00 	movl   $0x0,0x28f8(%eax)
   310a0:	00 00 00 
   310a3:	5d                   	pop    %ebp
   310a4:	c3                   	ret    

000310a5 <init_process_table>:
   310a5:	55                   	push   %ebp
   310a6:	89 e5                	mov    %esp,%ebp
   310a8:	83 ec 18             	sub    $0x18,%esp
   310ab:	c7 45 fc 00 00 00 00 	movl   $0x0,0xfffffffc(%ebp)
   310b2:	c7 45 fc 00 00 00 00 	movl   $0x0,0xfffffffc(%ebp)
   310b9:	eb 17                	jmp    310d2 <init_process_table+0x2d>
   310bb:	8b 45 fc             	mov    0xfffffffc(%ebp),%eax
   310be:	69 c0 fc 28 00 00    	imul   $0x28fc,%eax,%eax
   310c4:	c7 80 fc b2 03 00 01 	movl   $0x1,0x3b2fc(%eax)
   310cb:	00 00 00 
   310ce:	83 45 fc 01          	addl   $0x1,0xfffffffc(%ebp)
   310d2:	83 7d fc 27          	cmpl   $0x27,0xfffffffc(%ebp)
   310d6:	7e e3                	jle    310bb <init_process_table+0x16>
   310d8:	e8 4d 32 00 00       	call   3432a <init_normal_process>
   310dd:	c7 05 28 78 03 00 00 	movl   $0x0,0x37828
   310e4:	00 00 00 
   310e7:	c7 05 30 78 03 00 0b 	movl   $0xb,0x37830
   310ee:	00 00 00 
   310f1:	e8 aa 1c 00 00       	call   32da0 <init_tasks>
   310f6:	c9                   	leave  
   310f7:	c3                   	ret    

000310f8 <getProPointer>:
   310f8:	55                   	push   %ebp
   310f9:	89 e5                	mov    %esp,%ebp
   310fb:	8b 45 08             	mov    0x8(%ebp),%eax
   310fe:	69 c0 fc 28 00 00    	imul   $0x28fc,%eax,%eax
   31104:	89 c2                	mov    %eax,%edx
   31106:	b8 20 8a 03 00       	mov    $0x38a20,%eax
   3110b:	2d fc 28 00 00       	sub    $0x28fc,%eax
   31110:	8d 04 02             	lea    (%edx,%eax,1),%eax
   31113:	5d                   	pop    %ebp
   31114:	c3                   	ret    

00031115 <add_system_task>:
   31115:	55                   	push   %ebp
   31116:	89 e5                	mov    %esp,%ebp
   31118:	83 ec 38             	sub    $0x38,%esp
   3111b:	a1 28 78 03 00       	mov    0x37828,%eax
   31120:	69 c0 fc 28 00 00    	imul   $0x28fc,%eax,%eax
   31126:	05 20 8a 03 00       	add    $0x38a20,%eax
   3112b:	89 45 f8             	mov    %eax,0xfffffff8(%ebp)
   3112e:	a1 28 78 03 00       	mov    0x37828,%eax
   31133:	83 c0 01             	add    $0x1,%eax
   31136:	a3 28 78 03 00       	mov    %eax,0x37828
   3113b:	c7 45 fc 02 12 00 00 	movl   $0x1202,0xfffffffc(%ebp)
   31142:	8b 45 f8             	mov    0xfffffff8(%ebp),%eax
   31145:	05 d4 00 00 00       	add    $0xd4,%eax
   3114a:	05 ff 27 00 00       	add    $0x27ff,%eax
   3114f:	c7 44 24 1c 15 00 00 	movl   $0x15,0x1c(%esp)
   31156:	00 
   31157:	c7 44 24 18 0d 00 00 	movl   $0xd,0x18(%esp)
   3115e:	00 
   3115f:	c7 44 24 14 1d 00 00 	movl   $0x1d,0x14(%esp)
   31166:	00 
   31167:	89 44 24 10          	mov    %eax,0x10(%esp)
   3116b:	8b 45 fc             	mov    0xfffffffc(%ebp),%eax
   3116e:	89 44 24 0c          	mov    %eax,0xc(%esp)
   31172:	c7 44 24 08 05 00 00 	movl   $0x5,0x8(%esp)
   31179:	00 
   3117a:	8b 45 08             	mov    0x8(%ebp),%eax
   3117d:	89 44 24 04          	mov    %eax,0x4(%esp)
   31181:	8b 45 f8             	mov    0xfffffff8(%ebp),%eax
   31184:	89 04 24             	mov    %eax,(%esp)
   31187:	e8 db fd ff ff       	call   30f67 <set_process_regs>
   3118c:	c7 44 24 10 00 00 00 	movl   $0x0,0x10(%esp)
   31193:	00 
   31194:	c7 44 24 0c 01 00 00 	movl   $0x1,0xc(%esp)
   3119b:	00 
   3119c:	c7 44 24 08 1e 00 00 	movl   $0x1e,0x8(%esp)
   311a3:	00 
   311a4:	c7 44 24 04 1e 00 00 	movl   $0x1e,0x4(%esp)
   311ab:	00 
   311ac:	8b 45 f8             	mov    0xfffffff8(%ebp),%eax
   311af:	89 04 24             	mov    %eax,(%esp)
   311b2:	e8 57 fe ff ff       	call   3100e <initProcess>
   311b7:	8b 45 f8             	mov    0xfffffff8(%ebp),%eax
   311ba:	83 c0 54             	add    $0x54,%eax
   311bd:	89 c2                	mov    %eax,%edx
   311bf:	a1 30 78 03 00       	mov    0x37830,%eax
   311c4:	c7 44 24 0c a2 40 00 	movl   $0x40a2,0xc(%esp)
   311cb:	00 
   311cc:	c7 44 24 08 7f 00 00 	movl   $0x7f,0x8(%esp)
   311d3:	00 
   311d4:	89 54 24 04          	mov    %edx,0x4(%esp)
   311d8:	89 04 24             	mov    %eax,(%esp)
   311db:	e8 40 13 00 00       	call   32520 <setGDTEntry>
   311e0:	a1 30 78 03 00       	mov    0x37830,%eax
   311e5:	c1 e0 03             	shl    $0x3,%eax
   311e8:	83 c0 01             	add    $0x1,%eax
   311eb:	89 c2                	mov    %eax,%edx
   311ed:	8b 45 f8             	mov    0xfffffff8(%ebp),%eax
   311f0:	89 50 48             	mov    %edx,0x48(%eax)
   311f3:	a1 30 78 03 00       	mov    0x37830,%eax
   311f8:	83 c0 01             	add    $0x1,%eax
   311fb:	a3 30 78 03 00       	mov    %eax,0x37830
   31200:	8b 45 f8             	mov    0xfffffff8(%ebp),%eax
   31203:	83 c0 54             	add    $0x54,%eax
   31206:	c7 44 24 10 ba c0 00 	movl   $0xc0ba,0x10(%esp)
   3120d:	00 
   3120e:	c7 44 24 0c ff ff 00 	movl   $0xffff,0xc(%esp)
   31215:	00 
   31216:	c7 44 24 08 00 00 00 	movl   $0x0,0x8(%esp)
   3121d:	00 
   3121e:	c7 44 24 04 00 00 00 	movl   $0x0,0x4(%esp)
   31225:	00 
   31226:	89 04 24             	mov    %eax,(%esp)
   31229:	e8 9e fc ff ff       	call   30ecc <setLDTEntry>
   3122e:	8b 45 f8             	mov    0xfffffff8(%ebp),%eax
   31231:	83 c0 54             	add    $0x54,%eax
   31234:	c7 44 24 10 b2 c0 00 	movl   $0xc0b2,0x10(%esp)
   3123b:	00 
   3123c:	c7 44 24 0c ff ff 00 	movl   $0xffff,0xc(%esp)
   31243:	00 
   31244:	c7 44 24 08 00 00 00 	movl   $0x0,0x8(%esp)
   3124b:	00 
   3124c:	c7 44 24 04 01 00 00 	movl   $0x1,0x4(%esp)
   31253:	00 
   31254:	89 04 24             	mov    %eax,(%esp)
   31257:	e8 70 fc ff ff       	call   30ecc <setLDTEntry>
   3125c:	8b 45 f8             	mov    0xfffffff8(%ebp),%eax
   3125f:	83 c0 54             	add    $0x54,%eax
   31262:	c7 44 24 10 b2 c0 00 	movl   $0xc0b2,0x10(%esp)
   31269:	00 
   3126a:	c7 44 24 0c ff ff 00 	movl   $0xffff,0xc(%esp)
   31271:	00 
   31272:	c7 44 24 08 00 00 00 	movl   $0x0,0x8(%esp)
   31279:	00 
   3127a:	c7 44 24 04 02 00 00 	movl   $0x2,0x4(%esp)
   31281:	00 
   31282:	89 04 24             	mov    %eax,(%esp)
   31285:	e8 42 fc ff ff       	call   30ecc <setLDTEntry>
   3128a:	8b 45 f8             	mov    0xfffffff8(%ebp),%eax
   3128d:	05 d4 00 00 00       	add    $0xd4,%eax
   31292:	05 ff 27 00 00       	add    $0x27ff,%eax
   31297:	8b 55 f8             	mov    0xfffffff8(%ebp),%edx
   3129a:	83 c2 54             	add    $0x54,%edx
   3129d:	c7 44 24 10 b2 40 00 	movl   $0x40b2,0x10(%esp)
   312a4:	00 
   312a5:	89 44 24 0c          	mov    %eax,0xc(%esp)
   312a9:	c7 44 24 08 00 00 00 	movl   $0x0,0x8(%esp)
   312b0:	00 
   312b1:	c7 44 24 04 03 00 00 	movl   $0x3,0x4(%esp)
   312b8:	00 
   312b9:	89 14 24             	mov    %edx,(%esp)
   312bc:	e8 0b fc ff ff       	call   30ecc <setLDTEntry>
   312c1:	c9                   	leave  
   312c2:	c3                   	ret    
   312c3:	90                   	nop    

000312c4 <schedule>:
   312c4:	55                   	push   %ebp
   312c5:	89 e5                	mov    %esp,%ebp
   312c7:	83 ec 28             	sub    $0x28,%esp
   312ca:	c7 45 f0 00 00 00 00 	movl   $0x0,0xfffffff0(%ebp)
   312d1:	c7 45 f4 ff ff ff ff 	movl   $0xffffffff,0xfffffff4(%ebp)
   312d8:	c7 45 f8 00 00 00 00 	movl   $0x0,0xfffffff8(%ebp)
   312df:	a1 00 81 03 00       	mov    0x38100,%eax
   312e4:	89 45 fc             	mov    %eax,0xfffffffc(%ebp)
   312e7:	a1 00 b3 03 00       	mov    0x3b300,%eax
   312ec:	85 c0                	test   %eax,%eax
   312ee:	74 0e                	je     312fe <schedule+0x3a>
   312f0:	c7 04 24 a4 49 03 00 	movl   $0x349a4,(%esp)
   312f7:	e8 90 0e 00 00       	call   3218c <printf_kernel>
   312fc:	fa                   	cli    
   312fd:	f4                   	hlt    
   312fe:	a1 00 81 03 00       	mov    0x38100,%eax
   31303:	89 45 ec             	mov    %eax,0xffffffec(%ebp)
   31306:	eb 32                	jmp    3133a <schedule+0x76>
   31308:	8b 45 ec             	mov    0xffffffec(%ebp),%eax
   3130b:	69 c0 fc 28 00 00    	imul   $0x28fc,%eax,%eax
   31311:	8b 80 fc b2 03 00    	mov    0x3b2fc(%eax),%eax
   31317:	85 c0                	test   %eax,%eax
   31319:	75 1b                	jne    31336 <schedule+0x72>
   3131b:	8b 45 ec             	mov    0xffffffec(%ebp),%eax
   3131e:	69 c0 fc 28 00 00    	imul   $0x28fc,%eax,%eax
   31324:	8b 80 00 b3 03 00    	mov    0x3b300(%eax),%eax
   3132a:	85 c0                	test   %eax,%eax
   3132c:	75 08                	jne    31336 <schedule+0x72>
   3132e:	8b 45 ec             	mov    0xffffffec(%ebp),%eax
   31331:	89 45 f4             	mov    %eax,0xfffffff4(%ebp)
   31334:	eb 0a                	jmp    31340 <schedule+0x7c>
   31336:	83 45 ec 01          	addl   $0x1,0xffffffec(%ebp)
   3133a:	83 7d ec 27          	cmpl   $0x27,0xffffffec(%ebp)
   3133e:	7e c8                	jle    31308 <schedule+0x44>
   31340:	83 7d f4 ff          	cmpl   $0xffffffff,0xfffffff4(%ebp)
   31344:	75 4b                	jne    31391 <schedule+0xcd>
   31346:	c7 45 ec 00 00 00 00 	movl   $0x0,0xffffffec(%ebp)
   3134d:	eb 32                	jmp    31381 <schedule+0xbd>
   3134f:	8b 45 ec             	mov    0xffffffec(%ebp),%eax
   31352:	69 c0 fc 28 00 00    	imul   $0x28fc,%eax,%eax
   31358:	8b 80 fc b2 03 00    	mov    0x3b2fc(%eax),%eax
   3135e:	85 c0                	test   %eax,%eax
   31360:	75 1b                	jne    3137d <schedule+0xb9>
   31362:	8b 45 ec             	mov    0xffffffec(%ebp),%eax
   31365:	69 c0 fc 28 00 00    	imul   $0x28fc,%eax,%eax
   3136b:	8b 80 00 b3 03 00    	mov    0x3b300(%eax),%eax
   31371:	85 c0                	test   %eax,%eax
   31373:	75 08                	jne    3137d <schedule+0xb9>
   31375:	8b 45 ec             	mov    0xffffffec(%ebp),%eax
   31378:	89 45 f4             	mov    %eax,0xfffffff4(%ebp)
   3137b:	eb 14                	jmp    31391 <schedule+0xcd>
   3137d:	83 45 ec 01          	addl   $0x1,0xffffffec(%ebp)
   31381:	8b 45 ec             	mov    0xffffffec(%ebp),%eax
   31384:	8b 15 00 81 03 00    	mov    0x38100,%edx
   3138a:	83 ea 01             	sub    $0x1,%edx
   3138d:	39 d0                	cmp    %edx,%eax
   3138f:	72 be                	jb     3134f <schedule+0x8b>
   31391:	83 7d f4 ff          	cmpl   $0xffffffff,0xfffffff4(%ebp)
   31395:	75 28                	jne    313bf <schedule+0xfb>
   31397:	a1 00 81 03 00       	mov    0x38100,%eax
   3139c:	83 e8 01             	sub    $0x1,%eax
   3139f:	69 c0 fc 28 00 00    	imul   $0x28fc,%eax,%eax
   313a5:	8b 80 00 b3 03 00    	mov    0x3b300(%eax),%eax
   313ab:	85 c0                	test   %eax,%eax
   313ad:	74 1b                	je     313ca <schedule+0x106>
   313af:	c7 04 24 bc 49 03 00 	movl   $0x349bc,(%esp)
   313b6:	e8 d1 0d 00 00       	call   3218c <printf_kernel>
   313bb:	fa                   	cli    
   313bc:	f4                   	hlt    
   313bd:	eb 0b                	jmp    313ca <schedule+0x106>
   313bf:	8b 45 f4             	mov    0xfffffff4(%ebp),%eax
   313c2:	83 c0 01             	add    $0x1,%eax
   313c5:	a3 00 81 03 00       	mov    %eax,0x38100
   313ca:	c9                   	leave  
   313cb:	c3                   	ret    

000313cc <init_idt_desc>:
   313cc:	55                   	push   %ebp
   313cd:	89 e5                	mov    %esp,%ebp
   313cf:	83 ec 1c             	sub    $0x1c,%esp
   313d2:	8b 45 08             	mov    0x8(%ebp),%eax
   313d5:	8b 55 0c             	mov    0xc(%ebp),%edx
   313d8:	8b 4d 14             	mov    0x14(%ebp),%ecx
   313db:	88 45 ec             	mov    %al,0xffffffec(%ebp)
   313de:	88 55 e8             	mov    %dl,0xffffffe8(%ebp)
   313e1:	88 4d e4             	mov    %cl,0xffffffe4(%ebp)
   313e4:	0f b6 45 ec          	movzbl 0xffffffec(%ebp),%eax
   313e8:	c1 e0 03             	shl    $0x3,%eax
   313eb:	05 00 82 03 00       	add    $0x38200,%eax
   313f0:	89 45 f8             	mov    %eax,0xfffffff8(%ebp)
   313f3:	8b 45 10             	mov    0x10(%ebp),%eax
   313f6:	89 45 fc             	mov    %eax,0xfffffffc(%ebp)
   313f9:	8b 45 fc             	mov    0xfffffffc(%ebp),%eax
   313fc:	89 c2                	mov    %eax,%edx
   313fe:	8b 45 f8             	mov    0xfffffff8(%ebp),%eax
   31401:	66 89 10             	mov    %dx,(%eax)
   31404:	8b 45 fc             	mov    0xfffffffc(%ebp),%eax
   31407:	c1 e8 10             	shr    $0x10,%eax
   3140a:	89 c2                	mov    %eax,%edx
   3140c:	8b 45 f8             	mov    0xfffffff8(%ebp),%eax
   3140f:	66 89 50 06          	mov    %dx,0x6(%eax)
   31413:	8b 45 f8             	mov    0xfffffff8(%ebp),%eax
   31416:	66 c7 40 02 08 00    	movw   $0x8,0x2(%eax)
   3141c:	0f b6 45 e4          	movzbl 0xffffffe4(%ebp),%eax
   31420:	c1 e0 05             	shl    $0x5,%eax
   31423:	89 c2                	mov    %eax,%edx
   31425:	0f b6 45 e8          	movzbl 0xffffffe8(%ebp),%eax
   31429:	09 d0                	or     %edx,%eax
   3142b:	89 c2                	mov    %eax,%edx
   3142d:	8b 45 f8             	mov    0xfffffff8(%ebp),%eax
   31430:	88 50 05             	mov    %dl,0x5(%eax)
   31433:	8b 45 f8             	mov    0xfffffff8(%ebp),%eax
   31436:	c6 40 04 00          	movb   $0x0,0x4(%eax)
   3143a:	c9                   	leave  
   3143b:	c3                   	ret    

0003143c <init_prot>:
   3143c:	55                   	push   %ebp
   3143d:	89 e5                	mov    %esp,%ebp
   3143f:	83 ec 18             	sub    $0x18,%esp
   31442:	e8 39 06 00 00       	call   31a80 <init_8259A>
   31447:	c7 44 24 0c 00 00 00 	movl   $0x0,0xc(%esp)
   3144e:	00 
   3144f:	c7 44 24 08 80 19 03 	movl   $0x31980,0x8(%esp)
   31456:	00 
   31457:	c7 44 24 04 8e 00 00 	movl   $0x8e,0x4(%esp)
   3145e:	00 
   3145f:	c7 04 24 00 00 00 00 	movl   $0x0,(%esp)
   31466:	e8 61 ff ff ff       	call   313cc <init_idt_desc>
   3146b:	c7 44 24 0c 00 00 00 	movl   $0x0,0xc(%esp)
   31472:	00 
   31473:	c7 44 24 08 8f 19 03 	movl   $0x3198f,0x8(%esp)
   3147a:	00 
   3147b:	c7 44 24 04 8e 00 00 	movl   $0x8e,0x4(%esp)
   31482:	00 
   31483:	c7 04 24 01 00 00 00 	movl   $0x1,(%esp)
   3148a:	e8 3d ff ff ff       	call   313cc <init_idt_desc>
   3148f:	c7 44 24 0c 00 00 00 	movl   $0x0,0xc(%esp)
   31496:	00 
   31497:	c7 44 24 08 9e 19 03 	movl   $0x3199e,0x8(%esp)
   3149e:	00 
   3149f:	c7 44 24 04 8e 00 00 	movl   $0x8e,0x4(%esp)
   314a6:	00 
   314a7:	c7 04 24 02 00 00 00 	movl   $0x2,(%esp)
   314ae:	e8 19 ff ff ff       	call   313cc <init_idt_desc>
   314b3:	c7 44 24 0c 03 00 00 	movl   $0x3,0xc(%esp)
   314ba:	00 
   314bb:	c7 44 24 08 ad 19 03 	movl   $0x319ad,0x8(%esp)
   314c2:	00 
   314c3:	c7 44 24 04 8e 00 00 	movl   $0x8e,0x4(%esp)
   314ca:	00 
   314cb:	c7 04 24 03 00 00 00 	movl   $0x3,(%esp)
   314d2:	e8 f5 fe ff ff       	call   313cc <init_idt_desc>
   314d7:	c7 44 24 0c 00 00 00 	movl   $0x0,0xc(%esp)
   314de:	00 
   314df:	c7 44 24 08 bc 19 03 	movl   $0x319bc,0x8(%esp)
   314e6:	00 
   314e7:	c7 44 24 04 8e 00 00 	movl   $0x8e,0x4(%esp)
   314ee:	00 
   314ef:	c7 04 24 04 00 00 00 	movl   $0x4,(%esp)
   314f6:	e8 d1 fe ff ff       	call   313cc <init_idt_desc>
   314fb:	c7 44 24 0c 00 00 00 	movl   $0x0,0xc(%esp)
   31502:	00 
   31503:	c7 44 24 08 cb 19 03 	movl   $0x319cb,0x8(%esp)
   3150a:	00 
   3150b:	c7 44 24 04 8e 00 00 	movl   $0x8e,0x4(%esp)
   31512:	00 
   31513:	c7 04 24 05 00 00 00 	movl   $0x5,(%esp)
   3151a:	e8 ad fe ff ff       	call   313cc <init_idt_desc>
   3151f:	c7 44 24 0c 00 00 00 	movl   $0x0,0xc(%esp)
   31526:	00 
   31527:	c7 44 24 08 da 19 03 	movl   $0x319da,0x8(%esp)
   3152e:	00 
   3152f:	c7 44 24 04 8e 00 00 	movl   $0x8e,0x4(%esp)
   31536:	00 
   31537:	c7 04 24 06 00 00 00 	movl   $0x6,(%esp)
   3153e:	e8 89 fe ff ff       	call   313cc <init_idt_desc>
   31543:	c7 44 24 0c 00 00 00 	movl   $0x0,0xc(%esp)
   3154a:	00 
   3154b:	c7 44 24 08 e9 19 03 	movl   $0x319e9,0x8(%esp)
   31552:	00 
   31553:	c7 44 24 04 8e 00 00 	movl   $0x8e,0x4(%esp)
   3155a:	00 
   3155b:	c7 04 24 07 00 00 00 	movl   $0x7,(%esp)
   31562:	e8 65 fe ff ff       	call   313cc <init_idt_desc>
   31567:	c7 44 24 0c 00 00 00 	movl   $0x0,0xc(%esp)
   3156e:	00 
   3156f:	c7 44 24 08 f8 19 03 	movl   $0x319f8,0x8(%esp)
   31576:	00 
   31577:	c7 44 24 04 8e 00 00 	movl   $0x8e,0x4(%esp)
   3157e:	00 
   3157f:	c7 04 24 08 00 00 00 	movl   $0x8,(%esp)
   31586:	e8 41 fe ff ff       	call   313cc <init_idt_desc>
   3158b:	c7 44 24 0c 00 00 00 	movl   $0x0,0xc(%esp)
   31592:	00 
   31593:	c7 44 24 08 02 1a 03 	movl   $0x31a02,0x8(%esp)
   3159a:	00 
   3159b:	c7 44 24 04 8e 00 00 	movl   $0x8e,0x4(%esp)
   315a2:	00 
   315a3:	c7 04 24 09 00 00 00 	movl   $0x9,(%esp)
   315aa:	e8 1d fe ff ff       	call   313cc <init_idt_desc>
   315af:	c7 44 24 0c 00 00 00 	movl   $0x0,0xc(%esp)
   315b6:	00 
   315b7:	c7 44 24 08 11 1a 03 	movl   $0x31a11,0x8(%esp)
   315be:	00 
   315bf:	c7 44 24 04 8e 00 00 	movl   $0x8e,0x4(%esp)
   315c6:	00 
   315c7:	c7 04 24 0a 00 00 00 	movl   $0xa,(%esp)
   315ce:	e8 f9 fd ff ff       	call   313cc <init_idt_desc>
   315d3:	c7 44 24 0c 00 00 00 	movl   $0x0,0xc(%esp)
   315da:	00 
   315db:	c7 44 24 08 1b 1a 03 	movl   $0x31a1b,0x8(%esp)
   315e2:	00 
   315e3:	c7 44 24 04 8e 00 00 	movl   $0x8e,0x4(%esp)
   315ea:	00 
   315eb:	c7 04 24 0b 00 00 00 	movl   $0xb,(%esp)
   315f2:	e8 d5 fd ff ff       	call   313cc <init_idt_desc>
   315f7:	c7 44 24 0c 00 00 00 	movl   $0x0,0xc(%esp)
   315fe:	00 
   315ff:	c7 44 24 08 25 1a 03 	movl   $0x31a25,0x8(%esp)
   31606:	00 
   31607:	c7 44 24 04 8e 00 00 	movl   $0x8e,0x4(%esp)
   3160e:	00 
   3160f:	c7 04 24 0c 00 00 00 	movl   $0xc,(%esp)
   31616:	e8 b1 fd ff ff       	call   313cc <init_idt_desc>
   3161b:	c7 44 24 0c 00 00 00 	movl   $0x0,0xc(%esp)
   31622:	00 
   31623:	c7 44 24 08 2f 1a 03 	movl   $0x31a2f,0x8(%esp)
   3162a:	00 
   3162b:	c7 44 24 04 8e 00 00 	movl   $0x8e,0x4(%esp)
   31632:	00 
   31633:	c7 04 24 0d 00 00 00 	movl   $0xd,(%esp)
   3163a:	e8 8d fd ff ff       	call   313cc <init_idt_desc>
   3163f:	c7 44 24 0c 00 00 00 	movl   $0x0,0xc(%esp)
   31646:	00 
   31647:	c7 44 24 08 39 1a 03 	movl   $0x31a39,0x8(%esp)
   3164e:	00 
   3164f:	c7 44 24 04 8e 00 00 	movl   $0x8e,0x4(%esp)
   31656:	00 
   31657:	c7 04 24 0e 00 00 00 	movl   $0xe,(%esp)
   3165e:	e8 69 fd ff ff       	call   313cc <init_idt_desc>
   31663:	c7 44 24 0c 00 00 00 	movl   $0x0,0xc(%esp)
   3166a:	00 
   3166b:	c7 44 24 08 43 1a 03 	movl   $0x31a43,0x8(%esp)
   31672:	00 
   31673:	c7 44 24 04 8e 00 00 	movl   $0x8e,0x4(%esp)
   3167a:	00 
   3167b:	c7 04 24 10 00 00 00 	movl   $0x10,(%esp)
   31682:	e8 45 fd ff ff       	call   313cc <init_idt_desc>
   31687:	c7 44 24 0c 00 00 00 	movl   $0x0,0xc(%esp)
   3168e:	00 
   3168f:	c7 44 24 08 52 1a 03 	movl   $0x31a52,0x8(%esp)
   31696:	00 
   31697:	c7 44 24 04 8e 00 00 	movl   $0x8e,0x4(%esp)
   3169e:	00 
   3169f:	c7 04 24 11 00 00 00 	movl   $0x11,(%esp)
   316a6:	e8 21 fd ff ff       	call   313cc <init_idt_desc>
   316ab:	c7 44 24 0c 00 00 00 	movl   $0x0,0xc(%esp)
   316b2:	00 
   316b3:	c7 44 24 08 5c 1a 03 	movl   $0x31a5c,0x8(%esp)
   316ba:	00 
   316bb:	c7 44 24 04 8e 00 00 	movl   $0x8e,0x4(%esp)
   316c2:	00 
   316c3:	c7 04 24 12 00 00 00 	movl   $0x12,(%esp)
   316ca:	e8 fd fc ff ff       	call   313cc <init_idt_desc>
   316cf:	c7 44 24 0c 00 00 00 	movl   $0x0,0xc(%esp)
   316d6:	00 
   316d7:	c7 44 24 08 6b 1a 03 	movl   $0x31a6b,0x8(%esp)
   316de:	00 
   316df:	c7 44 24 04 8e 00 00 	movl   $0x8e,0x4(%esp)
   316e6:	00 
   316e7:	c7 04 24 13 00 00 00 	movl   $0x13,(%esp)
   316ee:	e8 d9 fc ff ff       	call   313cc <init_idt_desc>
   316f3:	c7 44 24 0c 00 00 00 	movl   $0x0,0xc(%esp)
   316fa:	00 
   316fb:	c7 44 24 08 e0 25 03 	movl   $0x325e0,0x8(%esp)
   31702:	00 
   31703:	c7 44 24 04 8e 00 00 	movl   $0x8e,0x4(%esp)
   3170a:	00 
   3170b:	c7 04 24 20 00 00 00 	movl   $0x20,(%esp)
   31712:	e8 b5 fc ff ff       	call   313cc <init_idt_desc>
   31717:	c7 44 24 0c 00 00 00 	movl   $0x0,0xc(%esp)
   3171e:	00 
   3171f:	c7 44 24 08 1f 26 03 	movl   $0x3261f,0x8(%esp)
   31726:	00 
   31727:	c7 44 24 04 8e 00 00 	movl   $0x8e,0x4(%esp)
   3172e:	00 
   3172f:	c7 04 24 21 00 00 00 	movl   $0x21,(%esp)
   31736:	e8 91 fc ff ff       	call   313cc <init_idt_desc>
   3173b:	c7 44 24 0c 03 00 00 	movl   $0x3,0xc(%esp)
   31742:	00 
   31743:	c7 44 24 08 04 19 03 	movl   $0x31904,0x8(%esp)
   3174a:	00 
   3174b:	c7 44 24 04 8e 00 00 	movl   $0x8e,0x4(%esp)
   31752:	00 
   31753:	c7 04 24 90 00 00 00 	movl   $0x90,(%esp)
   3175a:	e8 6d fc ff ff       	call   313cc <init_idt_desc>
   3175f:	c9                   	leave  
   31760:	c3                   	ret    

00031761 <set_hd_handler>:
   31761:	55                   	push   %ebp
   31762:	89 e5                	mov    %esp,%ebp
   31764:	83 ec 10             	sub    $0x10,%esp
   31767:	c7 44 24 0c 00 00 00 	movl   $0x0,0xc(%esp)
   3176e:	00 
   3176f:	8b 45 08             	mov    0x8(%ebp),%eax
   31772:	89 44 24 08          	mov    %eax,0x8(%esp)
   31776:	c7 44 24 04 8e 00 00 	movl   $0x8e,0x4(%esp)
   3177d:	00 
   3177e:	c7 04 24 2e 00 00 00 	movl   $0x2e,(%esp)
   31785:	e8 42 fc ff ff       	call   313cc <init_idt_desc>
   3178a:	c9                   	leave  
   3178b:	c3                   	ret    

0003178c <exception_handler>:
   3178c:	55                   	push   %ebp
   3178d:	89 e5                	mov    %esp,%ebp
   3178f:	83 ec 18             	sub    $0x18,%esp
   31792:	c7 45 f8 74 00 00 00 	movl   $0x74,0xfffffff8(%ebp)
   31799:	a1 00 81 03 00       	mov    0x38100,%eax
   3179e:	89 04 24             	mov    %eax,(%esp)
   317a1:	e8 0f 06 00 00       	call   31db5 <pid2proc>
   317a6:	89 45 fc             	mov    %eax,0xfffffffc(%ebp)
   317a9:	8b 45 08             	mov    0x8(%ebp),%eax
   317ac:	89 44 24 04          	mov    %eax,0x4(%esp)
   317b0:	c7 04 24 e0 49 03 00 	movl   $0x349e0,(%esp)
   317b7:	e8 d0 09 00 00       	call   3218c <printf_kernel>
   317bc:	8b 45 0c             	mov    0xc(%ebp),%eax
   317bf:	89 44 24 04          	mov    %eax,0x4(%esp)
   317c3:	c7 04 24 03 4a 03 00 	movl   $0x34a03,(%esp)
   317ca:	e8 bd 09 00 00       	call   3218c <printf_kernel>
   317cf:	a1 00 81 03 00       	mov    0x38100,%eax
   317d4:	89 44 24 04          	mov    %eax,0x4(%esp)
   317d8:	c7 04 24 12 4a 03 00 	movl   $0x34a12,(%esp)
   317df:	e8 a8 09 00 00       	call   3218c <printf_kernel>
   317e4:	8b 45 14             	mov    0x14(%ebp),%eax
   317e7:	89 44 24 04          	mov    %eax,0x4(%esp)
   317eb:	c7 04 24 21 4a 03 00 	movl   $0x34a21,(%esp)
   317f2:	e8 95 09 00 00       	call   3218c <printf_kernel>
   317f7:	8b 45 10             	mov    0x10(%ebp),%eax
   317fa:	89 44 24 04          	mov    %eax,0x4(%esp)
   317fe:	c7 04 24 31 4a 03 00 	movl   $0x34a31,(%esp)
   31805:	e8 82 09 00 00       	call   3218c <printf_kernel>
   3180a:	a1 38 78 03 00       	mov    0x37838,%eax
   3180f:	89 44 24 04          	mov    %eax,0x4(%esp)
   31813:	c7 04 24 42 4a 03 00 	movl   $0x34a42,(%esp)
   3181a:	e8 6d 09 00 00       	call   3218c <printf_kernel>
   3181f:	a1 e8 7c 03 00       	mov    0x37ce8,%eax
   31824:	89 44 24 04          	mov    %eax,0x4(%esp)
   31828:	c7 04 24 5a 4a 03 00 	movl   $0x34a5a,(%esp)
   3182f:	e8 58 09 00 00       	call   3218c <printf_kernel>
   31834:	8b 45 fc             	mov    0xfffffffc(%ebp),%eax
   31837:	8b 40 38             	mov    0x38(%eax),%eax
   3183a:	89 44 24 04          	mov    %eax,0x4(%esp)
   3183e:	c7 04 24 68 4a 03 00 	movl   $0x34a68,(%esp)
   31845:	e8 42 09 00 00       	call   3218c <printf_kernel>
   3184a:	8b 45 fc             	mov    0xfffffffc(%ebp),%eax
   3184d:	8b 40 34             	mov    0x34(%eax),%eax
   31850:	89 44 24 04          	mov    %eax,0x4(%esp)
   31854:	c7 04 24 7a 4a 03 00 	movl   $0x34a7a,(%esp)
   3185b:	e8 2c 09 00 00       	call   3218c <printf_kernel>
   31860:	e8 15 07 00 00       	call   31f7a <printIPC>
   31865:	c9                   	leave  
   31866:	c3                   	ret    

00031867 <debug>:
   31867:	55                   	push   %ebp
   31868:	89 e5                	mov    %esp,%ebp
   3186a:	83 ec 18             	sub    $0x18,%esp
   3186d:	8d 45 08             	lea    0x8(%ebp),%eax
   31870:	83 e8 04             	sub    $0x4,%eax
   31873:	89 45 fc             	mov    %eax,0xfffffffc(%ebp)
   31876:	83 45 fc 08          	addl   $0x8,0xfffffffc(%ebp)
   3187a:	8b 45 fc             	mov    0xfffffffc(%ebp),%eax
   3187d:	8b 00                	mov    (%eax),%eax
   3187f:	89 44 24 04          	mov    %eax,0x4(%esp)
   31883:	c7 04 24 8d 4a 03 00 	movl   $0x34a8d,(%esp)
   3188a:	e8 fd 08 00 00       	call   3218c <printf_kernel>
   3188f:	c9                   	leave  
   31890:	c3                   	ret    

00031891 <jumpout>:
   31891:	55                   	push   %ebp
   31892:	89 e5                	mov    %esp,%ebp
   31894:	83 ec 18             	sub    $0x18,%esp
   31897:	8d 45 08             	lea    0x8(%ebp),%eax
   3189a:	83 e8 04             	sub    $0x4,%eax
   3189d:	89 45 fc             	mov    %eax,0xfffffffc(%ebp)
   318a0:	83 45 fc 08          	addl   $0x8,0xfffffffc(%ebp)
   318a4:	8b 45 fc             	mov    0xfffffffc(%ebp),%eax
   318a7:	8b 00                	mov    (%eax),%eax
   318a9:	89 44 24 04          	mov    %eax,0x4(%esp)
   318ad:	c7 04 24 a5 4a 03 00 	movl   $0x34aa5,(%esp)
   318b4:	e8 d3 08 00 00       	call   3218c <printf_kernel>
   318b9:	c9                   	leave  
   318ba:	c3                   	ret    

000318bb <printInterrupted>:
   318bb:	55                   	push   %ebp
   318bc:	89 e5                	mov    %esp,%ebp
   318be:	83 ec 18             	sub    $0x18,%esp
   318c1:	a1 00 81 03 00       	mov    0x38100,%eax
   318c6:	89 04 24             	mov    %eax,(%esp)
   318c9:	e8 e7 04 00 00       	call   31db5 <pid2proc>
   318ce:	89 45 fc             	mov    %eax,0xfffffffc(%ebp)
   318d1:	c7 04 24 be 4a 03 00 	movl   $0x34abe,(%esp)
   318d8:	e8 af 08 00 00       	call   3218c <printf_kernel>
   318dd:	8b 45 fc             	mov    0xfffffffc(%ebp),%eax
   318e0:	8b 40 34             	mov    0x34(%eax),%eax
   318e3:	89 44 24 04          	mov    %eax,0x4(%esp)
   318e7:	c7 04 24 ca 4a 03 00 	movl   $0x34aca,(%esp)
   318ee:	e8 99 08 00 00       	call   3218c <printf_kernel>
   318f3:	c9                   	leave  
   318f4:	c3                   	ret    
   318f5:	90                   	nop    
   318f6:	90                   	nop    
   318f7:	90                   	nop    
   318f8:	90                   	nop    
   318f9:	90                   	nop    
   318fa:	90                   	nop    
   318fb:	90                   	nop    
   318fc:	90                   	nop    
   318fd:	90                   	nop    
   318fe:	90                   	nop    
   318ff:	90                   	nop    

00031900 <__sys_call_local>:
   31900:	00 00                	add    %al,(%eax)
	...

00031904 <sys_call>:
   31904:	c7 05 3c 78 03 00 01 	movl   $0x1,0x3783c
   3190b:	00 00 00 
   3190e:	e8 40 0d 00 00       	call   32653 <Save>
   31913:	fb                   	sti    
   31914:	52                   	push   %edx
   31915:	8b 15 00 81 03 00    	mov    0x38100,%edx
   3191b:	89 15 00 19 03 00    	mov    %edx,0x31900
   31921:	5a                   	pop    %edx
   31922:	55                   	push   %ebp
   31923:	89 e5                	mov    %esp,%ebp
   31925:	52                   	push   %edx
   31926:	51                   	push   %ecx
   31927:	53                   	push   %ebx
   31928:	ff 35 00 19 03 00    	pushl  0x31900
   3192e:	ff 14 85 a0 81 03 00 	call   *0x381a0(,%eax,4)
   31935:	81 c4 10 00 00 00    	add    $0x10,%esp
   3193b:	89 ec                	mov    %ebp,%esp
   3193d:	5d                   	pop    %ebp
   3193e:	fa                   	cli    
   3193f:	c7 05 3c 78 03 00 00 	movl   $0x0,0x3783c
   31946:	00 00 00 
   31949:	c3                   	ret    

0003194a <printx>:
   3194a:	55                   	push   %ebp
   3194b:	89 e5                	mov    %esp,%ebp
   3194d:	8b 5d 08             	mov    0x8(%ebp),%ebx
   31950:	8b 4d 0c             	mov    0xc(%ebp),%ecx
   31953:	b8 01 00 00 00       	mov    $0x1,%eax
   31958:	cd 90                	int    $0x90
   3195a:	89 ec                	mov    %ebp,%esp
   3195c:	5d                   	pop    %ebp
   3195d:	c3                   	ret    

0003195e <sendrec>:
   3195e:	55                   	push   %ebp
   3195f:	89 e5                	mov    %esp,%ebp
   31961:	8b 5d 08             	mov    0x8(%ebp),%ebx
   31964:	8b 4d 0c             	mov    0xc(%ebp),%ecx
   31967:	8b 55 10             	mov    0x10(%ebp),%edx
   3196a:	b8 02 00 00 00       	mov    $0x2,%eax
   3196f:	cd 90                	int    $0x90
   31971:	89 ec                	mov    %ebp,%esp
   31973:	5d                   	pop    %ebp
   31974:	c3                   	ret    
   31975:	90                   	nop    
   31976:	90                   	nop    
   31977:	90                   	nop    
   31978:	90                   	nop    
   31979:	90                   	nop    
   3197a:	90                   	nop    
   3197b:	90                   	nop    
   3197c:	90                   	nop    
   3197d:	90                   	nop    
   3197e:	90                   	nop    
   3197f:	90                   	nop    

00031980 <divide_error>:
   31980:	68 ff ff ff ff       	push   $0xffffffff
   31985:	68 00 00 00 00       	push   $0x0
   3198a:	e9 eb 00 00 00       	jmp    31a7a <exception>

0003198f <single_step_exception>:
   3198f:	68 ff ff ff ff       	push   $0xffffffff
   31994:	68 01 00 00 00       	push   $0x1
   31999:	e9 dc 00 00 00       	jmp    31a7a <exception>

0003199e <nmi>:
   3199e:	68 ff ff ff ff       	push   $0xffffffff
   319a3:	68 02 00 00 00       	push   $0x2
   319a8:	e9 cd 00 00 00       	jmp    31a7a <exception>

000319ad <breakpoint_exception>:
   319ad:	68 ff ff ff ff       	push   $0xffffffff
   319b2:	68 03 00 00 00       	push   $0x3
   319b7:	e9 be 00 00 00       	jmp    31a7a <exception>

000319bc <overflow>:
   319bc:	68 ff ff ff ff       	push   $0xffffffff
   319c1:	68 04 00 00 00       	push   $0x4
   319c6:	e9 af 00 00 00       	jmp    31a7a <exception>

000319cb <bounds_check>:
   319cb:	68 ff ff ff ff       	push   $0xffffffff
   319d0:	68 05 00 00 00       	push   $0x5
   319d5:	e9 a0 00 00 00       	jmp    31a7a <exception>

000319da <inval_opcode>:
   319da:	68 ff ff ff ff       	push   $0xffffffff
   319df:	68 06 00 00 00       	push   $0x6
   319e4:	e9 91 00 00 00       	jmp    31a7a <exception>

000319e9 <copr_not_available>:
   319e9:	68 ff ff ff ff       	push   $0xffffffff
   319ee:	68 07 00 00 00       	push   $0x7
   319f3:	e9 82 00 00 00       	jmp    31a7a <exception>

000319f8 <double_fault>:
   319f8:	68 08 00 00 00       	push   $0x8
   319fd:	e9 78 00 00 00       	jmp    31a7a <exception>

00031a02 <copr_seg_overrun>:
   31a02:	68 ff ff ff ff       	push   $0xffffffff
   31a07:	68 09 00 00 00       	push   $0x9
   31a0c:	e9 69 00 00 00       	jmp    31a7a <exception>

00031a11 <inval_tss>:
   31a11:	68 0a 00 00 00       	push   $0xa
   31a16:	e9 5f 00 00 00       	jmp    31a7a <exception>

00031a1b <segment_not_present>:
   31a1b:	68 0b 00 00 00       	push   $0xb
   31a20:	e9 55 00 00 00       	jmp    31a7a <exception>

00031a25 <stack_exception>:
   31a25:	68 0c 00 00 00       	push   $0xc
   31a2a:	e9 4b 00 00 00       	jmp    31a7a <exception>

00031a2f <general_protection>:
   31a2f:	68 0d 00 00 00       	push   $0xd
   31a34:	e9 41 00 00 00       	jmp    31a7a <exception>

00031a39 <page_fault>:
   31a39:	68 0e 00 00 00       	push   $0xe
   31a3e:	e9 37 00 00 00       	jmp    31a7a <exception>

00031a43 <copr_error>:
   31a43:	68 ff ff ff ff       	push   $0xffffffff
   31a48:	68 10 00 00 00       	push   $0x10
   31a4d:	e9 28 00 00 00       	jmp    31a7a <exception>

00031a52 <align_error>:
   31a52:	68 11 00 00 00       	push   $0x11
   31a57:	e9 1e 00 00 00       	jmp    31a7a <exception>

00031a5c <machine_error>:
   31a5c:	68 ff ff ff ff       	push   $0xffffffff
   31a61:	68 12 00 00 00       	push   $0x12
   31a66:	e9 0f 00 00 00       	jmp    31a7a <exception>

00031a6b <simd_error>:
   31a6b:	68 ff ff ff ff       	push   $0xffffffff
   31a70:	68 13 00 00 00       	push   $0x13
   31a75:	e9 00 00 00 00       	jmp    31a7a <exception>

00031a7a <exception>:
   31a7a:	e8 0d fd ff ff       	call   3178c <exception_handler>
   31a7f:	f4                   	hlt    

00031a80 <init_8259A>:
   31a80:	55                   	push   %ebp
   31a81:	89 e5                	mov    %esp,%ebp
   31a83:	83 ec 08             	sub    $0x8,%esp
   31a86:	c7 44 24 04 11 00 00 	movl   $0x11,0x4(%esp)
   31a8d:	00 
   31a8e:	c7 04 24 20 00 00 00 	movl   $0x20,(%esp)
   31a95:	e8 bc 0f 00 00       	call   32a56 <out_byte>
   31a9a:	c7 44 24 04 20 00 00 	movl   $0x20,0x4(%esp)
   31aa1:	00 
   31aa2:	c7 04 24 21 00 00 00 	movl   $0x21,(%esp)
   31aa9:	e8 a8 0f 00 00       	call   32a56 <out_byte>
   31aae:	c7 44 24 04 04 00 00 	movl   $0x4,0x4(%esp)
   31ab5:	00 
   31ab6:	c7 04 24 21 00 00 00 	movl   $0x21,(%esp)
   31abd:	e8 94 0f 00 00       	call   32a56 <out_byte>
   31ac2:	c7 44 24 04 01 00 00 	movl   $0x1,0x4(%esp)
   31ac9:	00 
   31aca:	c7 04 24 21 00 00 00 	movl   $0x21,(%esp)
   31ad1:	e8 80 0f 00 00       	call   32a56 <out_byte>
   31ad6:	c7 44 24 04 fc 00 00 	movl   $0xfc,0x4(%esp)
   31add:	00 
   31ade:	c7 04 24 21 00 00 00 	movl   $0x21,(%esp)
   31ae5:	e8 6c 0f 00 00       	call   32a56 <out_byte>
   31aea:	c7 44 24 04 11 00 00 	movl   $0x11,0x4(%esp)
   31af1:	00 
   31af2:	c7 04 24 a0 00 00 00 	movl   $0xa0,(%esp)
   31af9:	e8 58 0f 00 00       	call   32a56 <out_byte>
   31afe:	c7 44 24 04 28 00 00 	movl   $0x28,0x4(%esp)
   31b05:	00 
   31b06:	c7 04 24 a1 00 00 00 	movl   $0xa1,(%esp)
   31b0d:	e8 44 0f 00 00       	call   32a56 <out_byte>
   31b12:	c7 44 24 04 02 00 00 	movl   $0x2,0x4(%esp)
   31b19:	00 
   31b1a:	c7 04 24 a1 00 00 00 	movl   $0xa1,(%esp)
   31b21:	e8 30 0f 00 00       	call   32a56 <out_byte>
   31b26:	c7 44 24 04 01 00 00 	movl   $0x1,0x4(%esp)
   31b2d:	00 
   31b2e:	c7 04 24 a1 00 00 00 	movl   $0xa1,(%esp)
   31b35:	e8 1c 0f 00 00       	call   32a56 <out_byte>
   31b3a:	c7 44 24 04 ff 00 00 	movl   $0xff,0x4(%esp)
   31b41:	00 
   31b42:	c7 04 24 a1 00 00 00 	movl   $0xa1,(%esp)
   31b49:	e8 08 0f 00 00       	call   32a56 <out_byte>
   31b4e:	c9                   	leave  
   31b4f:	c3                   	ret    

00031b50 <enable_slave8259>:
   31b50:	55                   	push   %ebp
   31b51:	89 e5                	mov    %esp,%ebp
   31b53:	83 ec 18             	sub    $0x18,%esp
   31b56:	c7 04 24 21 00 00 00 	movl   $0x21,(%esp)
   31b5d:	e8 04 0f 00 00       	call   32a66 <in_byte>
   31b62:	0f b6 c0             	movzbl %al,%eax
   31b65:	89 45 fc             	mov    %eax,0xfffffffc(%ebp)
   31b68:	81 65 fc fb 00 00 00 	andl   $0xfb,0xfffffffc(%ebp)
   31b6f:	8b 45 fc             	mov    0xfffffffc(%ebp),%eax
   31b72:	0f b6 c0             	movzbl %al,%eax
   31b75:	89 44 24 04          	mov    %eax,0x4(%esp)
   31b79:	c7 04 24 21 00 00 00 	movl   $0x21,(%esp)
   31b80:	e8 d1 0e 00 00       	call   32a56 <out_byte>
   31b85:	c9                   	leave  
   31b86:	c3                   	ret    

00031b87 <disable_slave8259>:
   31b87:	55                   	push   %ebp
   31b88:	89 e5                	mov    %esp,%ebp
   31b8a:	83 ec 18             	sub    $0x18,%esp
   31b8d:	c7 04 24 21 00 00 00 	movl   $0x21,(%esp)
   31b94:	e8 cd 0e 00 00       	call   32a66 <in_byte>
   31b99:	0f b6 c0             	movzbl %al,%eax
   31b9c:	89 45 fc             	mov    %eax,0xfffffffc(%ebp)
   31b9f:	83 4d fc 04          	orl    $0x4,0xfffffffc(%ebp)
   31ba3:	8b 45 fc             	mov    0xfffffffc(%ebp),%eax
   31ba6:	0f b6 c0             	movzbl %al,%eax
   31ba9:	89 44 24 04          	mov    %eax,0x4(%esp)
   31bad:	c7 04 24 21 00 00 00 	movl   $0x21,(%esp)
   31bb4:	e8 9d 0e 00 00       	call   32a56 <out_byte>
   31bb9:	c9                   	leave  
   31bba:	c3                   	ret    

00031bbb <enable_disk>:
   31bbb:	55                   	push   %ebp
   31bbc:	89 e5                	mov    %esp,%ebp
   31bbe:	83 ec 18             	sub    $0x18,%esp
   31bc1:	e8 8a ff ff ff       	call   31b50 <enable_slave8259>
   31bc6:	c7 04 24 a1 00 00 00 	movl   $0xa1,(%esp)
   31bcd:	e8 94 0e 00 00       	call   32a66 <in_byte>
   31bd2:	0f b6 c0             	movzbl %al,%eax
   31bd5:	89 45 fc             	mov    %eax,0xfffffffc(%ebp)
   31bd8:	81 65 fc bf 00 00 00 	andl   $0xbf,0xfffffffc(%ebp)
   31bdf:	8b 45 fc             	mov    0xfffffffc(%ebp),%eax
   31be2:	0f b6 c0             	movzbl %al,%eax
   31be5:	89 44 24 04          	mov    %eax,0x4(%esp)
   31be9:	c7 04 24 a1 00 00 00 	movl   $0xa1,(%esp)
   31bf0:	e8 61 0e 00 00       	call   32a56 <out_byte>
   31bf5:	c9                   	leave  
   31bf6:	c3                   	ret    

00031bf7 <disable_disk>:
   31bf7:	55                   	push   %ebp
   31bf8:	89 e5                	mov    %esp,%ebp
   31bfa:	83 ec 18             	sub    $0x18,%esp
   31bfd:	c7 04 24 a1 00 00 00 	movl   $0xa1,(%esp)
   31c04:	e8 5d 0e 00 00       	call   32a66 <in_byte>
   31c09:	0f b6 c0             	movzbl %al,%eax
   31c0c:	89 45 fc             	mov    %eax,0xfffffffc(%ebp)
   31c0f:	83 4d fc 40          	orl    $0x40,0xfffffffc(%ebp)
   31c13:	8b 45 fc             	mov    0xfffffffc(%ebp),%eax
   31c16:	0f b6 c0             	movzbl %al,%eax
   31c19:	89 44 24 04          	mov    %eax,0x4(%esp)
   31c1d:	c7 04 24 a1 00 00 00 	movl   $0xa1,(%esp)
   31c24:	e8 2d 0e 00 00       	call   32a56 <out_byte>
   31c29:	c9                   	leave  
   31c2a:	c3                   	ret    

00031c2b <enable_clock>:
   31c2b:	55                   	push   %ebp
   31c2c:	89 e5                	mov    %esp,%ebp
   31c2e:	83 ec 18             	sub    $0x18,%esp
   31c31:	c7 04 24 21 00 00 00 	movl   $0x21,(%esp)
   31c38:	e8 29 0e 00 00       	call   32a66 <in_byte>
   31c3d:	0f b6 c0             	movzbl %al,%eax
   31c40:	89 45 fc             	mov    %eax,0xfffffffc(%ebp)
   31c43:	81 65 fc fe 00 00 00 	andl   $0xfe,0xfffffffc(%ebp)
   31c4a:	8b 45 fc             	mov    0xfffffffc(%ebp),%eax
   31c4d:	0f b6 c0             	movzbl %al,%eax
   31c50:	89 44 24 04          	mov    %eax,0x4(%esp)
   31c54:	c7 04 24 21 00 00 00 	movl   $0x21,(%esp)
   31c5b:	e8 f6 0d 00 00       	call   32a56 <out_byte>
   31c60:	c9                   	leave  
   31c61:	c3                   	ret    

00031c62 <disable_clock>:
   31c62:	55                   	push   %ebp
   31c63:	89 e5                	mov    %esp,%ebp
   31c65:	83 ec 18             	sub    $0x18,%esp
   31c68:	c7 04 24 21 00 00 00 	movl   $0x21,(%esp)
   31c6f:	e8 f2 0d 00 00       	call   32a66 <in_byte>
   31c74:	0f b6 c0             	movzbl %al,%eax
   31c77:	89 45 fc             	mov    %eax,0xfffffffc(%ebp)
   31c7a:	83 4d fc 01          	orl    $0x1,0xfffffffc(%ebp)
   31c7e:	8b 45 fc             	mov    0xfffffffc(%ebp),%eax
   31c81:	0f b6 c0             	movzbl %al,%eax
   31c84:	89 44 24 04          	mov    %eax,0x4(%esp)
   31c88:	c7 04 24 21 00 00 00 	movl   $0x21,(%esp)
   31c8f:	e8 c2 0d 00 00       	call   32a56 <out_byte>
   31c94:	c9                   	leave  
   31c95:	c3                   	ret    

00031c96 <enable_keyboard>:
   31c96:	55                   	push   %ebp
   31c97:	89 e5                	mov    %esp,%ebp
   31c99:	83 ec 18             	sub    $0x18,%esp
   31c9c:	c7 04 24 21 00 00 00 	movl   $0x21,(%esp)
   31ca3:	e8 be 0d 00 00       	call   32a66 <in_byte>
   31ca8:	0f b6 c0             	movzbl %al,%eax
   31cab:	89 45 fc             	mov    %eax,0xfffffffc(%ebp)
   31cae:	81 65 fc fd 00 00 00 	andl   $0xfd,0xfffffffc(%ebp)
   31cb5:	8b 45 fc             	mov    0xfffffffc(%ebp),%eax
   31cb8:	0f b6 c0             	movzbl %al,%eax
   31cbb:	89 44 24 04          	mov    %eax,0x4(%esp)
   31cbf:	c7 04 24 21 00 00 00 	movl   $0x21,(%esp)
   31cc6:	e8 8b 0d 00 00       	call   32a56 <out_byte>
   31ccb:	c9                   	leave  
   31ccc:	c3                   	ret    

00031ccd <disable_keyboard>:
   31ccd:	55                   	push   %ebp
   31cce:	89 e5                	mov    %esp,%ebp
   31cd0:	83 ec 18             	sub    $0x18,%esp
   31cd3:	c7 04 24 21 00 00 00 	movl   $0x21,(%esp)
   31cda:	e8 87 0d 00 00       	call   32a66 <in_byte>
   31cdf:	0f b6 c0             	movzbl %al,%eax
   31ce2:	89 45 fc             	mov    %eax,0xfffffffc(%ebp)
   31ce5:	83 4d fc 02          	orl    $0x2,0xfffffffc(%ebp)
   31ce9:	8b 45 fc             	mov    0xfffffffc(%ebp),%eax
   31cec:	0f b6 c0             	movzbl %al,%eax
   31cef:	89 44 24 04          	mov    %eax,0x4(%esp)
   31cf3:	c7 04 24 21 00 00 00 	movl   $0x21,(%esp)
   31cfa:	e8 57 0d 00 00       	call   32a56 <out_byte>
   31cff:	c9                   	leave  
   31d00:	c3                   	ret    

00031d01 <triggerSlave8259>:
   31d01:	55                   	push   %ebp
   31d02:	89 e5                	mov    %esp,%ebp
   31d04:	83 ec 08             	sub    $0x8,%esp
   31d07:	c7 44 24 04 20 00 00 	movl   $0x20,0x4(%esp)
   31d0e:	00 
   31d0f:	c7 04 24 a0 00 00 00 	movl   $0xa0,(%esp)
   31d16:	e8 3b 0d 00 00       	call   32a56 <out_byte>
   31d1b:	c9                   	leave  
   31d1c:	c3                   	ret    

00031d1d <triggerMaster8259>:
   31d1d:	55                   	push   %ebp
   31d1e:	89 e5                	mov    %esp,%ebp
   31d20:	83 ec 08             	sub    $0x8,%esp
   31d23:	c7 44 24 04 20 00 00 	movl   $0x20,0x4(%esp)
   31d2a:	00 
   31d2b:	c7 04 24 20 00 00 00 	movl   $0x20,(%esp)
   31d32:	e8 1f 0d 00 00       	call   32a56 <out_byte>
   31d37:	c9                   	leave  
   31d38:	c3                   	ret    
   31d39:	90                   	nop    
   31d3a:	90                   	nop    
   31d3b:	90                   	nop    

00031d3c <proc2pid>:
   31d3c:	55                   	push   %ebp
   31d3d:	89 e5                	mov    %esp,%ebp
   31d3f:	83 ec 18             	sub    $0x18,%esp
   31d42:	83 7d 08 00          	cmpl   $0x0,0x8(%ebp)
   31d46:	75 24                	jne    31d6c <proc2pid+0x30>
   31d48:	c7 44 24 0c 11 00 00 	movl   $0x11,0xc(%esp)
   31d4f:	00 
   31d50:	c7 44 24 08 38 4b 03 	movl   $0x34b38,0x8(%esp)
   31d57:	00 
   31d58:	c7 44 24 04 38 4b 03 	movl   $0x34b38,0x4(%esp)
   31d5f:	00 
   31d60:	c7 04 24 4b 4b 03 00 	movl   $0x34b4b,(%esp)
   31d67:	e8 7d 0e 00 00       	call   32be9 <assertion_failure_kernel>
   31d6c:	81 7d 08 20 8a 03 00 	cmpl   $0x38a20,0x8(%ebp)
   31d73:	77 24                	ja     31d99 <proc2pid+0x5d>
   31d75:	c7 44 24 0c 12 00 00 	movl   $0x12,0xc(%esp)
   31d7c:	00 
   31d7d:	c7 44 24 08 38 4b 03 	movl   $0x34b38,0x8(%esp)
   31d84:	00 
   31d85:	c7 44 24 04 38 4b 03 	movl   $0x34b38,0x4(%esp)
   31d8c:	00 
   31d8d:	c7 04 24 50 4b 03 00 	movl   $0x34b50,(%esp)
   31d94:	e8 50 0e 00 00       	call   32be9 <assertion_failure_kernel>
   31d99:	8b 55 08             	mov    0x8(%ebp),%edx
   31d9c:	b8 20 8a 03 00       	mov    $0x38a20,%eax
   31da1:	89 d1                	mov    %edx,%ecx
   31da3:	29 c1                	sub    %eax,%ecx
   31da5:	89 c8                	mov    %ecx,%eax
   31da7:	c1 f8 02             	sar    $0x2,%eax
   31daa:	69 c0 bf e5 b2 69    	imul   $0x69b2e5bf,%eax,%eax
   31db0:	83 c0 01             	add    $0x1,%eax
   31db3:	c9                   	leave  
   31db4:	c3                   	ret    

00031db5 <pid2proc>:
   31db5:	55                   	push   %ebp
   31db6:	89 e5                	mov    %esp,%ebp
   31db8:	83 ec 18             	sub    $0x18,%esp
   31dbb:	83 7d 08 00          	cmpl   $0x0,0x8(%ebp)
   31dbf:	7f 09                	jg     31dca <pid2proc+0x15>
   31dc1:	c7 45 fc 00 00 00 00 	movl   $0x0,0xfffffffc(%ebp)
   31dc8:	eb 44                	jmp    31e0e <pid2proc+0x59>
   31dca:	83 7d 08 00          	cmpl   $0x0,0x8(%ebp)
   31dce:	7f 24                	jg     31df4 <pid2proc+0x3f>
   31dd0:	c7 44 24 0c 1c 00 00 	movl   $0x1c,0xc(%esp)
   31dd7:	00 
   31dd8:	c7 44 24 08 38 4b 03 	movl   $0x34b38,0x8(%esp)
   31ddf:	00 
   31de0:	c7 44 24 04 38 4b 03 	movl   $0x34b38,0x4(%esp)
   31de7:	00 
   31de8:	c7 04 24 60 4b 03 00 	movl   $0x34b60,(%esp)
   31def:	e8 f5 0d 00 00       	call   32be9 <assertion_failure_kernel>
   31df4:	8b 45 08             	mov    0x8(%ebp),%eax
   31df7:	69 c0 fc 28 00 00    	imul   $0x28fc,%eax,%eax
   31dfd:	89 c2                	mov    %eax,%edx
   31dff:	b8 20 8a 03 00       	mov    $0x38a20,%eax
   31e04:	2d fc 28 00 00       	sub    $0x28fc,%eax
   31e09:	01 c2                	add    %eax,%edx
   31e0b:	89 55 fc             	mov    %edx,0xfffffffc(%ebp)
   31e0e:	8b 45 fc             	mov    0xfffffffc(%ebp),%eax
   31e11:	c9                   	leave  
   31e12:	c3                   	ret    

00031e13 <unblock>:
   31e13:	55                   	push   %ebp
   31e14:	89 e5                	mov    %esp,%ebp
   31e16:	83 ec 18             	sub    $0x18,%esp
   31e19:	8b 45 08             	mov    0x8(%ebp),%eax
   31e1c:	8b 80 e0 28 00 00    	mov    0x28e0(%eax),%eax
   31e22:	85 c0                	test   %eax,%eax
   31e24:	74 24                	je     31e4a <unblock+0x37>
   31e26:	c7 44 24 0c 28 00 00 	movl   $0x28,0xc(%esp)
   31e2d:	00 
   31e2e:	c7 44 24 08 38 4b 03 	movl   $0x34b38,0x8(%esp)
   31e35:	00 
   31e36:	c7 44 24 04 38 4b 03 	movl   $0x34b38,0x4(%esp)
   31e3d:	00 
   31e3e:	c7 04 24 66 4b 03 00 	movl   $0x34b66,(%esp)
   31e45:	e8 9f 0d 00 00       	call   32be9 <assertion_failure_kernel>
   31e4a:	a1 34 78 03 00       	mov    0x37834,%eax
   31e4f:	83 f8 01             	cmp    $0x1,%eax
   31e52:	75 31                	jne    31e85 <unblock+0x72>
   31e54:	8b 45 08             	mov    0x8(%ebp),%eax
   31e57:	89 04 24             	mov    %eax,(%esp)
   31e5a:	e8 dd fe ff ff       	call   31d3c <proc2pid>
   31e5f:	89 c2                	mov    %eax,%edx
   31e61:	a1 04 50 03 00       	mov    0x35004,%eax
   31e66:	39 c2                	cmp    %eax,%edx
   31e68:	75 1b                	jne    31e85 <unblock+0x72>
   31e6a:	8b 45 08             	mov    0x8(%ebp),%eax
   31e6d:	89 04 24             	mov    %eax,(%esp)
   31e70:	e8 c7 fe ff ff       	call   31d3c <proc2pid>
   31e75:	89 44 24 04          	mov    %eax,0x4(%esp)
   31e79:	c7 04 24 7b 4b 03 00 	movl   $0x34b7b,(%esp)
   31e80:	e8 07 03 00 00       	call   3218c <printf_kernel>
   31e85:	c9                   	leave  
   31e86:	c3                   	ret    

00031e87 <block>:
   31e87:	55                   	push   %ebp
   31e88:	89 e5                	mov    %esp,%ebp
   31e8a:	83 ec 28             	sub    $0x28,%esp
   31e8d:	c7 45 fc 74 00 00 00 	movl   $0x74,0xfffffffc(%ebp)
   31e94:	8b 45 08             	mov    0x8(%ebp),%eax
   31e97:	8b 80 e0 28 00 00    	mov    0x28e0(%eax),%eax
   31e9d:	85 c0                	test   %eax,%eax
   31e9f:	75 24                	jne    31ec5 <block+0x3e>
   31ea1:	c7 44 24 0c 3d 00 00 	movl   $0x3d,0xc(%esp)
   31ea8:	00 
   31ea9:	c7 44 24 08 38 4b 03 	movl   $0x34b38,0x8(%esp)
   31eb0:	00 
   31eb1:	c7 44 24 04 38 4b 03 	movl   $0x34b38,0x4(%esp)
   31eb8:	00 
   31eb9:	c7 04 24 88 4b 03 00 	movl   $0x34b88,(%esp)
   31ec0:	e8 24 0d 00 00       	call   32be9 <assertion_failure_kernel>
   31ec5:	a1 34 78 03 00       	mov    0x37834,%eax
   31eca:	83 f8 01             	cmp    $0x1,%eax
   31ecd:	75 31                	jne    31f00 <block+0x79>
   31ecf:	8b 45 08             	mov    0x8(%ebp),%eax
   31ed2:	89 04 24             	mov    %eax,(%esp)
   31ed5:	e8 62 fe ff ff       	call   31d3c <proc2pid>
   31eda:	89 c2                	mov    %eax,%edx
   31edc:	a1 04 50 03 00       	mov    0x35004,%eax
   31ee1:	39 c2                	cmp    %eax,%edx
   31ee3:	75 1b                	jne    31f00 <block+0x79>
   31ee5:	8b 45 08             	mov    0x8(%ebp),%eax
   31ee8:	89 04 24             	mov    %eax,(%esp)
   31eeb:	e8 4c fe ff ff       	call   31d3c <proc2pid>
   31ef0:	89 44 24 04          	mov    %eax,0x4(%esp)
   31ef4:	c7 04 24 9d 4b 03 00 	movl   $0x34b9d,(%esp)
   31efb:	e8 8c 02 00 00       	call   3218c <printf_kernel>
   31f00:	e8 bf f3 ff ff       	call   312c4 <schedule>
   31f05:	c9                   	leave  
   31f06:	c3                   	ret    

00031f07 <va2la>:
   31f07:	55                   	push   %ebp
   31f08:	89 e5                	mov    %esp,%ebp
   31f0a:	83 ec 20             	sub    $0x20,%esp
   31f0d:	8b 45 08             	mov    0x8(%ebp),%eax
   31f10:	69 c0 fc 28 00 00    	imul   $0x28fc,%eax,%eax
   31f16:	89 c2                	mov    %eax,%edx
   31f18:	b8 20 8a 03 00       	mov    $0x38a20,%eax
   31f1d:	2d fc 28 00 00       	sub    $0x28fc,%eax
   31f22:	8d 04 02             	lea    (%edx,%eax,1),%eax
   31f25:	89 45 f4             	mov    %eax,0xfffffff4(%ebp)
   31f28:	8b 45 f4             	mov    0xfffffff4(%ebp),%eax
   31f2b:	8b 40 0c             	mov    0xc(%eax),%eax
   31f2e:	89 45 f8             	mov    %eax,0xfffffff8(%ebp)
   31f31:	8b 45 f8             	mov    0xfffffff8(%ebp),%eax
   31f34:	83 e0 f0             	and    $0xfffffff0,%eax
   31f37:	89 c2                	mov    %eax,%edx
   31f39:	c1 ea 03             	shr    $0x3,%edx
   31f3c:	8b 45 f4             	mov    0xfffffff4(%ebp),%eax
   31f3f:	8d 54 d0 54          	lea    0x54(%eax,%edx,8),%edx
   31f43:	8b 02                	mov    (%edx),%eax
   31f45:	8b 52 04             	mov    0x4(%edx),%edx
   31f48:	89 45 ec             	mov    %eax,0xffffffec(%ebp)
   31f4b:	89 55 f0             	mov    %edx,0xfffffff0(%ebp)
   31f4e:	0f b7 45 ee          	movzwl 0xffffffee(%ebp),%eax
   31f52:	0f b7 d0             	movzwl %ax,%edx
   31f55:	0f b6 45 f0          	movzbl 0xfffffff0(%ebp),%eax
   31f59:	0f b6 c0             	movzbl %al,%eax
   31f5c:	01 c2                	add    %eax,%edx
   31f5e:	0f b6 45 f3          	movzbl 0xfffffff3(%ebp),%eax
   31f62:	0f b6 c0             	movzbl %al,%eax
   31f65:	8d 48 10             	lea    0x10(%eax),%ecx
   31f68:	89 d0                	mov    %edx,%eax
   31f6a:	d3 e0                	shl    %cl,%eax
   31f6c:	c1 e0 18             	shl    $0x18,%eax
   31f6f:	89 45 fc             	mov    %eax,0xfffffffc(%ebp)
   31f72:	8b 45 0c             	mov    0xc(%ebp),%eax
   31f75:	03 45 fc             	add    0xfffffffc(%ebp),%eax
   31f78:	c9                   	leave  
   31f79:	c3                   	ret    

00031f7a <printIPC>:
   31f7a:	55                   	push   %ebp
   31f7b:	89 e5                	mov    %esp,%ebp
   31f7d:	83 ec 18             	sub    $0x18,%esp
   31f80:	c7 45 f8 00 00 00 00 	movl   $0x0,0xfffffff8(%ebp)
   31f87:	eb 6e                	jmp    31ff7 <printIPC+0x7d>
   31f89:	8b 45 f8             	mov    0xfffffff8(%ebp),%eax
   31f8c:	69 c0 fc 28 00 00    	imul   $0x28fc,%eax,%eax
   31f92:	8b 80 fc b2 03 00    	mov    0x3b2fc(%eax),%eax
   31f98:	85 c0                	test   %eax,%eax
   31f9a:	75 57                	jne    31ff3 <printIPC+0x79>
   31f9c:	8b 45 f8             	mov    0xfffffff8(%ebp),%eax
   31f9f:	69 c0 fc 28 00 00    	imul   $0x28fc,%eax,%eax
   31fa5:	8b 80 10 b3 03 00    	mov    0x3b310(%eax),%eax
   31fab:	89 45 fc             	mov    %eax,0xfffffffc(%ebp)
   31fae:	8b 45 f8             	mov    0xfffffff8(%ebp),%eax
   31fb1:	83 c0 01             	add    $0x1,%eax
   31fb4:	89 44 24 04          	mov    %eax,0x4(%esp)
   31fb8:	c7 04 24 a8 4b 03 00 	movl   $0x34ba8,(%esp)
   31fbf:	e8 c8 01 00 00       	call   3218c <printf_kernel>
   31fc4:	eb 27                	jmp    31fed <printIPC+0x73>
   31fc6:	8b 45 fc             	mov    0xfffffffc(%ebp),%eax
   31fc9:	89 04 24             	mov    %eax,(%esp)
   31fcc:	e8 6b fd ff ff       	call   31d3c <proc2pid>
   31fd1:	89 44 24 04          	mov    %eax,0x4(%esp)
   31fd5:	c7 04 24 b9 4b 03 00 	movl   $0x34bb9,(%esp)
   31fdc:	e8 ab 01 00 00       	call   3218c <printf_kernel>
   31fe1:	8b 45 fc             	mov    0xfffffffc(%ebp),%eax
   31fe4:	8b 80 ec 28 00 00    	mov    0x28ec(%eax),%eax
   31fea:	89 45 fc             	mov    %eax,0xfffffffc(%ebp)
   31fed:	83 7d fc 00          	cmpl   $0x0,0xfffffffc(%ebp)
   31ff1:	75 d3                	jne    31fc6 <printIPC+0x4c>
   31ff3:	83 45 f8 01          	addl   $0x1,0xfffffff8(%ebp)
   31ff7:	83 7d f8 27          	cmpl   $0x27,0xfffffff8(%ebp)
   31ffb:	7e 8c                	jle    31f89 <printIPC+0xf>
   31ffd:	c7 04 24 bd 4b 03 00 	movl   $0x34bbd,(%esp)
   32004:	e8 83 01 00 00       	call   3218c <printf_kernel>
   32009:	c9                   	leave  
   3200a:	c3                   	ret    

0003200b <interrupt_wait>:
   3200b:	55                   	push   %ebp
   3200c:	89 e5                	mov    %esp,%ebp
   3200e:	83 ec 48             	sub    $0x48,%esp
   32011:	8d 45 d0             	lea    0xffffffd0(%ebp),%eax
   32014:	89 44 24 08          	mov    %eax,0x8(%esp)
   32018:	c7 44 24 04 00 00 00 	movl   $0x0,0x4(%esp)
   3201f:	00 
   32020:	c7 04 24 02 00 00 00 	movl   $0x2,(%esp)
   32027:	e8 32 f9 ff ff       	call   3195e <sendrec>
   3202c:	c9                   	leave  
   3202d:	c3                   	ret    
   3202e:	90                   	nop    
   3202f:	90                   	nop    

00032030 <printf>:
   32030:	55                   	push   %ebp
   32031:	89 e5                	mov    %esp,%ebp
   32033:	81 ec 28 01 00 00    	sub    $0x128,%esp
   32039:	8d 45 08             	lea    0x8(%ebp),%eax
   3203c:	83 c0 04             	add    $0x4,%eax
   3203f:	89 45 fc             	mov    %eax,0xfffffffc(%ebp)
   32042:	8b 45 08             	mov    0x8(%ebp),%eax
   32045:	89 44 24 08          	mov    %eax,0x8(%esp)
   32049:	8b 45 fc             	mov    0xfffffffc(%ebp),%eax
   3204c:	89 44 24 04          	mov    %eax,0x4(%esp)
   32050:	8d 85 f8 fe ff ff    	lea    0xfffffef8(%ebp),%eax
   32056:	89 04 24             	mov    %eax,(%esp)
   32059:	e8 1d 00 00 00       	call   3207b <vsprintf>
   3205e:	89 45 f8             	mov    %eax,0xfffffff8(%ebp)
   32061:	8b 45 f8             	mov    0xfffffff8(%ebp),%eax
   32064:	89 44 24 04          	mov    %eax,0x4(%esp)
   32068:	8d 85 f8 fe ff ff    	lea    0xfffffef8(%ebp),%eax
   3206e:	89 04 24             	mov    %eax,(%esp)
   32071:	e8 d4 f8 ff ff       	call   3194a <printx>
   32076:	8b 45 f8             	mov    0xfffffff8(%ebp),%eax
   32079:	c9                   	leave  
   3207a:	c3                   	ret    

0003207b <vsprintf>:
   3207b:	55                   	push   %ebp
   3207c:	89 e5                	mov    %esp,%ebp
   3207e:	81 ec 28 01 00 00    	sub    $0x128,%esp
   32084:	8b 45 0c             	mov    0xc(%ebp),%eax
   32087:	89 45 f8             	mov    %eax,0xfffffff8(%ebp)
   3208a:	8b 45 08             	mov    0x8(%ebp),%eax
   3208d:	89 45 f4             	mov    %eax,0xfffffff4(%ebp)
   32090:	e9 d9 00 00 00       	jmp    3216e <vsprintf+0xf3>
   32095:	8b 45 10             	mov    0x10(%ebp),%eax
   32098:	0f b6 00             	movzbl (%eax),%eax
   3209b:	3c 25                	cmp    $0x25,%al
   3209d:	74 14                	je     320b3 <vsprintf+0x38>
   3209f:	8b 45 10             	mov    0x10(%ebp),%eax
   320a2:	0f b6 10             	movzbl (%eax),%edx
   320a5:	8b 45 f4             	mov    0xfffffff4(%ebp),%eax
   320a8:	88 10                	mov    %dl,(%eax)
   320aa:	83 45 f4 01          	addl   $0x1,0xfffffff4(%ebp)
   320ae:	e9 b7 00 00 00       	jmp    3216a <vsprintf+0xef>
   320b3:	83 45 10 01          	addl   $0x1,0x10(%ebp)
   320b7:	8b 45 10             	mov    0x10(%ebp),%eax
   320ba:	0f b6 00             	movzbl (%eax),%eax
   320bd:	0f be c0             	movsbl %al,%eax
   320c0:	89 85 ec fe ff ff    	mov    %eax,0xfffffeec(%ebp)
   320c6:	83 bd ec fe ff ff 64 	cmpl   $0x64,0xfffffeec(%ebp)
   320cd:	74 17                	je     320e6 <vsprintf+0x6b>
   320cf:	83 bd ec fe ff ff 73 	cmpl   $0x73,0xfffffeec(%ebp)
   320d6:	74 66                	je     3213e <vsprintf+0xc3>
   320d8:	83 bd ec fe ff ff 63 	cmpl   $0x63,0xfffffeec(%ebp)
   320df:	74 48                	je     32129 <vsprintf+0xae>
   320e1:	e9 84 00 00 00       	jmp    3216a <vsprintf+0xef>
   320e6:	8b 45 f8             	mov    0xfffffff8(%ebp),%eax
   320e9:	8b 00                	mov    (%eax),%eax
   320eb:	89 44 24 04          	mov    %eax,0x4(%esp)
   320ef:	8d 85 f4 fe ff ff    	lea    0xfffffef4(%ebp),%eax
   320f5:	89 04 24             	mov    %eax,(%esp)
   320f8:	e8 ad 0b 00 00       	call   32caa <itoa>
   320fd:	8d 85 f4 fe ff ff    	lea    0xfffffef4(%ebp),%eax
   32103:	89 44 24 04          	mov    %eax,0x4(%esp)
   32107:	8b 45 f4             	mov    0xfffffff4(%ebp),%eax
   3210a:	89 04 24             	mov    %eax,(%esp)
   3210d:	e8 34 0c 00 00       	call   32d46 <strcpy>
   32112:	83 45 f8 04          	addl   $0x4,0xfffffff8(%ebp)
   32116:	8d 85 f4 fe ff ff    	lea    0xfffffef4(%ebp),%eax
   3211c:	89 04 24             	mov    %eax,(%esp)
   3211f:	e8 57 0c 00 00       	call   32d7b <strlen>
   32124:	01 45 f4             	add    %eax,0xfffffff4(%ebp)
   32127:	eb 41                	jmp    3216a <vsprintf+0xef>
   32129:	8b 45 f8             	mov    0xfffffff8(%ebp),%eax
   3212c:	0f b6 10             	movzbl (%eax),%edx
   3212f:	8b 45 f4             	mov    0xfffffff4(%ebp),%eax
   32132:	88 10                	mov    %dl,(%eax)
   32134:	83 45 f8 04          	addl   $0x4,0xfffffff8(%ebp)
   32138:	83 45 f4 01          	addl   $0x1,0xfffffff4(%ebp)
   3213c:	eb 2c                	jmp    3216a <vsprintf+0xef>
   3213e:	8b 45 f8             	mov    0xfffffff8(%ebp),%eax
   32141:	8b 00                	mov    (%eax),%eax
   32143:	89 45 fc             	mov    %eax,0xfffffffc(%ebp)
   32146:	8b 45 fc             	mov    0xfffffffc(%ebp),%eax
   32149:	89 44 24 04          	mov    %eax,0x4(%esp)
   3214d:	8b 45 f4             	mov    0xfffffff4(%ebp),%eax
   32150:	89 04 24             	mov    %eax,(%esp)
   32153:	e8 ee 0b 00 00       	call   32d46 <strcpy>
   32158:	8b 45 fc             	mov    0xfffffffc(%ebp),%eax
   3215b:	89 04 24             	mov    %eax,(%esp)
   3215e:	e8 18 0c 00 00       	call   32d7b <strlen>
   32163:	01 45 f4             	add    %eax,0xfffffff4(%ebp)
   32166:	83 45 f8 04          	addl   $0x4,0xfffffff8(%ebp)
   3216a:	83 45 10 01          	addl   $0x1,0x10(%ebp)
   3216e:	8b 45 10             	mov    0x10(%ebp),%eax
   32171:	0f b6 00             	movzbl (%eax),%eax
   32174:	84 c0                	test   %al,%al
   32176:	0f 85 19 ff ff ff    	jne    32095 <vsprintf+0x1a>
   3217c:	8b 55 f4             	mov    0xfffffff4(%ebp),%edx
   3217f:	8b 45 08             	mov    0x8(%ebp),%eax
   32182:	89 d1                	mov    %edx,%ecx
   32184:	29 c1                	sub    %eax,%ecx
   32186:	89 c8                	mov    %ecx,%eax
   32188:	c9                   	leave  
   32189:	c3                   	ret    
   3218a:	90                   	nop    
   3218b:	90                   	nop    

0003218c <printf_kernel>:
   3218c:	55                   	push   %ebp
   3218d:	89 e5                	mov    %esp,%ebp
   3218f:	81 ec 28 01 00 00    	sub    $0x128,%esp
   32195:	8d 45 08             	lea    0x8(%ebp),%eax
   32198:	83 c0 04             	add    $0x4,%eax
   3219b:	89 45 fc             	mov    %eax,0xfffffffc(%ebp)
   3219e:	8b 45 08             	mov    0x8(%ebp),%eax
   321a1:	89 44 24 08          	mov    %eax,0x8(%esp)
   321a5:	8b 45 fc             	mov    0xfffffffc(%ebp),%eax
   321a8:	89 44 24 04          	mov    %eax,0x4(%esp)
   321ac:	8d 85 f8 fe ff ff    	lea    0xfffffef8(%ebp),%eax
   321b2:	89 04 24             	mov    %eax,(%esp)
   321b5:	e8 1d 00 00 00       	call   321d7 <vsprintf>
   321ba:	89 45 f8             	mov    %eax,0xfffffff8(%ebp)
   321bd:	8b 45 f8             	mov    0xfffffff8(%ebp),%eax
   321c0:	89 44 24 04          	mov    %eax,0x4(%esp)
   321c4:	8d 85 f8 fe ff ff    	lea    0xfffffef8(%ebp),%eax
   321ca:	89 04 24             	mov    %eax,(%esp)
   321cd:	e8 14 01 00 00       	call   322e6 <kernel_printx>
   321d2:	8b 45 f8             	mov    0xfffffff8(%ebp),%eax
   321d5:	c9                   	leave  
   321d6:	c3                   	ret    

000321d7 <vsprintf>:
   321d7:	55                   	push   %ebp
   321d8:	89 e5                	mov    %esp,%ebp
   321da:	81 ec 28 01 00 00    	sub    $0x128,%esp
   321e0:	8b 45 0c             	mov    0xc(%ebp),%eax
   321e3:	89 45 f8             	mov    %eax,0xfffffff8(%ebp)
   321e6:	8b 45 08             	mov    0x8(%ebp),%eax
   321e9:	89 45 f4             	mov    %eax,0xfffffff4(%ebp)
   321ec:	e9 d9 00 00 00       	jmp    322ca <vsprintf+0xf3>
   321f1:	8b 45 10             	mov    0x10(%ebp),%eax
   321f4:	0f b6 00             	movzbl (%eax),%eax
   321f7:	3c 25                	cmp    $0x25,%al
   321f9:	74 14                	je     3220f <vsprintf+0x38>
   321fb:	8b 45 10             	mov    0x10(%ebp),%eax
   321fe:	0f b6 10             	movzbl (%eax),%edx
   32201:	8b 45 f4             	mov    0xfffffff4(%ebp),%eax
   32204:	88 10                	mov    %dl,(%eax)
   32206:	83 45 f4 01          	addl   $0x1,0xfffffff4(%ebp)
   3220a:	e9 b7 00 00 00       	jmp    322c6 <vsprintf+0xef>
   3220f:	83 45 10 01          	addl   $0x1,0x10(%ebp)
   32213:	8b 45 10             	mov    0x10(%ebp),%eax
   32216:	0f b6 00             	movzbl (%eax),%eax
   32219:	0f be c0             	movsbl %al,%eax
   3221c:	89 85 ec fe ff ff    	mov    %eax,0xfffffeec(%ebp)
   32222:	83 bd ec fe ff ff 64 	cmpl   $0x64,0xfffffeec(%ebp)
   32229:	74 17                	je     32242 <vsprintf+0x6b>
   3222b:	83 bd ec fe ff ff 73 	cmpl   $0x73,0xfffffeec(%ebp)
   32232:	74 66                	je     3229a <vsprintf+0xc3>
   32234:	83 bd ec fe ff ff 63 	cmpl   $0x63,0xfffffeec(%ebp)
   3223b:	74 48                	je     32285 <vsprintf+0xae>
   3223d:	e9 84 00 00 00       	jmp    322c6 <vsprintf+0xef>
   32242:	8b 45 f8             	mov    0xfffffff8(%ebp),%eax
   32245:	8b 00                	mov    (%eax),%eax
   32247:	89 44 24 04          	mov    %eax,0x4(%esp)
   3224b:	8d 85 f4 fe ff ff    	lea    0xfffffef4(%ebp),%eax
   32251:	89 04 24             	mov    %eax,(%esp)
   32254:	e8 51 0a 00 00       	call   32caa <itoa>
   32259:	8d 85 f4 fe ff ff    	lea    0xfffffef4(%ebp),%eax
   3225f:	89 44 24 04          	mov    %eax,0x4(%esp)
   32263:	8b 45 f4             	mov    0xfffffff4(%ebp),%eax
   32266:	89 04 24             	mov    %eax,(%esp)
   32269:	e8 d8 0a 00 00       	call   32d46 <strcpy>
   3226e:	83 45 f8 04          	addl   $0x4,0xfffffff8(%ebp)
   32272:	8d 85 f4 fe ff ff    	lea    0xfffffef4(%ebp),%eax
   32278:	89 04 24             	mov    %eax,(%esp)
   3227b:	e8 fb 0a 00 00       	call   32d7b <strlen>
   32280:	01 45 f4             	add    %eax,0xfffffff4(%ebp)
   32283:	eb 41                	jmp    322c6 <vsprintf+0xef>
   32285:	8b 45 f8             	mov    0xfffffff8(%ebp),%eax
   32288:	0f b6 10             	movzbl (%eax),%edx
   3228b:	8b 45 f4             	mov    0xfffffff4(%ebp),%eax
   3228e:	88 10                	mov    %dl,(%eax)
   32290:	83 45 f8 04          	addl   $0x4,0xfffffff8(%ebp)
   32294:	83 45 f4 01          	addl   $0x1,0xfffffff4(%ebp)
   32298:	eb 2c                	jmp    322c6 <vsprintf+0xef>
   3229a:	8b 45 f8             	mov    0xfffffff8(%ebp),%eax
   3229d:	8b 00                	mov    (%eax),%eax
   3229f:	89 45 fc             	mov    %eax,0xfffffffc(%ebp)
   322a2:	8b 45 fc             	mov    0xfffffffc(%ebp),%eax
   322a5:	89 44 24 04          	mov    %eax,0x4(%esp)
   322a9:	8b 45 f4             	mov    0xfffffff4(%ebp),%eax
   322ac:	89 04 24             	mov    %eax,(%esp)
   322af:	e8 92 0a 00 00       	call   32d46 <strcpy>
   322b4:	8b 45 fc             	mov    0xfffffffc(%ebp),%eax
   322b7:	89 04 24             	mov    %eax,(%esp)
   322ba:	e8 bc 0a 00 00       	call   32d7b <strlen>
   322bf:	01 45 f4             	add    %eax,0xfffffff4(%ebp)
   322c2:	83 45 f8 04          	addl   $0x4,0xfffffff8(%ebp)
   322c6:	83 45 10 01          	addl   $0x1,0x10(%ebp)
   322ca:	8b 45 10             	mov    0x10(%ebp),%eax
   322cd:	0f b6 00             	movzbl (%eax),%eax
   322d0:	84 c0                	test   %al,%al
   322d2:	0f 85 19 ff ff ff    	jne    321f1 <vsprintf+0x1a>
   322d8:	8b 55 f4             	mov    0xfffffff4(%ebp),%edx
   322db:	8b 45 08             	mov    0x8(%ebp),%eax
   322de:	89 d1                	mov    %edx,%ecx
   322e0:	29 c1                	sub    %eax,%ecx
   322e2:	89 c8                	mov    %ecx,%eax
   322e4:	c9                   	leave  
   322e5:	c3                   	ret    

000322e6 <kernel_printx>:
   322e6:	55                   	push   %ebp
   322e7:	89 e5                	mov    %esp,%ebp
   322e9:	83 ec 18             	sub    $0x18,%esp
   322ec:	c7 45 f4 00 00 00 00 	movl   $0x0,0xfffffff4(%ebp)
   322f3:	c7 45 f8 00 00 00 00 	movl   $0x0,0xfffffff8(%ebp)
   322fa:	c7 45 fc 00 00 00 00 	movl   $0x0,0xfffffffc(%ebp)
   32301:	c7 45 f4 00 00 00 00 	movl   $0x0,0xfffffff4(%ebp)
   32308:	eb 41                	jmp    3234b <kernel_printx+0x65>
   3230a:	8b 45 f4             	mov    0xfffffff4(%ebp),%eax
   3230d:	03 45 08             	add    0x8(%ebp),%eax
   32310:	0f b6 00             	movzbl (%eax),%eax
   32313:	3c 02                	cmp    $0x2,%al
   32315:	74 30                	je     32347 <kernel_printx+0x61>
   32317:	8b 45 f4             	mov    0xfffffff4(%ebp),%eax
   3231a:	03 45 08             	add    0x8(%ebp),%eax
   3231d:	0f b6 00             	movzbl (%eax),%eax
   32320:	3c 03                	cmp    $0x3,%al
   32322:	74 23                	je     32347 <kernel_printx+0x61>
   32324:	8b 45 f4             	mov    0xfffffff4(%ebp),%eax
   32327:	03 45 08             	add    0x8(%ebp),%eax
   3232a:	0f b6 00             	movzbl (%eax),%eax
   3232d:	0f be c0             	movsbl %al,%eax
   32330:	89 44 24 04          	mov    %eax,0x4(%esp)
   32334:	8b 45 f8             	mov    0xfffffff8(%ebp),%eax
   32337:	89 04 24             	mov    %eax,(%esp)
   3233a:	e8 80 1c 00 00       	call   33fbf <printChar>
   3233f:	85 c0                	test   %eax,%eax
   32341:	75 04                	jne    32347 <kernel_printx+0x61>
   32343:	83 45 fc 01          	addl   $0x1,0xfffffffc(%ebp)
   32347:	83 45 f4 01          	addl   $0x1,0xfffffff4(%ebp)
   3234b:	8b 45 f4             	mov    0xfffffff4(%ebp),%eax
   3234e:	3b 45 0c             	cmp    0xc(%ebp),%eax
   32351:	7d 0d                	jge    32360 <kernel_printx+0x7a>
   32353:	8b 45 f4             	mov    0xfffffff4(%ebp),%eax
   32356:	03 45 08             	add    0x8(%ebp),%eax
   32359:	0f b6 00             	movzbl (%eax),%eax
   3235c:	84 c0                	test   %al,%al
   3235e:	75 aa                	jne    3230a <kernel_printx+0x24>
   32360:	8b 45 f4             	mov    0xfffffff4(%ebp),%eax
   32363:	c9                   	leave  
   32364:	c3                   	ret    
   32365:	90                   	nop    
   32366:	90                   	nop    
   32367:	90                   	nop    

00032368 <init_Gdt_Idt>:
   32368:	55                   	push   %ebp
   32369:	89 e5                	mov    %esp,%ebp
   3236b:	83 ec 38             	sub    $0x38,%esp
   3236e:	c7 04 24 bf 4b 03 00 	movl   $0x34bbf,(%esp)
   32375:	e8 7a 06 00 00       	call   329f4 <disp_str>
   3237a:	c7 04 24 c6 4b 03 00 	movl   $0x34bc6,(%esp)
   32381:	e8 6e 06 00 00       	call   329f4 <disp_str>
   32386:	c7 04 24 cf 4b 03 00 	movl   $0x34bcf,(%esp)
   3238d:	e8 62 06 00 00       	call   329f4 <disp_str>
   32392:	c7 45 ec 00 00 00 00 	movl   $0x0,0xffffffec(%ebp)
   32399:	eb 4a                	jmp    323e5 <init_Gdt_Idt+0x7d>
   3239b:	8b 45 ec             	mov    0xffffffec(%ebp),%eax
   3239e:	66 c7 04 c5 00 7d 03 	movw   $0x0,0x37d00(,%eax,8)
   323a5:	00 00 00 
   323a8:	8b 45 ec             	mov    0xffffffec(%ebp),%eax
   323ab:	66 c7 04 c5 02 7d 03 	movw   $0x0,0x37d02(,%eax,8)
   323b2:	00 00 00 
   323b5:	8b 45 ec             	mov    0xffffffec(%ebp),%eax
   323b8:	c6 04 c5 04 7d 03 00 	movb   $0x0,0x37d04(,%eax,8)
   323bf:	00 
   323c0:	8b 45 ec             	mov    0xffffffec(%ebp),%eax
   323c3:	c6 04 c5 05 7d 03 00 	movb   $0x0,0x37d05(,%eax,8)
   323ca:	00 
   323cb:	8b 45 ec             	mov    0xffffffec(%ebp),%eax
   323ce:	c6 04 c5 06 7d 03 00 	movb   $0x0,0x37d06(,%eax,8)
   323d5:	00 
   323d6:	8b 45 ec             	mov    0xffffffec(%ebp),%eax
   323d9:	c6 04 c5 07 7d 03 00 	movb   $0x0,0x37d07(,%eax,8)
   323e0:	00 
   323e1:	83 45 ec 01          	addl   $0x1,0xffffffec(%ebp)
   323e5:	83 7d ec 7f          	cmpl   $0x7f,0xffffffec(%ebp)
   323e9:	7e b0                	jle    3239b <init_Gdt_Idt+0x33>
   323eb:	b8 e0 81 03 00       	mov    $0x381e0,%eax
   323f0:	0f b7 00             	movzwl (%eax),%eax
   323f3:	0f b7 c0             	movzwl %ax,%eax
   323f6:	8d 50 01             	lea    0x1(%eax),%edx
   323f9:	b8 e2 81 03 00       	mov    $0x381e2,%eax
   323fe:	8b 00                	mov    (%eax),%eax
   32400:	89 54 24 08          	mov    %edx,0x8(%esp)
   32404:	89 44 24 04          	mov    %eax,0x4(%esp)
   32408:	c7 04 24 00 7d 03 00 	movl   $0x37d00,(%esp)
   3240f:	e8 74 06 00 00       	call   32a88 <memcpy>
   32414:	c7 45 f0 e0 81 03 00 	movl   $0x381e0,0xfffffff0(%ebp)
   3241b:	b8 e2 81 03 00       	mov    $0x381e2,%eax
   32420:	89 45 f4             	mov    %eax,0xfffffff4(%ebp)
   32423:	8b 45 f0             	mov    0xfffffff0(%ebp),%eax
   32426:	66 c7 00 ff 03       	movw   $0x3ff,(%eax)
   3242b:	b8 00 7d 03 00       	mov    $0x37d00,%eax
   32430:	89 c2                	mov    %eax,%edx
   32432:	8b 45 f4             	mov    0xfffffff4(%ebp),%eax
   32435:	89 10                	mov    %edx,(%eax)
   32437:	c7 04 24 ec 4b 03 00 	movl   $0x34bec,(%esp)
   3243e:	e8 b1 05 00 00       	call   329f4 <disp_str>
   32443:	c7 45 f8 e0 7c 03 00 	movl   $0x37ce0,0xfffffff8(%ebp)
   3244a:	b8 e2 7c 03 00       	mov    $0x37ce2,%eax
   3244f:	89 45 fc             	mov    %eax,0xfffffffc(%ebp)
   32452:	8b 45 f8             	mov    0xfffffff8(%ebp),%eax
   32455:	66 c7 00 ff 07       	movw   $0x7ff,(%eax)
   3245a:	b8 00 82 03 00       	mov    $0x38200,%eax
   3245f:	89 c2                	mov    %eax,%edx
   32461:	8b 45 fc             	mov    0xfffffffc(%ebp),%eax
   32464:	89 10                	mov    %edx,(%eax)
   32466:	c9                   	leave  
   32467:	c3                   	ret    

00032468 <sys_init>:
   32468:	55                   	push   %ebp
   32469:	89 e5                	mov    %esp,%ebp
   3246b:	83 ec 08             	sub    $0x8,%esp
   3246e:	c7 04 24 09 4c 03 00 	movl   $0x34c09,(%esp)
   32475:	e8 7a 05 00 00       	call   329f4 <disp_str>
   3247a:	e8 bd ef ff ff       	call   3143c <init_prot>
   3247f:	c7 04 24 26 4c 03 00 	movl   $0x34c26,(%esp)
   32486:	e8 69 05 00 00       	call   329f4 <disp_str>
   3248b:	e8 3e 05 00 00       	call   329ce <init_sys_call>
   32490:	c7 05 00 8a 03 00 00 	movl   $0x0,0x38a00
   32497:	00 00 00 
   3249a:	c7 04 24 43 4c 03 00 	movl   $0x34c43,(%esp)
   324a1:	e8 4e 05 00 00       	call   329f4 <disp_str>
   324a6:	e8 31 00 00 00       	call   324dc <set_timer>
   324ab:	c7 04 24 60 4c 03 00 	movl   $0x34c60,(%esp)
   324b2:	e8 3d 05 00 00       	call   329f4 <disp_str>
   324b7:	e8 c9 0e 00 00       	call   33385 <init_all_ttys>
   324bc:	c7 05 80 f1 09 00 32 	movl   $0x32,0x9f180
   324c3:	00 00 00 
   324c6:	c7 05 80 f1 09 00 03 	movl   $0x3,0x9f180
   324cd:	00 00 00 
   324d0:	e8 d0 eb ff ff       	call   310a5 <init_process_table>
   324d5:	e8 ca 00 00 00       	call   325a4 <init_tss>
   324da:	c9                   	leave  
   324db:	c3                   	ret    

000324dc <set_timer>:
   324dc:	55                   	push   %ebp
   324dd:	89 e5                	mov    %esp,%ebp
   324df:	83 ec 08             	sub    $0x8,%esp
   324e2:	c7 44 24 04 34 00 00 	movl   $0x34,0x4(%esp)
   324e9:	00 
   324ea:	c7 04 24 43 00 00 00 	movl   $0x43,(%esp)
   324f1:	e8 60 05 00 00       	call   32a56 <out_byte>
   324f6:	c7 44 24 04 37 00 00 	movl   $0x37,0x4(%esp)
   324fd:	00 
   324fe:	c7 04 24 40 00 00 00 	movl   $0x40,(%esp)
   32505:	e8 4c 05 00 00       	call   32a56 <out_byte>
   3250a:	c7 44 24 04 5d 00 00 	movl   $0x5d,0x4(%esp)
   32511:	00 
   32512:	c7 04 24 40 00 00 00 	movl   $0x40,(%esp)
   32519:	e8 38 05 00 00       	call   32a56 <out_byte>
   3251e:	c9                   	leave  
   3251f:	c3                   	ret    

00032520 <setGDTEntry>:
   32520:	55                   	push   %ebp
   32521:	89 e5                	mov    %esp,%ebp
   32523:	83 ec 04             	sub    $0x4,%esp
   32526:	8b 45 14             	mov    0x14(%ebp),%eax
   32529:	66 89 45 fc          	mov    %ax,0xfffffffc(%ebp)
   3252d:	8b 55 08             	mov    0x8(%ebp),%edx
   32530:	8b 45 10             	mov    0x10(%ebp),%eax
   32533:	66 89 04 d5 00 7d 03 	mov    %ax,0x37d00(,%edx,8)
   3253a:	00 
   3253b:	8b 55 08             	mov    0x8(%ebp),%edx
   3253e:	8b 45 0c             	mov    0xc(%ebp),%eax
   32541:	66 89 04 d5 02 7d 03 	mov    %ax,0x37d02(,%edx,8)
   32548:	00 
   32549:	8b 55 08             	mov    0x8(%ebp),%edx
   3254c:	8b 45 0c             	mov    0xc(%ebp),%eax
   3254f:	c1 e8 10             	shr    $0x10,%eax
   32552:	88 04 d5 04 7d 03 00 	mov    %al,0x37d04(,%edx,8)
   32559:	8b 4d 08             	mov    0x8(%ebp),%ecx
   3255c:	0f b7 45 fc          	movzwl 0xfffffffc(%ebp),%eax
   32560:	89 c2                	mov    %eax,%edx
   32562:	b8 ff ff ff ff       	mov    $0xffffffff,%eax
   32567:	21 d0                	and    %edx,%eax
   32569:	88 04 cd 05 7d 03 00 	mov    %al,0x37d05(,%ecx,8)
   32570:	8b 4d 08             	mov    0x8(%ebp),%ecx
   32573:	0f b7 45 fc          	movzwl 0xfffffffc(%ebp),%eax
   32577:	66 c1 e8 08          	shr    $0x8,%ax
   3257b:	89 c2                	mov    %eax,%edx
   3257d:	83 e2 f0             	and    $0xfffffff0,%edx
   32580:	8b 45 10             	mov    0x10(%ebp),%eax
   32583:	c1 e8 10             	shr    $0x10,%eax
   32586:	83 e0 0f             	and    $0xf,%eax
   32589:	09 d0                	or     %edx,%eax
   3258b:	88 04 cd 06 7d 03 00 	mov    %al,0x37d06(,%ecx,8)
   32592:	8b 55 08             	mov    0x8(%ebp),%edx
   32595:	8b 45 0c             	mov    0xc(%ebp),%eax
   32598:	c1 e8 18             	shr    $0x18,%eax
   3259b:	88 04 d5 07 7d 03 00 	mov    %al,0x37d07(,%edx,8)
   325a2:	c9                   	leave  
   325a3:	c3                   	ret    

000325a4 <init_tss>:
   325a4:	55                   	push   %ebp
   325a5:	89 e5                	mov    %esp,%ebp
   325a7:	83 ec 10             	sub    $0x10,%esp
   325aa:	66 c7 05 88 81 03 00 	movw   $0xff,0x38188
   325b1:	ff 00 
   325b3:	b8 20 81 03 00       	mov    $0x38120,%eax
   325b8:	c7 44 24 0c 89 40 00 	movl   $0x4089,0xc(%esp)
   325bf:	00 
   325c0:	c7 44 24 08 6b 00 00 	movl   $0x6b,0x8(%esp)
   325c7:	00 
   325c8:	89 44 24 04          	mov    %eax,0x4(%esp)
   325cc:	c7 04 24 04 00 00 00 	movl   $0x4,(%esp)
   325d3:	e8 48 ff ff ff       	call   32520 <setGDTEntry>
   325d8:	c9                   	leave  
   325d9:	c3                   	ret    
   325da:	90                   	nop    
   325db:	90                   	nop    
   325dc:	90                   	nop    
   325dd:	90                   	nop    
   325de:	90                   	nop    
   325df:	90                   	nop    

000325e0 <clock_int>:
   325e0:	ff 05 00 8a 03 00    	incl   0x38a00
   325e6:	65 fe 05 1a 02 00 00 	incb   %gs:0x21a
   325ed:	e8 61 00 00 00       	call   32653 <Save>
   325f2:	b0 20                	mov    $0x20,%al
   325f4:	e6 20                	out    %al,$0x20
   325f6:	fb                   	sti    
   325f7:	ff 05 84 f1 09 00    	incl   0x9f184
   325fd:	a1 84 f1 09 00       	mov    0x9f184,%eax
   32602:	3b 05 80 f1 09 00    	cmp    0x9f180,%eax
   32608:	0f 86 0f 00 00 00    	jbe    3261d <clock_int.noswitch>
   3260e:	c7 05 84 f1 09 00 00 	movl   $0x0,0x9f184
   32615:	00 00 00 
   32618:	e8 a7 ec ff ff       	call   312c4 <schedule>

0003261d <clock_int.noswitch>:
   3261d:	fa                   	cli    
   3261e:	c3                   	ret    

0003261f <key_int>:
   3261f:	65 fe 05 1e 02 00 00 	incb   %gs:0x21e
   32626:	e8 28 00 00 00       	call   32653 <Save>
   3262b:	b0 20                	mov    $0x20,%al
   3262d:	e6 20                	out    %al,$0x20
   3262f:	fb                   	sti    
   32630:	e8 ab 13 00 00       	call   339e0 <key_interrupt>
   32635:	fa                   	cli    
   32636:	c3                   	ret    

00032637 <disk_int>:
   32637:	65 fe 05 20 02 00 00 	incb   %gs:0x220
   3263e:	e8 10 00 00 00       	call   32653 <Save>
   32643:	b0 20                	mov    $0x20,%al
   32645:	e6 a0                	out    %al,$0xa0
   32647:	b0 20                	mov    $0x20,%al
   32649:	e6 20                	out    %al,$0x20
   3264b:	fb                   	sti    
   3264c:	e8 cf 07 00 00       	call   32e20 <hd_handler>
   32651:	fa                   	cli    
   32652:	c3                   	ret    

00032653 <Save>:
   32653:	60                   	pusha  
   32654:	1e                   	push   %ds
   32655:	06                   	push   %es
   32656:	0f a0                	push   %fs
   32658:	0f a8                	push   %gs
   3265a:	66 8c d7             	movw   %ss,%di
   3265d:	8e df                	movl   %edi,%ds
   3265f:	8e c7                	movl   %edi,%es
   32661:	89 e7                	mov    %esp,%edi
   32663:	ff 05 e8 7c 03 00    	incl   0x37ce8
   32669:	81 3d e8 7c 03 00 01 	cmpl   $0x1,0x37ce8
   32670:	00 00 00 
   32673:	0f 87 0d 00 00 00    	ja     32686 <Save.reenter>
   32679:	bc 20 76 03 00       	mov    $0x37620,%esp
   3267e:	68 95 26 03 00       	push   $0x32695
   32683:	ff 67 30             	jmp    *0x30(%edi)

00032686 <Save.reenter>:
   32686:	68 db 26 03 00       	push   $0x326db
   3268b:	65 fe 05 1c 02 00 00 	incb   %gs:0x21c
   32692:	ff 67 30             	jmp    *0x30(%edi)

00032695 <restart>:
   32695:	ff 35 00 81 03 00    	pushl  0x38100
   3269b:	e8 2c df ff ff       	call   305cc <setTssEspReady>
   326a0:	81 c4 04 00 00 00    	add    $0x4,%esp
   326a6:	ff 35 00 81 03 00    	pushl  0x38100
   326ac:	e8 42 df ff ff       	call   305f3 <getProRegTop>
   326b1:	81 c4 04 00 00 00    	add    $0x4,%esp
   326b7:	ff 35 00 81 03 00    	pushl  0x38100
   326bd:	e8 36 ea ff ff       	call   310f8 <getProPointer>
   326c2:	81 c4 04 00 00 00    	add    $0x4,%esp
   326c8:	89 c6                	mov    %eax,%esi
   326ca:	03 35 d8 4a 03 00    	add    0x34ad8,%esi
   326d0:	8b 06                	mov    (%esi),%eax
   326d2:	0f 00 d0             	lldt   %ax
   326d5:	8b 25 20 78 03 00    	mov    0x37820,%esp

000326db <restart_reenter>:
   326db:	ff 0d e8 7c 03 00    	decl   0x37ce8
   326e1:	0f a9                	pop    %gs
   326e3:	0f a1                	pop    %fs
   326e5:	07                   	pop    %es
   326e6:	1f                   	pop    %ds
   326e7:	61                   	popa   
   326e8:	81 c4 04 00 00 00    	add    $0x4,%esp
   326ee:	cf                   	iret   
   326ef:	90                   	nop    

000326f0 <save_sys_call_ret>:
   326f0:	55                   	push   %ebp
   326f1:	89 e5                	mov    %esp,%ebp
   326f3:	8b 45 08             	mov    0x8(%ebp),%eax
   326f6:	83 e8 01             	sub    $0x1,%eax
   326f9:	8b 55 0c             	mov    0xc(%ebp),%edx
   326fc:	69 c0 fc 28 00 00    	imul   $0x28fc,%eax,%eax
   32702:	89 90 4c 8a 03 00    	mov    %edx,0x38a4c(%eax)
   32708:	5d                   	pop    %ebp
   32709:	c3                   	ret    

0003270a <sys_get_ticks>:
   3270a:	55                   	push   %ebp
   3270b:	89 e5                	mov    %esp,%ebp
   3270d:	a1 00 8a 03 00       	mov    0x38a00,%eax
   32712:	5d                   	pop    %ebp
   32713:	c3                   	ret    

00032714 <sys_printx>:
   32714:	55                   	push   %ebp
   32715:	89 e5                	mov    %esp,%ebp
   32717:	53                   	push   %ebx
   32718:	83 ec 64             	sub    $0x64,%esp
   3271b:	c7 45 e4 00 00 00 00 	movl   $0x0,0xffffffe4(%ebp)
   32722:	a1 80 4c 03 00       	mov    0x34c80,%eax
   32727:	89 45 b8             	mov    %eax,0xffffffb8(%ebp)
   3272a:	a1 84 4c 03 00       	mov    0x34c84,%eax
   3272f:	89 45 bc             	mov    %eax,0xffffffbc(%ebp)
   32732:	a1 88 4c 03 00       	mov    0x34c88,%eax
   32737:	89 45 c0             	mov    %eax,0xffffffc0(%ebp)
   3273a:	a1 8c 4c 03 00       	mov    0x34c8c,%eax
   3273f:	89 45 c4             	mov    %eax,0xffffffc4(%ebp)
   32742:	a1 90 4c 03 00       	mov    0x34c90,%eax
   32747:	89 45 c8             	mov    %eax,0xffffffc8(%ebp)
   3274a:	a1 94 4c 03 00       	mov    0x34c94,%eax
   3274f:	89 45 cc             	mov    %eax,0xffffffcc(%ebp)
   32752:	a1 98 4c 03 00       	mov    0x34c98,%eax
   32757:	89 45 d0             	mov    %eax,0xffffffd0(%ebp)
   3275a:	a1 9c 4c 03 00       	mov    0x34c9c,%eax
   3275f:	89 45 d4             	mov    %eax,0xffffffd4(%ebp)
   32762:	a1 a0 4c 03 00       	mov    0x34ca0,%eax
   32767:	89 45 d8             	mov    %eax,0xffffffd8(%ebp)
   3276a:	a1 a4 4c 03 00       	mov    0x34ca4,%eax
   3276f:	89 45 dc             	mov    %eax,0xffffffdc(%ebp)
   32772:	a1 a8 4c 03 00       	mov    0x34ca8,%eax
   32777:	89 45 e0             	mov    %eax,0xffffffe0(%ebp)
   3277a:	c6 45 b8 02          	movb   $0x2,0xffffffb8(%ebp)
   3277e:	a1 e8 7c 03 00       	mov    0x37ce8,%eax
   32783:	85 c0                	test   %eax,%eax
   32785:	75 17                	jne    3279e <sys_printx+0x8a>
   32787:	8b 45 0c             	mov    0xc(%ebp),%eax
   3278a:	89 44 24 04          	mov    %eax,0x4(%esp)
   3278e:	8b 45 08             	mov    0x8(%ebp),%eax
   32791:	89 04 24             	mov    %eax,(%esp)
   32794:	e8 6e f7 ff ff       	call   31f07 <va2la>
   32799:	89 45 e4             	mov    %eax,0xffffffe4(%ebp)
   3279c:	eb 17                	jmp    327b5 <sys_printx+0xa1>
   3279e:	a1 e8 7c 03 00       	mov    0x37ce8,%eax
   327a3:	85 c0                	test   %eax,%eax
   327a5:	7e 08                	jle    327af <sys_printx+0x9b>
   327a7:	8b 45 0c             	mov    0xc(%ebp),%eax
   327aa:	89 45 e4             	mov    %eax,0xffffffe4(%ebp)
   327ad:	eb 06                	jmp    327b5 <sys_printx+0xa1>
   327af:	8d 45 b8             	lea    0xffffffb8(%ebp),%eax
   327b2:	89 45 e4             	mov    %eax,0xffffffe4(%ebp)
   327b5:	83 7d 08 00          	cmpl   $0x0,0x8(%ebp)
   327b9:	75 0b                	jne    327c6 <sys_printx+0xb2>
   327bb:	8b 45 0c             	mov    0xc(%ebp),%eax
   327be:	89 45 e4             	mov    %eax,0xffffffe4(%ebp)
   327c1:	e9 c4 00 00 00       	jmp    3288a <sys_printx+0x176>
   327c6:	8b 45 e4             	mov    0xffffffe4(%ebp),%eax
   327c9:	0f b6 00             	movzbl (%eax),%eax
   327cc:	3c 02                	cmp    $0x2,%al
   327ce:	74 18                	je     327e8 <sys_printx+0xd4>
   327d0:	8b 45 e4             	mov    0xffffffe4(%ebp),%eax
   327d3:	0f b6 00             	movzbl (%eax),%eax
   327d6:	3c 03                	cmp    $0x3,%al
   327d8:	0f 85 ac 00 00 00    	jne    3288a <sys_printx+0x176>
   327de:	83 7d 08 13          	cmpl   $0x13,0x8(%ebp)
   327e2:	0f 8f a2 00 00 00    	jg     3288a <sys_printx+0x176>
   327e8:	e8 03 02 00 00       	call   329f0 <disable_int>
   327ed:	c7 45 f4 00 80 0b 00 	movl   $0xb8000,0xfffffff4(%ebp)
   327f4:	8b 45 e4             	mov    0xffffffe4(%ebp),%eax
   327f7:	83 c0 01             	add    $0x1,%eax
   327fa:	89 45 f8             	mov    %eax,0xfffffff8(%ebp)
   327fd:	eb 7d                	jmp    3287c <sys_printx+0x168>
   327ff:	8b 45 f8             	mov    0xfffffff8(%ebp),%eax
   32802:	0f b6 10             	movzbl (%eax),%edx
   32805:	8b 45 f4             	mov    0xfffffff4(%ebp),%eax
   32808:	88 10                	mov    %dl,(%eax)
   3280a:	83 45 f4 01          	addl   $0x1,0xfffffff4(%ebp)
   3280e:	83 45 f8 01          	addl   $0x1,0xfffffff8(%ebp)
   32812:	8b 45 f4             	mov    0xfffffff4(%ebp),%eax
   32815:	c6 00 1c             	movb   $0x1c,(%eax)
   32818:	83 45 f4 01          	addl   $0x1,0xfffffff4(%ebp)
   3281c:	8b 45 f8             	mov    0xfffffff8(%ebp),%eax
   3281f:	0f b6 00             	movzbl (%eax),%eax
   32822:	84 c0                	test   %al,%al
   32824:	75 56                	jne    3287c <sys_printx+0x168>
   32826:	eb 0e                	jmp    32836 <sys_printx+0x122>
   32828:	83 45 f4 01          	addl   $0x1,0xfffffff4(%ebp)
   3282c:	8b 45 f4             	mov    0xfffffff4(%ebp),%eax
   3282f:	c6 00 08             	movb   $0x8,(%eax)
   32832:	83 45 f4 01          	addl   $0x1,0xfffffff4(%ebp)
   32836:	8b 45 f4             	mov    0xfffffff4(%ebp),%eax
   32839:	8d 88 00 80 f4 ff    	lea    0xfff48000(%eax),%ecx
   3283f:	c7 45 a4 67 66 66 66 	movl   $0x66666667,0xffffffa4(%ebp)
   32846:	8b 45 a4             	mov    0xffffffa4(%ebp),%eax
   32849:	f7 e9                	imul   %ecx
   3284b:	c1 fa 09             	sar    $0x9,%edx
   3284e:	89 c8                	mov    %ecx,%eax
   32850:	c1 f8 1f             	sar    $0x1f,%eax
   32853:	89 d3                	mov    %edx,%ebx
   32855:	29 c3                	sub    %eax,%ebx
   32857:	89 5d a8             	mov    %ebx,0xffffffa8(%ebp)
   3285a:	8b 45 a8             	mov    0xffffffa8(%ebp),%eax
   3285d:	c1 e0 02             	shl    $0x2,%eax
   32860:	03 45 a8             	add    0xffffffa8(%ebp),%eax
   32863:	c1 e0 08             	shl    $0x8,%eax
   32866:	89 ca                	mov    %ecx,%edx
   32868:	29 c2                	sub    %eax,%edx
   3286a:	89 55 a8             	mov    %edx,0xffffffa8(%ebp)
   3286d:	83 7d a8 00          	cmpl   $0x0,0xffffffa8(%ebp)
   32871:	75 b5                	jne    32828 <sys_printx+0x114>
   32873:	8b 45 e4             	mov    0xffffffe4(%ebp),%eax
   32876:	83 c0 01             	add    $0x1,%eax
   32879:	89 45 f8             	mov    %eax,0xfffffff8(%ebp)
   3287c:	81 7d f4 ff ff 0b 00 	cmpl   $0xbffff,0xfffffff4(%ebp)
   32883:	0f 86 76 ff ff ff    	jbe    327ff <sys_printx+0xeb>
   32889:	f4                   	hlt    
   3288a:	c7 45 e8 00 00 00 00 	movl   $0x0,0xffffffe8(%ebp)
   32891:	8b 45 08             	mov    0x8(%ebp),%eax
   32894:	83 e8 01             	sub    $0x1,%eax
   32897:	69 c0 fc 28 00 00    	imul   $0x28fc,%eax,%eax
   3289d:	8b 80 f8 b2 03 00    	mov    0x3b2f8(%eax),%eax
   328a3:	89 45 ec             	mov    %eax,0xffffffec(%ebp)
   328a6:	c7 45 f0 00 00 00 00 	movl   $0x0,0xfffffff0(%ebp)
   328ad:	c7 45 e8 00 00 00 00 	movl   $0x0,0xffffffe8(%ebp)
   328b4:	eb 41                	jmp    328f7 <sys_printx+0x1e3>
   328b6:	8b 45 e8             	mov    0xffffffe8(%ebp),%eax
   328b9:	03 45 0c             	add    0xc(%ebp),%eax
   328bc:	0f b6 00             	movzbl (%eax),%eax
   328bf:	3c 02                	cmp    $0x2,%al
   328c1:	74 30                	je     328f3 <sys_printx+0x1df>
   328c3:	8b 45 e8             	mov    0xffffffe8(%ebp),%eax
   328c6:	03 45 0c             	add    0xc(%ebp),%eax
   328c9:	0f b6 00             	movzbl (%eax),%eax
   328cc:	3c 03                	cmp    $0x3,%al
   328ce:	74 23                	je     328f3 <sys_printx+0x1df>
   328d0:	8b 45 e8             	mov    0xffffffe8(%ebp),%eax
   328d3:	03 45 0c             	add    0xc(%ebp),%eax
   328d6:	0f b6 00             	movzbl (%eax),%eax
   328d9:	0f be c0             	movsbl %al,%eax
   328dc:	89 44 24 04          	mov    %eax,0x4(%esp)
   328e0:	8b 45 ec             	mov    0xffffffec(%ebp),%eax
   328e3:	89 04 24             	mov    %eax,(%esp)
   328e6:	e8 d4 16 00 00       	call   33fbf <printChar>
   328eb:	85 c0                	test   %eax,%eax
   328ed:	75 04                	jne    328f3 <sys_printx+0x1df>
   328ef:	83 45 f0 01          	addl   $0x1,0xfffffff0(%ebp)
   328f3:	83 45 e8 01          	addl   $0x1,0xffffffe8(%ebp)
   328f7:	8b 45 e8             	mov    0xffffffe8(%ebp),%eax
   328fa:	3b 45 10             	cmp    0x10(%ebp),%eax
   328fd:	7d 0d                	jge    3290c <sys_printx+0x1f8>
   328ff:	8b 45 e8             	mov    0xffffffe8(%ebp),%eax
   32902:	03 45 0c             	add    0xc(%ebp),%eax
   32905:	0f b6 00             	movzbl (%eax),%eax
   32908:	84 c0                	test   %al,%al
   3290a:	75 aa                	jne    328b6 <sys_printx+0x1a2>
   3290c:	8b 45 e8             	mov    0xffffffe8(%ebp),%eax
   3290f:	83 c4 64             	add    $0x64,%esp
   32912:	5b                   	pop    %ebx
   32913:	5d                   	pop    %ebp
   32914:	c3                   	ret    

00032915 <sys_sendrec>:
   32915:	55                   	push   %ebp
   32916:	89 e5                	mov    %esp,%ebp
   32918:	83 ec 18             	sub    $0x18,%esp
   3291b:	83 7d 0c 01          	cmpl   $0x1,0xc(%ebp)
   3291f:	75 49                	jne    3296a <sys_sendrec+0x55>
   32921:	8b 55 14             	mov    0x14(%ebp),%edx
   32924:	8b 45 08             	mov    0x8(%ebp),%eax
   32927:	89 02                	mov    %eax,(%edx)
   32929:	8b 45 14             	mov    0x14(%ebp),%eax
   3292c:	89 44 24 08          	mov    %eax,0x8(%esp)
   32930:	8b 45 10             	mov    0x10(%ebp),%eax
   32933:	89 44 24 04          	mov    %eax,0x4(%esp)
   32937:	8b 45 08             	mov    0x8(%ebp),%eax
   3293a:	89 04 24             	mov    %eax,(%esp)
   3293d:	e8 26 dd ff ff       	call   30668 <msg_send>
   32942:	83 7d 08 01          	cmpl   $0x1,0x8(%ebp)
   32946:	74 06                	je     3294e <sys_sendrec+0x39>
   32948:	83 7d 10 01          	cmpl   $0x1,0x10(%ebp)
   3294c:	75 79                	jne    329c7 <sys_sendrec+0xb2>
   3294e:	8b 45 10             	mov    0x10(%ebp),%eax
   32951:	89 44 24 08          	mov    %eax,0x8(%esp)
   32955:	8b 45 08             	mov    0x8(%ebp),%eax
   32958:	89 44 24 04          	mov    %eax,0x4(%esp)
   3295c:	c7 04 24 ac 4c 03 00 	movl   $0x34cac,(%esp)
   32963:	e8 24 f8 ff ff       	call   3218c <printf_kernel>
   32968:	eb 5d                	jmp    329c7 <sys_sendrec+0xb2>
   3296a:	83 7d 0c 02          	cmpl   $0x2,0xc(%ebp)
   3296e:	75 4b                	jne    329bb <sys_sendrec+0xa6>
   32970:	83 7d 08 01          	cmpl   $0x1,0x8(%ebp)
   32974:	74 06                	je     3297c <sys_sendrec+0x67>
   32976:	83 7d 10 01          	cmpl   $0x1,0x10(%ebp)
   3297a:	75 24                	jne    329a0 <sys_sendrec+0x8b>
   3297c:	8b 45 14             	mov    0x14(%ebp),%eax
   3297f:	8b 40 08             	mov    0x8(%eax),%eax
   32982:	89 44 24 0c          	mov    %eax,0xc(%esp)
   32986:	8b 45 10             	mov    0x10(%ebp),%eax
   32989:	89 44 24 08          	mov    %eax,0x8(%esp)
   3298d:	8b 45 08             	mov    0x8(%ebp),%eax
   32990:	89 44 24 04          	mov    %eax,0x4(%esp)
   32994:	c7 04 24 c1 4c 03 00 	movl   $0x34cc1,(%esp)
   3299b:	e8 ec f7 ff ff       	call   3218c <printf_kernel>
   329a0:	8b 45 14             	mov    0x14(%ebp),%eax
   329a3:	89 44 24 08          	mov    %eax,0x8(%esp)
   329a7:	8b 45 10             	mov    0x10(%ebp),%eax
   329aa:	89 44 24 04          	mov    %eax,0x4(%esp)
   329ae:	8b 45 08             	mov    0x8(%ebp),%eax
   329b1:	89 04 24             	mov    %eax,(%esp)
   329b4:	e8 d4 df ff ff       	call   3098d <msg_receive>
   329b9:	eb 0c                	jmp    329c7 <sys_sendrec+0xb2>
   329bb:	c7 04 24 e0 4c 03 00 	movl   $0x34ce0,(%esp)
   329c2:	e8 b4 01 00 00       	call   32b7b <panic>
   329c7:	b8 01 00 00 00       	mov    $0x1,%eax
   329cc:	c9                   	leave  
   329cd:	c3                   	ret    

000329ce <init_sys_call>:
   329ce:	55                   	push   %ebp
   329cf:	89 e5                	mov    %esp,%ebp
   329d1:	c7 05 a4 81 03 00 14 	movl   $0x32714,0x381a4
   329d8:	27 03 00 
   329db:	c7 05 a8 81 03 00 15 	movl   $0x32915,0x381a8
   329e2:	29 03 00 
   329e5:	5d                   	pop    %ebp
   329e6:	c3                   	ret    
   329e7:	90                   	nop    
   329e8:	90                   	nop    
   329e9:	90                   	nop    
   329ea:	90                   	nop    
   329eb:	90                   	nop    
   329ec:	90                   	nop    
   329ed:	90                   	nop    
   329ee:	90                   	nop    
   329ef:	90                   	nop    

000329f0 <disable_int>:
   329f0:	fa                   	cli    
   329f1:	c3                   	ret    

000329f2 <enable_int>:
   329f2:	fb                   	sti    
   329f3:	c3                   	ret    

000329f4 <disp_str>:
   329f4:	55                   	push   %ebp
   329f5:	89 e5                	mov    %esp,%ebp
   329f7:	56                   	push   %esi
   329f8:	57                   	push   %edi
   329f9:	50                   	push   %eax
   329fa:	53                   	push   %ebx
   329fb:	8b 75 08             	mov    0x8(%ebp),%esi
   329fe:	8b 3d 08 50 03 00    	mov    0x35008,%edi
   32a04:	b4 0f                	mov    $0xf,%ah
   32a06:	fc                   	cld    

00032a07 <disp_str.1>:
   32a07:	ac                   	lods   %ds:(%esi),%al
   32a08:	84 c0                	test   %al,%al
   32a0a:	0f 84 38 00 00 00    	je     32a48 <disp_str.2>
   32a10:	3c 7a                	cmp    $0x7a,%al
   32a12:	0f 85 00 00 00 00    	jne    32a18 <disp_str.4>

00032a18 <disp_str.4>:
   32a18:	3c 0a                	cmp    $0xa,%al
   32a1a:	0f 85 19 00 00 00    	jne    32a39 <disp_str.3>
   32a20:	50                   	push   %eax
   32a21:	89 f8                	mov    %edi,%eax
   32a23:	b3 a0                	mov    $0xa0,%bl
   32a25:	f6 f3                	div    %bl
   32a27:	25 ff 00 00 00       	and    $0xff,%eax
   32a2c:	40                   	inc    %eax
   32a2d:	b3 a0                	mov    $0xa0,%bl
   32a2f:	f6 e3                	mul    %bl
   32a31:	89 c7                	mov    %eax,%edi
   32a33:	58                   	pop    %eax
   32a34:	e9 ce ff ff ff       	jmp    32a07 <disp_str.1>

00032a39 <disp_str.3>:
   32a39:	65 66 89 07          	mov    %ax,%gs:(%edi)
   32a3d:	81 c7 02 00 00 00    	add    $0x2,%edi
   32a43:	e9 bf ff ff ff       	jmp    32a07 <disp_str.1>

00032a48 <disp_str.2>:
   32a48:	89 3d 08 50 03 00    	mov    %edi,0x35008
   32a4e:	5b                   	pop    %ebx
   32a4f:	58                   	pop    %eax
   32a50:	5f                   	pop    %edi
   32a51:	5e                   	pop    %esi
   32a52:	89 ec                	mov    %ebp,%esp
   32a54:	5d                   	pop    %ebp
   32a55:	c3                   	ret    

00032a56 <out_byte>:
   32a56:	55                   	push   %ebp
   32a57:	89 e5                	mov    %esp,%ebp
   32a59:	8b 55 08             	mov    0x8(%ebp),%edx
   32a5c:	8a 45 0c             	mov    0xc(%ebp),%al
   32a5f:	ee                   	out    %al,(%dx)
   32a60:	90                   	nop    
   32a61:	90                   	nop    
   32a62:	89 ec                	mov    %ebp,%esp
   32a64:	5d                   	pop    %ebp
   32a65:	c3                   	ret    

00032a66 <in_byte>:
   32a66:	55                   	push   %ebp
   32a67:	89 e5                	mov    %esp,%ebp
   32a69:	8b 55 08             	mov    0x8(%ebp),%edx
   32a6c:	31 c0                	xor    %eax,%eax
   32a6e:	ec                   	in     (%dx),%al
   32a6f:	90                   	nop    
   32a70:	90                   	nop    
   32a71:	89 ec                	mov    %ebp,%esp
   32a73:	5d                   	pop    %ebp
   32a74:	c3                   	ret    

00032a75 <port_read>:
   32a75:	8b 54 24 04          	mov    0x4(%esp),%edx
   32a79:	8b 7c 24 08          	mov    0x8(%esp),%edi
   32a7d:	8b 4c 24 0c          	mov    0xc(%esp),%ecx
   32a81:	d1 e9                	shr    %ecx
   32a83:	fc                   	cld    
   32a84:	f3 66 6d             	rep insw (%dx),%es:(%edi)
   32a87:	c3                   	ret    

00032a88 <memcpy>:
   32a88:	55                   	push   %ebp
   32a89:	89 e5                	mov    %esp,%ebp
   32a8b:	56                   	push   %esi
   32a8c:	57                   	push   %edi
   32a8d:	51                   	push   %ecx
   32a8e:	50                   	push   %eax
   32a8f:	8b 7d 08             	mov    0x8(%ebp),%edi
   32a92:	8b 75 0c             	mov    0xc(%ebp),%esi
   32a95:	8b 4d 10             	mov    0x10(%ebp),%ecx

00032a98 <memcpy.loop>:
   32a98:	3e 8a 06             	mov    %ds:(%esi),%al
   32a9b:	26 88 07             	mov    %al,%es:(%edi)
   32a9e:	46                   	inc    %esi
   32a9f:	47                   	inc    %edi
   32aa0:	e2 f6                	loop   32a98 <memcpy.loop>
   32aa2:	58                   	pop    %eax
   32aa3:	59                   	pop    %ecx
   32aa4:	5f                   	pop    %edi
   32aa5:	5e                   	pop    %esi
   32aa6:	89 ec                	mov    %ebp,%esp
   32aa8:	5d                   	pop    %ebp
   32aa9:	c3                   	ret    

00032aaa <disp_color_str>:
   32aaa:	55                   	push   %ebp
   32aab:	89 e5                	mov    %esp,%ebp
   32aad:	8b 75 08             	mov    0x8(%ebp),%esi
   32ab0:	8b 3d 08 50 03 00    	mov    0x35008,%edi
   32ab6:	8a 65 0c             	mov    0xc(%ebp),%ah

00032ab9 <disp_color_str.1>:
   32ab9:	ac                   	lods   %ds:(%esi),%al
   32aba:	84 c0                	test   %al,%al
   32abc:	0f 84 30 00 00 00    	je     32af2 <disp_color_str.2>
   32ac2:	3c 0a                	cmp    $0xa,%al
   32ac4:	0f 85 19 00 00 00    	jne    32ae3 <disp_color_str.3>
   32aca:	50                   	push   %eax
   32acb:	89 f8                	mov    %edi,%eax
   32acd:	b3 a0                	mov    $0xa0,%bl
   32acf:	f6 f3                	div    %bl
   32ad1:	25 ff 00 00 00       	and    $0xff,%eax
   32ad6:	40                   	inc    %eax
   32ad7:	b3 a0                	mov    $0xa0,%bl
   32ad9:	f6 e3                	mul    %bl
   32adb:	89 c7                	mov    %eax,%edi
   32add:	58                   	pop    %eax
   32ade:	e9 d6 ff ff ff       	jmp    32ab9 <disp_color_str.1>

00032ae3 <disp_color_str.3>:
   32ae3:	65 66 89 07          	mov    %ax,%gs:(%edi)
   32ae7:	81 c7 02 00 00 00    	add    $0x2,%edi
   32aed:	e9 c7 ff ff ff       	jmp    32ab9 <disp_color_str.1>

00032af2 <disp_color_str.2>:
   32af2:	81 ff a0 0f 00 00    	cmp    $0xfa0,%edi
   32af8:	0f 82 05 00 00 00    	jb     32b03 <disp_color_str.4>
   32afe:	bf 02 00 00 00       	mov    $0x2,%edi

00032b03 <disp_color_str.4>:
   32b03:	89 3d 08 50 03 00    	mov    %edi,0x35008
   32b09:	89 ec                	mov    %ebp,%esp
   32b0b:	5d                   	pop    %ebp
   32b0c:	c3                   	ret    
   32b0d:	90                   	nop    
   32b0e:	90                   	nop    
   32b0f:	90                   	nop    

00032b10 <spin>:
   32b10:	55                   	push   %ebp
   32b11:	89 e5                	mov    %esp,%ebp
   32b13:	83 ec 08             	sub    $0x8,%esp
   32b16:	8b 45 08             	mov    0x8(%ebp),%eax
   32b19:	89 44 24 04          	mov    %eax,0x4(%esp)
   32b1d:	c7 04 24 0c 4d 03 00 	movl   $0x34d0c,(%esp)
   32b24:	e8 07 f5 ff ff       	call   32030 <printf>
   32b29:	eb fe                	jmp    32b29 <spin+0x19>

00032b2b <assertion_failure>:
   32b2b:	55                   	push   %ebp
   32b2c:	89 e5                	mov    %esp,%ebp
   32b2e:	83 ec 28             	sub    $0x28,%esp
   32b31:	8b 15 00 81 03 00    	mov    0x38100,%edx
   32b37:	8b 45 10             	mov    0x10(%ebp),%eax
   32b3a:	89 44 24 18          	mov    %eax,0x18(%esp)
   32b3e:	8b 45 14             	mov    0x14(%ebp),%eax
   32b41:	89 44 24 14          	mov    %eax,0x14(%esp)
   32b45:	8b 45 0c             	mov    0xc(%ebp),%eax
   32b48:	89 44 24 10          	mov    %eax,0x10(%esp)
   32b4c:	8b 45 08             	mov    0x8(%ebp),%eax
   32b4f:	89 44 24 0c          	mov    %eax,0xc(%esp)
   32b53:	c7 44 24 08 03 00 00 	movl   $0x3,0x8(%esp)
   32b5a:	00 
   32b5b:	89 54 24 04          	mov    %edx,0x4(%esp)
   32b5f:	c7 04 24 20 4d 03 00 	movl   $0x34d20,(%esp)
   32b66:	e8 c5 f4 ff ff       	call   32030 <printf>
   32b6b:	c7 04 24 60 4d 03 00 	movl   $0x34d60,(%esp)
   32b72:	e8 99 ff ff ff       	call   32b10 <spin>
   32b77:	0f 0b                	ud2a   
   32b79:	c9                   	leave  
   32b7a:	c3                   	ret    

00032b7b <panic>:
   32b7b:	55                   	push   %ebp
   32b7c:	89 e5                	mov    %esp,%ebp
   32b7e:	81 ec 28 01 00 00    	sub    $0x128,%esp
   32b84:	8d 45 08             	lea    0x8(%ebp),%eax
   32b87:	83 c0 04             	add    $0x4,%eax
   32b8a:	89 45 fc             	mov    %eax,0xfffffffc(%ebp)
   32b8d:	8b 45 08             	mov    0x8(%ebp),%eax
   32b90:	89 44 24 08          	mov    %eax,0x8(%esp)
   32b94:	8b 45 fc             	mov    0xfffffffc(%ebp),%eax
   32b97:	89 44 24 04          	mov    %eax,0x4(%esp)
   32b9b:	8d 85 f8 fe ff ff    	lea    0xfffffef8(%ebp),%eax
   32ba1:	89 04 24             	mov    %eax,(%esp)
   32ba4:	e8 d2 f4 ff ff       	call   3207b <vsprintf>
   32ba9:	89 45 f8             	mov    %eax,0xfffffff8(%ebp)
   32bac:	8d 85 f8 fe ff ff    	lea    0xfffffef8(%ebp),%eax
   32bb2:	89 44 24 08          	mov    %eax,0x8(%esp)
   32bb6:	c7 44 24 04 02 00 00 	movl   $0x2,0x4(%esp)
   32bbd:	00 
   32bbe:	c7 04 24 71 4d 03 00 	movl   $0x34d71,(%esp)
   32bc5:	e8 66 f4 ff ff       	call   32030 <printf>
   32bca:	0f 0b                	ud2a   
   32bcc:	c9                   	leave  
   32bcd:	c3                   	ret    

00032bce <spin_kernel>:
   32bce:	55                   	push   %ebp
   32bcf:	89 e5                	mov    %esp,%ebp
   32bd1:	83 ec 08             	sub    $0x8,%esp
   32bd4:	8b 45 08             	mov    0x8(%ebp),%eax
   32bd7:	89 44 24 04          	mov    %eax,0x4(%esp)
   32bdb:	c7 04 24 0c 4d 03 00 	movl   $0x34d0c,(%esp)
   32be2:	e8 a5 f5 ff ff       	call   3218c <printf_kernel>
   32be7:	eb fe                	jmp    32be7 <spin_kernel+0x19>

00032be9 <assertion_failure_kernel>:
   32be9:	55                   	push   %ebp
   32bea:	89 e5                	mov    %esp,%ebp
   32bec:	83 ec 28             	sub    $0x28,%esp
   32bef:	8b 15 00 81 03 00    	mov    0x38100,%edx
   32bf5:	8b 45 10             	mov    0x10(%ebp),%eax
   32bf8:	89 44 24 18          	mov    %eax,0x18(%esp)
   32bfc:	8b 45 14             	mov    0x14(%ebp),%eax
   32bff:	89 44 24 14          	mov    %eax,0x14(%esp)
   32c03:	8b 45 0c             	mov    0xc(%ebp),%eax
   32c06:	89 44 24 10          	mov    %eax,0x10(%esp)
   32c0a:	8b 45 08             	mov    0x8(%ebp),%eax
   32c0d:	89 44 24 0c          	mov    %eax,0xc(%esp)
   32c11:	c7 44 24 08 03 00 00 	movl   $0x3,0x8(%esp)
   32c18:	00 
   32c19:	89 54 24 04          	mov    %edx,0x4(%esp)
   32c1d:	c7 04 24 20 4d 03 00 	movl   $0x34d20,(%esp)
   32c24:	e8 63 f5 ff ff       	call   3218c <printf_kernel>
   32c29:	c7 04 24 60 4d 03 00 	movl   $0x34d60,(%esp)
   32c30:	e8 99 ff ff ff       	call   32bce <spin_kernel>
   32c35:	0f 0b                	ud2a   
   32c37:	c9                   	leave  
   32c38:	c3                   	ret    
   32c39:	90                   	nop    
   32c3a:	90                   	nop    
   32c3b:	90                   	nop    

00032c3c <disp_int>:
   32c3c:	55                   	push   %ebp
   32c3d:	89 e5                	mov    %esp,%ebp
   32c3f:	83 ec 18             	sub    $0x18,%esp
   32c42:	8b 45 08             	mov    0x8(%ebp),%eax
   32c45:	89 44 24 04          	mov    %eax,0x4(%esp)
   32c49:	8d 45 f4             	lea    0xfffffff4(%ebp),%eax
   32c4c:	89 04 24             	mov    %eax,(%esp)
   32c4f:	e8 56 00 00 00       	call   32caa <itoa>
   32c54:	8d 45 f4             	lea    0xfffffff4(%ebp),%eax
   32c57:	89 04 24             	mov    %eax,(%esp)
   32c5a:	e8 95 fd ff ff       	call   329f4 <disp_str>
   32c5f:	c7 04 24 81 4d 03 00 	movl   $0x34d81,(%esp)
   32c66:	e8 89 fd ff ff       	call   329f4 <disp_str>
   32c6b:	c9                   	leave  
   32c6c:	c3                   	ret    

00032c6d <disp_strPos>:
   32c6d:	55                   	push   %ebp
   32c6e:	89 e5                	mov    %esp,%ebp
   32c70:	83 ec 18             	sub    $0x18,%esp
   32c73:	8b 45 0c             	mov    0xc(%ebp),%eax
   32c76:	83 e0 01             	and    $0x1,%eax
   32c79:	84 c0                	test   %al,%al
   32c7b:	75 2b                	jne    32ca8 <disp_strPos+0x3b>
   32c7d:	83 7d 0c 00          	cmpl   $0x0,0xc(%ebp)
   32c81:	79 02                	jns    32c85 <disp_strPos+0x18>
   32c83:	eb 23                	jmp    32ca8 <disp_strPos+0x3b>
   32c85:	a1 08 50 03 00       	mov    0x35008,%eax
   32c8a:	89 45 fc             	mov    %eax,0xfffffffc(%ebp)
   32c8d:	8b 45 0c             	mov    0xc(%ebp),%eax
   32c90:	a3 08 50 03 00       	mov    %eax,0x35008
   32c95:	8b 45 08             	mov    0x8(%ebp),%eax
   32c98:	89 04 24             	mov    %eax,(%esp)
   32c9b:	e8 54 fd ff ff       	call   329f4 <disp_str>
   32ca0:	8b 45 fc             	mov    0xfffffffc(%ebp),%eax
   32ca3:	a3 08 50 03 00       	mov    %eax,0x35008
   32ca8:	c9                   	leave  
   32ca9:	c3                   	ret    

00032caa <itoa>:
   32caa:	55                   	push   %ebp
   32cab:	89 e5                	mov    %esp,%ebp
   32cad:	83 ec 10             	sub    $0x10,%esp
   32cb0:	c7 45 f0 09 00 00 00 	movl   $0x9,0xfffffff0(%ebp)
   32cb7:	c7 45 fc 00 00 00 00 	movl   $0x0,0xfffffffc(%ebp)
   32cbe:	eb 0d                	jmp    32ccd <itoa+0x23>
   32cc0:	8b 45 fc             	mov    0xfffffffc(%ebp),%eax
   32cc3:	03 45 08             	add    0x8(%ebp),%eax
   32cc6:	c6 00 30             	movb   $0x30,(%eax)
   32cc9:	83 45 fc 01          	addl   $0x1,0xfffffffc(%ebp)
   32ccd:	83 7d fc 0a          	cmpl   $0xa,0xfffffffc(%ebp)
   32cd1:	7e ed                	jle    32cc0 <itoa+0x16>
   32cd3:	8b 45 08             	mov    0x8(%ebp),%eax
   32cd6:	c6 00 30             	movb   $0x30,(%eax)
   32cd9:	8b 45 08             	mov    0x8(%ebp),%eax
   32cdc:	83 c0 01             	add    $0x1,%eax
   32cdf:	c6 00 78             	movb   $0x78,(%eax)
   32ce2:	8b 45 08             	mov    0x8(%ebp),%eax
   32ce5:	83 c0 0a             	add    $0xa,%eax
   32ce8:	c6 00 00             	movb   $0x0,(%eax)
   32ceb:	eb 48                	jmp    32d35 <itoa+0x8b>
   32ced:	8b 45 0c             	mov    0xc(%ebp),%eax
   32cf0:	c1 e8 04             	shr    $0x4,%eax
   32cf3:	89 45 f8             	mov    %eax,0xfffffff8(%ebp)
   32cf6:	8b 45 0c             	mov    0xc(%ebp),%eax
   32cf9:	83 e0 0f             	and    $0xf,%eax
   32cfc:	89 45 f4             	mov    %eax,0xfffffff4(%ebp)
   32cff:	83 7d f4 09          	cmpl   $0x9,0xfffffff4(%ebp)
   32d03:	7f 16                	jg     32d1b <itoa+0x71>
   32d05:	8b 45 f0             	mov    0xfffffff0(%ebp),%eax
   32d08:	89 c2                	mov    %eax,%edx
   32d0a:	03 55 08             	add    0x8(%ebp),%edx
   32d0d:	8b 45 f4             	mov    0xfffffff4(%ebp),%eax
   32d10:	83 c0 30             	add    $0x30,%eax
   32d13:	88 02                	mov    %al,(%edx)
   32d15:	83 6d f0 01          	subl   $0x1,0xfffffff0(%ebp)
   32d19:	eb 14                	jmp    32d2f <itoa+0x85>
   32d1b:	8b 45 f0             	mov    0xfffffff0(%ebp),%eax
   32d1e:	89 c2                	mov    %eax,%edx
   32d20:	03 55 08             	add    0x8(%ebp),%edx
   32d23:	8b 45 f4             	mov    0xfffffff4(%ebp),%eax
   32d26:	83 c0 37             	add    $0x37,%eax
   32d29:	88 02                	mov    %al,(%edx)
   32d2b:	83 6d f0 01          	subl   $0x1,0xfffffff0(%ebp)
   32d2f:	8b 45 f8             	mov    0xfffffff8(%ebp),%eax
   32d32:	89 45 0c             	mov    %eax,0xc(%ebp)
   32d35:	83 7d 0c 00          	cmpl   $0x0,0xc(%ebp)
   32d39:	74 06                	je     32d41 <itoa+0x97>
   32d3b:	83 7d f0 01          	cmpl   $0x1,0xfffffff0(%ebp)
   32d3f:	7f ac                	jg     32ced <itoa+0x43>
   32d41:	8b 45 08             	mov    0x8(%ebp),%eax
   32d44:	c9                   	leave  
   32d45:	c3                   	ret    

00032d46 <strcpy>:
   32d46:	55                   	push   %ebp
   32d47:	89 e5                	mov    %esp,%ebp
   32d49:	83 ec 10             	sub    $0x10,%esp
   32d4c:	c7 45 fc 00 00 00 00 	movl   $0x0,0xfffffffc(%ebp)
   32d53:	8b 45 fc             	mov    0xfffffffc(%ebp),%eax
   32d56:	89 c2                	mov    %eax,%edx
   32d58:	03 55 08             	add    0x8(%ebp),%edx
   32d5b:	8b 45 fc             	mov    0xfffffffc(%ebp),%eax
   32d5e:	03 45 0c             	add    0xc(%ebp),%eax
   32d61:	0f b6 00             	movzbl (%eax),%eax
   32d64:	88 02                	mov    %al,(%edx)
   32d66:	83 45 fc 01          	addl   $0x1,0xfffffffc(%ebp)
   32d6a:	8b 45 fc             	mov    0xfffffffc(%ebp),%eax
   32d6d:	03 45 0c             	add    0xc(%ebp),%eax
   32d70:	0f b6 00             	movzbl (%eax),%eax
   32d73:	84 c0                	test   %al,%al
   32d75:	74 02                	je     32d79 <strcpy+0x33>
   32d77:	eb da                	jmp    32d53 <strcpy+0xd>
   32d79:	c9                   	leave  
   32d7a:	c3                   	ret    

00032d7b <strlen>:
   32d7b:	55                   	push   %ebp
   32d7c:	89 e5                	mov    %esp,%ebp
   32d7e:	83 ec 10             	sub    $0x10,%esp
   32d81:	c7 45 fc 00 00 00 00 	movl   $0x0,0xfffffffc(%ebp)
   32d88:	8b 45 fc             	mov    0xfffffffc(%ebp),%eax
   32d8b:	03 45 08             	add    0x8(%ebp),%eax
   32d8e:	0f b6 00             	movzbl (%eax),%eax
   32d91:	84 c0                	test   %al,%al
   32d93:	74 06                	je     32d9b <strlen+0x20>
   32d95:	83 45 fc 01          	addl   $0x1,0xfffffffc(%ebp)
   32d99:	eb ed                	jmp    32d88 <strlen+0xd>
   32d9b:	8b 45 fc             	mov    0xfffffffc(%ebp),%eax
   32d9e:	c9                   	leave  
   32d9f:	c3                   	ret    

00032da0 <init_tasks>:
   32da0:	55                   	push   %ebp
   32da1:	89 e5                	mov    %esp,%ebp
   32da3:	83 ec 08             	sub    $0x8,%esp
   32da6:	b8 0c 35 03 00       	mov    $0x3350c,%eax
   32dab:	89 04 24             	mov    %eax,(%esp)
   32dae:	e8 62 e3 ff ff       	call   31115 <add_system_task>
   32db3:	b8 bc 32 03 00       	mov    $0x332bc,%eax
   32db8:	89 04 24             	mov    %eax,(%esp)
   32dbb:	e8 55 e3 ff ff       	call   31115 <add_system_task>
   32dc0:	b8 40 2e 03 00       	mov    $0x32e40,%eax
   32dc5:	89 04 24             	mov    %eax,(%esp)
   32dc8:	e8 48 e3 ff ff       	call   31115 <add_system_task>
   32dcd:	b8 78 32 03 00       	mov    $0x33278,%eax
   32dd2:	89 04 24             	mov    %eax,(%esp)
   32dd5:	e8 3b e3 ff ff       	call   31115 <add_system_task>
   32dda:	c9                   	leave  
   32ddb:	c3                   	ret    

00032ddc <get_ticks>:
   32ddc:	55                   	push   %ebp
   32ddd:	89 e5                	mov    %esp,%ebp
   32ddf:	83 ec 48             	sub    $0x48,%esp
   32de2:	8d 45 d0             	lea    0xffffffd0(%ebp),%eax
   32de5:	89 44 24 08          	mov    %eax,0x8(%esp)
   32de9:	c7 44 24 04 02 00 00 	movl   $0x2,0x4(%esp)
   32df0:	00 
   32df1:	c7 04 24 01 00 00 00 	movl   $0x1,(%esp)
   32df8:	e8 61 eb ff ff       	call   3195e <sendrec>
   32dfd:	8d 45 d0             	lea    0xffffffd0(%ebp),%eax
   32e00:	89 44 24 08          	mov    %eax,0x8(%esp)
   32e04:	c7 44 24 04 02 00 00 	movl   $0x2,0x4(%esp)
   32e0b:	00 
   32e0c:	c7 04 24 02 00 00 00 	movl   $0x2,(%esp)
   32e13:	e8 46 eb ff ff       	call   3195e <sendrec>
   32e18:	8b 45 d8             	mov    0xffffffd8(%ebp),%eax
   32e1b:	c9                   	leave  
   32e1c:	c3                   	ret    
   32e1d:	90                   	nop    
   32e1e:	90                   	nop    
   32e1f:	90                   	nop    

00032e20 <hd_handler>:
   32e20:	55                   	push   %ebp
   32e21:	89 e5                	mov    %esp,%ebp
   32e23:	83 ec 08             	sub    $0x8,%esp
   32e26:	c7 04 24 84 4d 03 00 	movl   $0x34d84,(%esp)
   32e2d:	e8 5a f3 ff ff       	call   3218c <printf_kernel>
   32e32:	c7 04 24 03 00 00 00 	movl   $0x3,(%esp)
   32e39:	e8 ce df ff ff       	call   30e0c <inform_int>
   32e3e:	c9                   	leave  
   32e3f:	c3                   	ret    

00032e40 <task_disk>:
   32e40:	55                   	push   %ebp
   32e41:	89 e5                	mov    %esp,%ebp
   32e43:	83 ec 58             	sub    $0x58,%esp
   32e46:	c7 45 f8 75 04 00 00 	movl   $0x475,0xfffffff8(%ebp)
   32e4d:	8b 45 f8             	mov    0xfffffff8(%ebp),%eax
   32e50:	0f b6 00             	movzbl (%eax),%eax
   32e53:	0f b6 c0             	movzbl %al,%eax
   32e56:	89 44 24 04          	mov    %eax,0x4(%esp)
   32e5a:	c7 04 24 ae 4d 03 00 	movl   $0x34dae,(%esp)
   32e61:	e8 ca f1 ff ff       	call   32030 <printf>
   32e66:	8b 45 f8             	mov    0xfffffff8(%ebp),%eax
   32e69:	0f b6 00             	movzbl (%eax),%eax
   32e6c:	84 c0                	test   %al,%al
   32e6e:	75 24                	jne    32e94 <task_disk+0x54>
   32e70:	c7 44 24 0c 2a 00 00 	movl   $0x2a,0xc(%esp)
   32e77:	00 
   32e78:	c7 44 24 08 bc 4d 03 	movl   $0x34dbc,0x8(%esp)
   32e7f:	00 
   32e80:	c7 44 24 04 bc 4d 03 	movl   $0x34dbc,0x4(%esp)
   32e87:	00 
   32e88:	c7 04 24 d7 4d 03 00 	movl   $0x34dd7,(%esp)
   32e8f:	e8 97 fc ff ff       	call   32b2b <assertion_failure>
   32e94:	c7 04 24 37 26 03 00 	movl   $0x32637,(%esp)
   32e9b:	e8 c1 e8 ff ff       	call   31761 <set_hd_handler>
   32ea0:	e8 16 ed ff ff       	call   31bbb <enable_disk>
   32ea5:	c7 04 24 e2 4d 03 00 	movl   $0x34de2,(%esp)
   32eac:	e8 7f f1 ff ff       	call   32030 <printf>
   32eb1:	eb 00                	jmp    32eb3 <task_disk+0x73>
   32eb3:	8d 45 c8             	lea    0xffffffc8(%ebp),%eax
   32eb6:	89 44 24 08          	mov    %eax,0x8(%esp)
   32eba:	c7 44 24 04 0f 27 00 	movl   $0x270f,0x4(%esp)
   32ec1:	00 
   32ec2:	c7 04 24 02 00 00 00 	movl   $0x2,(%esp)
   32ec9:	e8 90 ea ff ff       	call   3195e <sendrec>
   32ece:	8b 45 cc             	mov    0xffffffcc(%ebp),%eax
   32ed1:	83 f8 03             	cmp    $0x3,%eax
   32ed4:	74 02                	je     32ed8 <task_disk+0x98>
   32ed6:	eb db                	jmp    32eb3 <task_disk+0x73>
   32ed8:	c7 04 24 00 00 00 00 	movl   $0x0,(%esp)
   32edf:	e8 02 00 00 00       	call   32ee6 <hd_identify>
   32ee4:	eb cd                	jmp    32eb3 <task_disk+0x73>

00032ee6 <hd_identify>:
   32ee6:	55                   	push   %ebp
   32ee7:	89 e5                	mov    %esp,%ebp
   32ee9:	83 ec 28             	sub    $0x28,%esp
   32eec:	8b 45 08             	mov    0x8(%ebp),%eax
   32eef:	c1 e0 04             	shl    $0x4,%eax
   32ef2:	89 c2                	mov    %eax,%edx
   32ef4:	b8 a0 ff ff ff       	mov    $0xffffffa0,%eax
   32ef9:	09 d0                	or     %edx,%eax
   32efb:	88 45 fe             	mov    %al,0xfffffffe(%ebp)
   32efe:	c6 45 ff ec          	movb   $0xec,0xffffffff(%ebp)
   32f02:	8d 45 f8             	lea    0xfffffff8(%ebp),%eax
   32f05:	89 04 24             	mov    %eax,(%esp)
   32f08:	e8 2f 00 00 00       	call   32f3c <hd_cmd_out>
   32f0d:	e8 f9 f0 ff ff       	call   3200b <interrupt_wait>
   32f12:	c7 44 24 08 00 02 00 	movl   $0x200,0x8(%esp)
   32f19:	00 
   32f1a:	c7 44 24 04 40 78 03 	movl   $0x37840,0x4(%esp)
   32f21:	00 
   32f22:	c7 04 24 f0 01 00 00 	movl   $0x1f0,(%esp)
   32f29:	e8 47 fb ff ff       	call   32a75 <port_read>
   32f2e:	c7 04 24 40 78 03 00 	movl   $0x37840,(%esp)
   32f35:	e8 52 01 00 00       	call   3308c <print_identify_info>
   32f3a:	c9                   	leave  
   32f3b:	c3                   	ret    

00032f3c <hd_cmd_out>:
   32f3c:	55                   	push   %ebp
   32f3d:	89 e5                	mov    %esp,%ebp
   32f3f:	83 ec 18             	sub    $0x18,%esp
   32f42:	c7 44 24 08 10 27 00 	movl   $0x2710,0x8(%esp)
   32f49:	00 
   32f4a:	c7 44 24 04 00 00 00 	movl   $0x0,0x4(%esp)
   32f51:	00 
   32f52:	c7 04 24 80 00 00 00 	movl   $0x80,(%esp)
   32f59:	e8 dc 00 00 00       	call   3303a <waitfor>
   32f5e:	85 c0                	test   %eax,%eax
   32f60:	75 0c                	jne    32f6e <hd_cmd_out+0x32>
   32f62:	c7 04 24 f5 4d 03 00 	movl   $0x34df5,(%esp)
   32f69:	e8 0d fc ff ff       	call   32b7b <panic>
   32f6e:	c7 44 24 04 00 00 00 	movl   $0x0,0x4(%esp)
   32f75:	00 
   32f76:	c7 04 24 f6 03 00 00 	movl   $0x3f6,(%esp)
   32f7d:	e8 d4 fa ff ff       	call   32a56 <out_byte>
   32f82:	8b 45 08             	mov    0x8(%ebp),%eax
   32f85:	0f b6 40 01          	movzbl 0x1(%eax),%eax
   32f89:	0f b6 c0             	movzbl %al,%eax
   32f8c:	89 44 24 04          	mov    %eax,0x4(%esp)
   32f90:	c7 04 24 f1 01 00 00 	movl   $0x1f1,(%esp)
   32f97:	e8 ba fa ff ff       	call   32a56 <out_byte>
   32f9c:	8b 45 08             	mov    0x8(%ebp),%eax
   32f9f:	0f b6 40 02          	movzbl 0x2(%eax),%eax
   32fa3:	0f b6 c0             	movzbl %al,%eax
   32fa6:	89 44 24 04          	mov    %eax,0x4(%esp)
   32faa:	c7 04 24 f2 01 00 00 	movl   $0x1f2,(%esp)
   32fb1:	e8 a0 fa ff ff       	call   32a56 <out_byte>
   32fb6:	8b 45 08             	mov    0x8(%ebp),%eax
   32fb9:	0f b6 40 03          	movzbl 0x3(%eax),%eax
   32fbd:	0f b6 c0             	movzbl %al,%eax
   32fc0:	89 44 24 04          	mov    %eax,0x4(%esp)
   32fc4:	c7 04 24 f3 01 00 00 	movl   $0x1f3,(%esp)
   32fcb:	e8 86 fa ff ff       	call   32a56 <out_byte>
   32fd0:	8b 45 08             	mov    0x8(%ebp),%eax
   32fd3:	0f b6 40 04          	movzbl 0x4(%eax),%eax
   32fd7:	0f b6 c0             	movzbl %al,%eax
   32fda:	89 44 24 04          	mov    %eax,0x4(%esp)
   32fde:	c7 04 24 f4 01 00 00 	movl   $0x1f4,(%esp)
   32fe5:	e8 6c fa ff ff       	call   32a56 <out_byte>
   32fea:	8b 45 08             	mov    0x8(%ebp),%eax
   32fed:	0f b6 40 05          	movzbl 0x5(%eax),%eax
   32ff1:	0f b6 c0             	movzbl %al,%eax
   32ff4:	89 44 24 04          	mov    %eax,0x4(%esp)
   32ff8:	c7 04 24 f5 01 00 00 	movl   $0x1f5,(%esp)
   32fff:	e8 52 fa ff ff       	call   32a56 <out_byte>
   33004:	8b 45 08             	mov    0x8(%ebp),%eax
   33007:	0f b6 40 06          	movzbl 0x6(%eax),%eax
   3300b:	0f b6 c0             	movzbl %al,%eax
   3300e:	89 44 24 04          	mov    %eax,0x4(%esp)
   33012:	c7 04 24 f6 01 00 00 	movl   $0x1f6,(%esp)
   33019:	e8 38 fa ff ff       	call   32a56 <out_byte>
   3301e:	8b 45 08             	mov    0x8(%ebp),%eax
   33021:	0f b6 40 07          	movzbl 0x7(%eax),%eax
   33025:	0f b6 c0             	movzbl %al,%eax
   33028:	89 44 24 04          	mov    %eax,0x4(%esp)
   3302c:	c7 04 24 f7 01 00 00 	movl   $0x1f7,(%esp)
   33033:	e8 1e fa ff ff       	call   32a56 <out_byte>
   33038:	c9                   	leave  
   33039:	c3                   	ret    

0003303a <waitfor>:
   3303a:	55                   	push   %ebp
   3303b:	89 e5                	mov    %esp,%ebp
   3303d:	83 ec 18             	sub    $0x18,%esp
   33040:	e8 97 fd ff ff       	call   32ddc <get_ticks>
   33045:	89 45 fc             	mov    %eax,0xfffffffc(%ebp)
   33048:	eb 1d                	jmp    33067 <waitfor+0x2d>
   3304a:	c7 04 24 f7 01 00 00 	movl   $0x1f7,(%esp)
   33051:	e8 10 fa ff ff       	call   32a66 <in_byte>
   33056:	23 45 08             	and    0x8(%ebp),%eax
   33059:	3b 45 0c             	cmp    0xc(%ebp),%eax
   3305c:	75 09                	jne    33067 <waitfor+0x2d>
   3305e:	c7 45 ec 01 00 00 00 	movl   $0x1,0xffffffec(%ebp)
   33065:	eb 20                	jmp    33087 <waitfor+0x4d>
   33067:	e8 70 fd ff ff       	call   32ddc <get_ticks>
   3306c:	89 c2                	mov    %eax,%edx
   3306e:	2b 55 fc             	sub    0xfffffffc(%ebp),%edx
   33071:	89 d0                	mov    %edx,%eax
   33073:	c1 e0 02             	shl    $0x2,%eax
   33076:	01 d0                	add    %edx,%eax
   33078:	c1 e0 02             	shl    $0x2,%eax
   3307b:	3b 45 10             	cmp    0x10(%ebp),%eax
   3307e:	7c ca                	jl     3304a <waitfor+0x10>
   33080:	c7 45 ec 00 00 00 00 	movl   $0x0,0xffffffec(%ebp)
   33087:	8b 45 ec             	mov    0xffffffec(%ebp),%eax
   3308a:	c9                   	leave  
   3308b:	c3                   	ret    

0003308c <print_identify_info>:
   3308c:	55                   	push   %ebp
   3308d:	89 e5                	mov    %esp,%ebp
   3308f:	81 ec 98 00 00 00    	sub    $0x98,%esp
   33095:	c7 45 88 0a 00 00 00 	movl   $0xa,0xffffff88(%ebp)
   3309c:	c7 45 8c 14 00 00 00 	movl   $0x14,0xffffff8c(%ebp)
   330a3:	c7 45 90 ff 4d 03 00 	movl   $0x34dff,0xffffff90(%ebp)
   330aa:	c7 45 94 1b 00 00 00 	movl   $0x1b,0xffffff94(%ebp)
   330b1:	c7 45 98 28 00 00 00 	movl   $0x28,0xffffff98(%ebp)
   330b8:	c7 45 9c 05 4e 03 00 	movl   $0x34e05,0xffffff9c(%ebp)
   330bf:	c7 45 e4 00 00 00 00 	movl   $0x0,0xffffffe4(%ebp)
   330c6:	e9 b7 00 00 00       	jmp    33182 <print_identify_info+0xf6>
   330cb:	8b 55 e4             	mov    0xffffffe4(%ebp),%edx
   330ce:	89 d0                	mov    %edx,%eax
   330d0:	01 c0                	add    %eax,%eax
   330d2:	01 d0                	add    %edx,%eax
   330d4:	c1 e0 02             	shl    $0x2,%eax
   330d7:	01 e8                	add    %ebp,%eax
   330d9:	83 e8 78             	sub    $0x78,%eax
   330dc:	8b 00                	mov    (%eax),%eax
   330de:	89 45 f4             	mov    %eax,0xfffffff4(%ebp)
   330e1:	8b 55 e4             	mov    0xffffffe4(%ebp),%edx
   330e4:	89 d0                	mov    %edx,%eax
   330e6:	01 c0                	add    %eax,%eax
   330e8:	01 d0                	add    %edx,%eax
   330ea:	c1 e0 02             	shl    $0x2,%eax
   330ed:	01 e8                	add    %ebp,%eax
   330ef:	83 e8 74             	sub    $0x74,%eax
   330f2:	8b 00                	mov    (%eax),%eax
   330f4:	89 45 f8             	mov    %eax,0xfffffff8(%ebp)
   330f7:	8b 45 f4             	mov    0xfffffff4(%ebp),%eax
   330fa:	01 c0                	add    %eax,%eax
   330fc:	03 45 08             	add    0x8(%ebp),%eax
   330ff:	89 45 fc             	mov    %eax,0xfffffffc(%ebp)
   33102:	c7 45 e0 00 00 00 00 	movl   $0x0,0xffffffe0(%ebp)
   33109:	eb 2e                	jmp    33139 <print_identify_info+0xad>
   3310b:	8b 45 e0             	mov    0xffffffe0(%ebp),%eax
   3310e:	01 c0                	add    %eax,%eax
   33110:	8d 50 01             	lea    0x1(%eax),%edx
   33113:	8b 45 fc             	mov    0xfffffffc(%ebp),%eax
   33116:	0f b6 00             	movzbl (%eax),%eax
   33119:	88 44 15 a0          	mov    %al,0xffffffa0(%ebp,%edx,1)
   3311d:	83 45 fc 01          	addl   $0x1,0xfffffffc(%ebp)
   33121:	8b 45 e0             	mov    0xffffffe0(%ebp),%eax
   33124:	8d 14 00             	lea    (%eax,%eax,1),%edx
   33127:	8b 45 fc             	mov    0xfffffffc(%ebp),%eax
   3312a:	0f b6 00             	movzbl (%eax),%eax
   3312d:	88 44 15 a0          	mov    %al,0xffffffa0(%ebp,%edx,1)
   33131:	83 45 fc 01          	addl   $0x1,0xfffffffc(%ebp)
   33135:	83 45 e0 01          	addl   $0x1,0xffffffe0(%ebp)
   33139:	8b 55 f8             	mov    0xfffffff8(%ebp),%edx
   3313c:	89 d0                	mov    %edx,%eax
   3313e:	c1 e8 1f             	shr    $0x1f,%eax
   33141:	01 d0                	add    %edx,%eax
   33143:	d1 f8                	sar    %eax
   33145:	3b 45 e0             	cmp    0xffffffe0(%ebp),%eax
   33148:	7f c1                	jg     3310b <print_identify_info+0x7f>
   3314a:	8b 45 e0             	mov    0xffffffe0(%ebp),%eax
   3314d:	01 c0                	add    %eax,%eax
   3314f:	c6 44 05 a0 00       	movb   $0x0,0xffffffa0(%ebp,%eax,1)
   33154:	8b 55 e4             	mov    0xffffffe4(%ebp),%edx
   33157:	89 d0                	mov    %edx,%eax
   33159:	01 c0                	add    %eax,%eax
   3315b:	01 d0                	add    %edx,%eax
   3315d:	c1 e0 02             	shl    $0x2,%eax
   33160:	01 e8                	add    %ebp,%eax
   33162:	83 e8 70             	sub    $0x70,%eax
   33165:	8b 10                	mov    (%eax),%edx
   33167:	8d 45 a0             	lea    0xffffffa0(%ebp),%eax
   3316a:	89 44 24 08          	mov    %eax,0x8(%esp)
   3316e:	89 54 24 04          	mov    %edx,0x4(%esp)
   33172:	c7 04 24 0e 4e 03 00 	movl   $0x34e0e,(%esp)
   33179:	e8 b2 ee ff ff       	call   32030 <printf>
   3317e:	83 45 e4 01          	addl   $0x1,0xffffffe4(%ebp)
   33182:	8b 45 e4             	mov    0xffffffe4(%ebp),%eax
   33185:	83 f8 01             	cmp    $0x1,%eax
   33188:	0f 86 3d ff ff ff    	jbe    330cb <print_identify_info+0x3f>
   3318e:	8b 45 08             	mov    0x8(%ebp),%eax
   33191:	83 c0 62             	add    $0x62,%eax
   33194:	0f b7 00             	movzwl (%eax),%eax
   33197:	0f b7 c0             	movzwl %ax,%eax
   3319a:	89 45 e8             	mov    %eax,0xffffffe8(%ebp)
   3319d:	8b 45 e8             	mov    0xffffffe8(%ebp),%eax
   331a0:	25 00 02 00 00       	and    $0x200,%eax
   331a5:	85 c0                	test   %eax,%eax
   331a7:	74 0c                	je     331b5 <print_identify_info+0x129>
   331a9:	c7 85 78 ff ff ff 17 	movl   $0x34e17,0xffffff78(%ebp)
   331b0:	4e 03 00 
   331b3:	eb 0a                	jmp    331bf <print_identify_info+0x133>
   331b5:	c7 85 78 ff ff ff 1b 	movl   $0x34e1b,0xffffff78(%ebp)
   331bc:	4e 03 00 
   331bf:	8b 85 78 ff ff ff    	mov    0xffffff78(%ebp),%eax
   331c5:	89 44 24 04          	mov    %eax,0x4(%esp)
   331c9:	c7 04 24 1e 4e 03 00 	movl   $0x34e1e,(%esp)
   331d0:	e8 5b ee ff ff       	call   32030 <printf>
   331d5:	8b 45 08             	mov    0x8(%ebp),%eax
   331d8:	05 a6 00 00 00       	add    $0xa6,%eax
   331dd:	0f b7 00             	movzwl (%eax),%eax
   331e0:	0f b7 c0             	movzwl %ax,%eax
   331e3:	89 45 ec             	mov    %eax,0xffffffec(%ebp)
   331e6:	8b 45 ec             	mov    0xffffffec(%ebp),%eax
   331e9:	25 00 04 00 00       	and    $0x400,%eax
   331ee:	85 c0                	test   %eax,%eax
   331f0:	74 0c                	je     331fe <print_identify_info+0x172>
   331f2:	c7 85 7c ff ff ff 17 	movl   $0x34e17,0xffffff7c(%ebp)
   331f9:	4e 03 00 
   331fc:	eb 0a                	jmp    33208 <print_identify_info+0x17c>
   331fe:	c7 85 7c ff ff ff 1b 	movl   $0x34e1b,0xffffff7c(%ebp)
   33205:	4e 03 00 
   33208:	8b 85 7c ff ff ff    	mov    0xffffff7c(%ebp),%eax
   3320e:	89 44 24 04          	mov    %eax,0x4(%esp)
   33212:	c7 04 24 32 4e 03 00 	movl   $0x34e32,(%esp)
   33219:	e8 12 ee ff ff       	call   32030 <printf>
   3321e:	8b 45 08             	mov    0x8(%ebp),%eax
   33221:	83 c0 7a             	add    $0x7a,%eax
   33224:	0f b7 00             	movzwl (%eax),%eax
   33227:	0f b7 c0             	movzwl %ax,%eax
   3322a:	89 c2                	mov    %eax,%edx
   3322c:	c1 e2 10             	shl    $0x10,%edx
   3322f:	8b 45 08             	mov    0x8(%ebp),%eax
   33232:	83 c0 78             	add    $0x78,%eax
   33235:	0f b7 00             	movzwl (%eax),%eax
   33238:	0f b7 c0             	movzwl %ax,%eax
   3323b:	8d 04 02             	lea    (%edx,%eax,1),%eax
   3323e:	89 45 f0             	mov    %eax,0xfffffff0(%ebp)
   33241:	8b 45 f0             	mov    0xfffffff0(%ebp),%eax
   33244:	89 44 24 04          	mov    %eax,0x4(%esp)
   33248:	c7 04 24 48 4e 03 00 	movl   $0x34e48,(%esp)
   3324f:	e8 dc ed ff ff       	call   32030 <printf>
   33254:	8b 55 f0             	mov    0xfffffff0(%ebp),%edx
   33257:	89 d0                	mov    %edx,%eax
   33259:	c1 f8 1f             	sar    $0x1f,%eax
   3325c:	c1 e8 15             	shr    $0x15,%eax
   3325f:	01 d0                	add    %edx,%eax
   33261:	c1 f8 0b             	sar    $0xb,%eax
   33264:	89 44 24 04          	mov    %eax,0x4(%esp)
   33268:	c7 04 24 5a 4e 03 00 	movl   $0x34e5a,(%esp)
   3326f:	e8 bc ed ff ff       	call   32030 <printf>
   33274:	c9                   	leave  
   33275:	c3                   	ret    
   33276:	90                   	nop    
   33277:	90                   	nop    

00033278 <task_fs>:
   33278:	55                   	push   %ebp
   33279:	89 e5                	mov    %esp,%ebp
   3327b:	83 ec 48             	sub    $0x48,%esp
   3327e:	c7 45 d4 03 00 00 00 	movl   $0x3,0xffffffd4(%ebp)
   33285:	c7 04 24 6a 4e 03 00 	movl   $0x34e6a,(%esp)
   3328c:	e8 9f ed ff ff       	call   32030 <printf>
   33291:	8d 45 d0             	lea    0xffffffd0(%ebp),%eax
   33294:	89 44 24 08          	mov    %eax,0x8(%esp)
   33298:	c7 44 24 04 03 00 00 	movl   $0x3,0x4(%esp)
   3329f:	00 
   332a0:	c7 04 24 01 00 00 00 	movl   $0x1,(%esp)
   332a7:	e8 b2 e6 ff ff       	call   3195e <sendrec>
   332ac:	c7 04 24 88 4e 03 00 	movl   $0x34e88,(%esp)
   332b3:	e8 58 f8 ff ff       	call   32b10 <spin>
   332b8:	c9                   	leave  
   332b9:	c3                   	ret    
   332ba:	90                   	nop    
   332bb:	90                   	nop    

000332bc <task_tick>:
   332bc:	55                   	push   %ebp
   332bd:	89 e5                	mov    %esp,%ebp
   332bf:	83 ec 58             	sub    $0x58,%esp
   332c2:	8d 45 cc             	lea    0xffffffcc(%ebp),%eax
   332c5:	89 44 24 08          	mov    %eax,0x8(%esp)
   332c9:	c7 44 24 04 0f 27 00 	movl   $0x270f,0x4(%esp)
   332d0:	00 
   332d1:	c7 04 24 02 00 00 00 	movl   $0x2,(%esp)
   332d8:	e8 81 e6 ff ff       	call   3195e <sendrec>
   332dd:	8b 45 cc             	mov    0xffffffcc(%ebp),%eax
   332e0:	89 45 fc             	mov    %eax,0xfffffffc(%ebp)
   332e3:	c7 45 cc 02 00 00 00 	movl   $0x2,0xffffffcc(%ebp)
   332ea:	c7 45 d0 00 00 00 00 	movl   $0x0,0xffffffd0(%ebp)
   332f1:	a1 00 8a 03 00       	mov    0x38a00,%eax
   332f6:	89 45 d4             	mov    %eax,0xffffffd4(%ebp)
   332f9:	83 7d fc 00          	cmpl   $0x0,0xfffffffc(%ebp)
   332fd:	75 24                	jne    33323 <task_tick+0x67>
   332ff:	c7 44 24 0c 16 00 00 	movl   $0x16,0xc(%esp)
   33306:	00 
   33307:	c7 44 24 08 8b 4e 03 	movl   $0x34e8b,0x8(%esp)
   3330e:	00 
   3330f:	c7 44 24 04 8b 4e 03 	movl   $0x34e8b,0x4(%esp)
   33316:	00 
   33317:	c7 04 24 a6 4e 03 00 	movl   $0x34ea6,(%esp)
   3331e:	e8 08 f8 ff ff       	call   32b2b <assertion_failure>
   33323:	8d 45 cc             	lea    0xffffffcc(%ebp),%eax
   33326:	89 44 24 08          	mov    %eax,0x8(%esp)
   3332a:	8b 45 fc             	mov    0xfffffffc(%ebp),%eax
   3332d:	89 44 24 04          	mov    %eax,0x4(%esp)
   33331:	c7 04 24 01 00 00 00 	movl   $0x1,(%esp)
   33338:	e8 21 e6 ff ff       	call   3195e <sendrec>
   3333d:	eb 83                	jmp    332c2 <task_tick+0x6>
   3333f:	90                   	nop    

00033340 <init_tty>:
   33340:	55                   	push   %ebp
   33341:	89 e5                	mov    %esp,%ebp
   33343:	83 ec 08             	sub    $0x8,%esp
   33346:	8b 45 0c             	mov    0xc(%ebp),%eax
   33349:	3b 45 10             	cmp    0x10(%ebp),%eax
   3334c:	7c 0e                	jl     3335c <init_tty+0x1c>
   3334e:	c7 04 24 b8 4e 03 00 	movl   $0x34eb8,(%esp)
   33355:	e8 9a f6 ff ff       	call   329f4 <disp_str>
   3335a:	eb 27                	jmp    33383 <init_tty+0x43>
   3335c:	8b 55 0c             	mov    0xc(%ebp),%edx
   3335f:	8b 45 08             	mov    0x8(%ebp),%eax
   33362:	89 10                	mov    %edx,(%eax)
   33364:	8b 55 10             	mov    0x10(%ebp),%edx
   33367:	8b 45 08             	mov    0x8(%ebp),%eax
   3336a:	89 50 04             	mov    %edx,0x4(%eax)
   3336d:	8b 45 08             	mov    0x8(%ebp),%eax
   33370:	8b 10                	mov    (%eax),%edx
   33372:	8b 45 08             	mov    0x8(%ebp),%eax
   33375:	89 50 08             	mov    %edx,0x8(%eax)
   33378:	8b 45 08             	mov    0x8(%ebp),%eax
   3337b:	8b 10                	mov    (%eax),%edx
   3337d:	8b 45 08             	mov    0x8(%ebp),%eax
   33380:	89 50 0c             	mov    %edx,0xc(%eax)
   33383:	c9                   	leave  
   33384:	c3                   	ret    

00033385 <init_all_ttys>:
   33385:	55                   	push   %ebp
   33386:	89 e5                	mov    %esp,%ebp
   33388:	83 ec 18             	sub    $0x18,%esp
   3338b:	e8 7e 06 00 00       	call   33a0e <init_keyboard>
   33390:	c7 04 24 00 00 00 00 	movl   $0x0,(%esp)
   33397:	e8 30 01 00 00       	call   334cc <id2tty>
   3339c:	c7 44 24 08 d0 07 00 	movl   $0x7d0,0x8(%esp)
   333a3:	00 
   333a4:	c7 44 24 04 00 00 00 	movl   $0x0,0x4(%esp)
   333ab:	00 
   333ac:	89 04 24             	mov    %eax,(%esp)
   333af:	e8 8c ff ff ff       	call   33340 <init_tty>
   333b4:	8b 15 08 50 03 00    	mov    0x35008,%edx
   333ba:	89 d0                	mov    %edx,%eax
   333bc:	c1 e8 1f             	shr    $0x1f,%eax
   333bf:	01 d0                	add    %edx,%eax
   333c1:	d1 f8                	sar    %eax
   333c3:	a3 4c 7c 03 00       	mov    %eax,0x37c4c
   333c8:	c7 44 24 04 e8 4e 03 	movl   $0x34ee8,0x4(%esp)
   333cf:	00 
   333d0:	c7 04 24 00 00 00 00 	movl   $0x0,(%esp)
   333d7:	e8 09 0e 00 00       	call   341e5 <printStr>
   333dc:	c7 04 24 01 00 00 00 	movl   $0x1,(%esp)
   333e3:	e8 e4 00 00 00       	call   334cc <id2tty>
   333e8:	c7 44 24 08 90 1a 00 	movl   $0x1a90,0x8(%esp)
   333ef:	00 
   333f0:	c7 44 24 04 c0 12 00 	movl   $0x12c0,0x4(%esp)
   333f7:	00 
   333f8:	89 04 24             	mov    %eax,(%esp)
   333fb:	e8 40 ff ff ff       	call   33340 <init_tty>
   33400:	c7 44 24 04 08 4f 03 	movl   $0x34f08,0x4(%esp)
   33407:	00 
   33408:	c7 04 24 01 00 00 00 	movl   $0x1,(%esp)
   3340f:	e8 d1 0d 00 00       	call   341e5 <printStr>
   33414:	c7 04 24 02 00 00 00 	movl   $0x2,(%esp)
   3341b:	e8 ac 00 00 00       	call   334cc <id2tty>
   33420:	c7 44 24 08 50 2d 00 	movl   $0x2d50,0x8(%esp)
   33427:	00 
   33428:	c7 44 24 04 80 25 00 	movl   $0x2580,0x4(%esp)
   3342f:	00 
   33430:	89 04 24             	mov    %eax,(%esp)
   33433:	e8 08 ff ff ff       	call   33340 <init_tty>
   33438:	c7 44 24 04 28 4f 03 	movl   $0x34f28,0x4(%esp)
   3343f:	00 
   33440:	c7 04 24 02 00 00 00 	movl   $0x2,(%esp)
   33447:	e8 99 0d 00 00       	call   341e5 <printStr>
   3344c:	c7 05 88 f1 09 00 00 	movl   $0x0,0x9f188
   33453:	00 00 00 
   33456:	c9                   	leave  
   33457:	c3                   	ret    

00033458 <switch_tty>:
   33458:	55                   	push   %ebp
   33459:	89 e5                	mov    %esp,%ebp
   3345b:	83 ec 08             	sub    $0x8,%esp
   3345e:	8b 45 08             	mov    0x8(%ebp),%eax
   33461:	8b 40 08             	mov    0x8(%eax),%eax
   33464:	89 04 24             	mov    %eax,(%esp)
   33467:	e8 f4 0a 00 00       	call   33f60 <set_disp_addr>
   3346c:	8b 45 08             	mov    0x8(%ebp),%eax
   3346f:	8b 40 0c             	mov    0xc(%eax),%eax
   33472:	89 04 24             	mov    %eax,(%esp)
   33475:	e8 87 0a 00 00       	call   33f01 <set_cursor>
   3347a:	8b 45 08             	mov    0x8(%ebp),%eax
   3347d:	8b 40 0c             	mov    0xc(%eax),%eax
   33480:	01 c0                	add    %eax,%eax
   33482:	a3 08 50 03 00       	mov    %eax,0x35008
   33487:	c9                   	leave  
   33488:	c3                   	ret    

00033489 <tty2id>:
   33489:	55                   	push   %ebp
   3348a:	89 e5                	mov    %esp,%ebp
   3348c:	83 ec 18             	sub    $0x18,%esp
   3348f:	83 7d 08 00          	cmpl   $0x0,0x8(%ebp)
   33493:	75 24                	jne    334b9 <tty2id+0x30>
   33495:	c7 44 24 0c 3a 00 00 	movl   $0x3a,0xc(%esp)
   3349c:	00 
   3349d:	c7 44 24 08 48 4f 03 	movl   $0x34f48,0x8(%esp)
   334a4:	00 
   334a5:	c7 44 24 04 48 4f 03 	movl   $0x34f48,0x4(%esp)
   334ac:	00 
   334ad:	c7 04 24 5c 4f 03 00 	movl   $0x34f5c,(%esp)
   334b4:	e8 72 f6 ff ff       	call   32b2b <assertion_failure>
   334b9:	8b 55 08             	mov    0x8(%ebp),%edx
   334bc:	b8 40 7c 03 00       	mov    $0x37c40,%eax
   334c1:	89 d1                	mov    %edx,%ecx
   334c3:	29 c1                	sub    %eax,%ecx
   334c5:	89 c8                	mov    %ecx,%eax
   334c7:	c1 f8 04             	sar    $0x4,%eax
   334ca:	c9                   	leave  
   334cb:	c3                   	ret    

000334cc <id2tty>:
   334cc:	55                   	push   %ebp
   334cd:	89 e5                	mov    %esp,%ebp
   334cf:	83 ec 18             	sub    $0x18,%esp
   334d2:	83 7d 08 00          	cmpl   $0x0,0x8(%ebp)
   334d6:	79 24                	jns    334fc <id2tty+0x30>
   334d8:	c7 44 24 0c 3f 00 00 	movl   $0x3f,0xc(%esp)
   334df:	00 
   334e0:	c7 44 24 08 48 4f 03 	movl   $0x34f48,0x8(%esp)
   334e7:	00 
   334e8:	c7 44 24 04 48 4f 03 	movl   $0x34f48,0x4(%esp)
   334ef:	00 
   334f0:	c7 04 24 5e 4f 03 00 	movl   $0x34f5e,(%esp)
   334f7:	e8 2f f6 ff ff       	call   32b2b <assertion_failure>
   334fc:	8b 45 08             	mov    0x8(%ebp),%eax
   334ff:	c1 e0 04             	shl    $0x4,%eax
   33502:	05 40 7c 03 00       	add    $0x37c40,%eax
   33507:	c9                   	leave  
   33508:	c3                   	ret    
   33509:	90                   	nop    
   3350a:	90                   	nop    
   3350b:	90                   	nop    

0003350c <task_tty>:
   3350c:	55                   	push   %ebp
   3350d:	89 e5                	mov    %esp,%ebp
   3350f:	53                   	push   %ebx
   33510:	83 ec 24             	sub    $0x24,%esp
   33513:	eb 00                	jmp    33515 <task_tty+0x9>
   33515:	a1 88 f1 09 00       	mov    0x9f188,%eax
   3351a:	89 04 24             	mov    %eax,(%esp)
   3351d:	e8 aa ff ff ff       	call   334cc <id2tty>
   33522:	89 04 24             	mov    %eax,(%esp)
   33525:	e8 34 05 00 00       	call   33a5e <keyboard_read>
   3352a:	89 45 f8             	mov    %eax,0xfffffff8(%ebp)
   3352d:	a1 88 f1 09 00       	mov    0x9f188,%eax
   33532:	39 45 f8             	cmp    %eax,0xfffffff8(%ebp)
   33535:	74 de                	je     33515 <task_tty+0x9>
   33537:	83 7d f8 ff          	cmpl   $0xffffffff,0xfffffff8(%ebp)
   3353b:	74 d8                	je     33515 <task_tty+0x9>
   3353d:	83 7d f8 00          	cmpl   $0x0,0xfffffff8(%ebp)
   33541:	78 d2                	js     33515 <task_tty+0x9>
   33543:	83 7d f8 02          	cmpl   $0x2,0xfffffff8(%ebp)
   33547:	7f cc                	jg     33515 <task_tty+0x9>
   33549:	a1 88 f1 09 00       	mov    0x9f188,%eax
   3354e:	89 04 24             	mov    %eax,(%esp)
   33551:	e8 76 ff ff ff       	call   334cc <id2tty>
   33556:	89 c3                	mov    %eax,%ebx
   33558:	8b 45 f8             	mov    0xfffffff8(%ebp),%eax
   3355b:	89 04 24             	mov    %eax,(%esp)
   3355e:	e8 69 ff ff ff       	call   334cc <id2tty>
   33563:	89 5c 24 04          	mov    %ebx,0x4(%esp)
   33567:	89 04 24             	mov    %eax,(%esp)
   3356a:	e8 e9 fe ff ff       	call   33458 <switch_tty>
   3356f:	8b 45 f8             	mov    0xfffffff8(%ebp),%eax
   33572:	a3 88 f1 09 00       	mov    %eax,0x9f188
   33577:	eb 9c                	jmp    33515 <task_tty+0x9>
   33579:	90                   	nop    
   3357a:	90                   	nop    
   3357b:	90                   	nop    

0003357c <init_KB_INPUT>:
   3357c:	55                   	push   %ebp
   3357d:	89 e5                	mov    %esp,%ebp
   3357f:	83 ec 18             	sub    $0x18,%esp
   33582:	83 7d 08 00          	cmpl   $0x0,0x8(%ebp)
   33586:	75 24                	jne    335ac <init_KB_INPUT+0x30>
   33588:	c7 44 24 0c 0b 00 00 	movl   $0xb,0xc(%esp)
   3358f:	00 
   33590:	c7 44 24 08 64 4f 03 	movl   $0x34f64,0x8(%esp)
   33597:	00 
   33598:	c7 44 24 04 64 4f 03 	movl   $0x34f64,0x4(%esp)
   3359f:	00 
   335a0:	c7 04 24 78 4f 03 00 	movl   $0x34f78,(%esp)
   335a7:	e8 7f f5 ff ff       	call   32b2b <assertion_failure>
   335ac:	8b 45 08             	mov    0x8(%ebp),%eax
   335af:	c7 00 00 00 00 00    	movl   $0x0,(%eax)
   335b5:	8b 45 08             	mov    0x8(%ebp),%eax
   335b8:	c7 40 04 01 00 00 00 	movl   $0x1,0x4(%eax)
   335bf:	8b 45 08             	mov    0x8(%ebp),%eax
   335c2:	c7 40 08 00 00 00 00 	movl   $0x0,0x8(%eax)
   335c9:	c9                   	leave  
   335ca:	c3                   	ret    

000335cb <get_scancode>:
   335cb:	55                   	push   %ebp
   335cc:	89 e5                	mov    %esp,%ebp
   335ce:	83 ec 28             	sub    $0x28,%esp
   335d1:	83 7d 08 00          	cmpl   $0x0,0x8(%ebp)
   335d5:	75 24                	jne    335fb <get_scancode+0x30>
   335d7:	c7 44 24 0c 14 00 00 	movl   $0x14,0xc(%esp)
   335de:	00 
   335df:	c7 44 24 08 64 4f 03 	movl   $0x34f64,0x8(%esp)
   335e6:	00 
   335e7:	c7 44 24 04 64 4f 03 	movl   $0x34f64,0x4(%esp)
   335ee:	00 
   335ef:	c7 04 24 78 4f 03 00 	movl   $0x34f78,(%esp)
   335f6:	e8 30 f5 ff ff       	call   32b2b <assertion_failure>
   335fb:	8b 45 0c             	mov    0xc(%ebp),%eax
   335fe:	8b 55 08             	mov    0x8(%ebp),%edx
   33601:	8b 52 08             	mov    0x8(%edx),%edx
   33604:	39 d0                	cmp    %edx,%eax
   33606:	77 06                	ja     3360e <get_scancode+0x43>
   33608:	83 7d 0c 00          	cmpl   $0x0,0xc(%ebp)
   3360c:	7f 0c                	jg     3361a <get_scancode+0x4f>
   3360e:	c7 45 ec ff ff ff ff 	movl   $0xffffffff,0xffffffec(%ebp)
   33615:	e9 83 00 00 00       	jmp    3369d <get_scancode+0xd2>
   3361a:	8b 45 08             	mov    0x8(%ebp),%eax
   3361d:	8b 10                	mov    (%eax),%edx
   3361f:	8b 45 08             	mov    0x8(%ebp),%eax
   33622:	8b 40 04             	mov    0x4(%eax),%eax
   33625:	39 c2                	cmp    %eax,%edx
   33627:	73 1a                	jae    33643 <get_scancode+0x78>
   33629:	8b 45 08             	mov    0x8(%ebp),%eax
   3362c:	8b 10                	mov    (%eax),%edx
   3362e:	8b 45 0c             	mov    0xc(%ebp),%eax
   33631:	01 c2                	add    %eax,%edx
   33633:	8b 45 08             	mov    0x8(%ebp),%eax
   33636:	0f b6 44 10 0c       	movzbl 0xc(%eax,%edx,1),%eax
   3363b:	0f be c0             	movsbl %al,%eax
   3363e:	89 45 ec             	mov    %eax,0xffffffec(%ebp)
   33641:	eb 5a                	jmp    3369d <get_scancode+0xd2>
   33643:	8b 45 08             	mov    0x8(%ebp),%eax
   33646:	8b 10                	mov    (%eax),%edx
   33648:	8b 45 08             	mov    0x8(%ebp),%eax
   3364b:	8b 40 04             	mov    0x4(%eax),%eax
   3364e:	39 c2                	cmp    %eax,%edx
   33650:	76 44                	jbe    33696 <get_scancode+0xcb>
   33652:	8b 45 08             	mov    0x8(%ebp),%eax
   33655:	8b 10                	mov    (%eax),%edx
   33657:	8b 45 0c             	mov    0xc(%ebp),%eax
   3365a:	8d 04 02             	lea    (%edx,%eax,1),%eax
   3365d:	83 f8 1f             	cmp    $0x1f,%eax
   33660:	76 13                	jbe    33675 <get_scancode+0xaa>
   33662:	8b 45 08             	mov    0x8(%ebp),%eax
   33665:	8b 10                	mov    (%eax),%edx
   33667:	8b 45 0c             	mov    0xc(%ebp),%eax
   3366a:	8d 04 02             	lea    (%edx,%eax,1),%eax
   3366d:	83 e8 20             	sub    $0x20,%eax
   33670:	89 45 fc             	mov    %eax,0xfffffffc(%ebp)
   33673:	eb 0e                	jmp    33683 <get_scancode+0xb8>
   33675:	8b 45 08             	mov    0x8(%ebp),%eax
   33678:	8b 10                	mov    (%eax),%edx
   3367a:	8b 45 0c             	mov    0xc(%ebp),%eax
   3367d:	8d 04 02             	lea    (%edx,%eax,1),%eax
   33680:	89 45 fc             	mov    %eax,0xfffffffc(%ebp)
   33683:	8b 55 fc             	mov    0xfffffffc(%ebp),%edx
   33686:	8b 45 08             	mov    0x8(%ebp),%eax
   33689:	0f b6 44 10 0c       	movzbl 0xc(%eax,%edx,1),%eax
   3368e:	0f be c0             	movsbl %al,%eax
   33691:	89 45 ec             	mov    %eax,0xffffffec(%ebp)
   33694:	eb 07                	jmp    3369d <get_scancode+0xd2>
   33696:	c7 45 ec ff ff ff ff 	movl   $0xffffffff,0xffffffec(%ebp)
   3369d:	8b 45 ec             	mov    0xffffffec(%ebp),%eax
   336a0:	c9                   	leave  
   336a1:	c3                   	ret    

000336a2 <shift_out>:
   336a2:	55                   	push   %ebp
   336a3:	89 e5                	mov    %esp,%ebp
   336a5:	83 ec 18             	sub    $0x18,%esp
   336a8:	83 7d 08 00          	cmpl   $0x0,0x8(%ebp)
   336ac:	75 24                	jne    336d2 <shift_out+0x30>
   336ae:	c7 44 24 0c 27 00 00 	movl   $0x27,0xc(%esp)
   336b5:	00 
   336b6:	c7 44 24 08 64 4f 03 	movl   $0x34f64,0x8(%esp)
   336bd:	00 
   336be:	c7 44 24 04 64 4f 03 	movl   $0x34f64,0x4(%esp)
   336c5:	00 
   336c6:	c7 04 24 7f 4f 03 00 	movl   $0x34f7f,(%esp)
   336cd:	e8 59 f4 ff ff       	call   32b2b <assertion_failure>
   336d2:	8b 45 08             	mov    0x8(%ebp),%eax
   336d5:	8b 40 08             	mov    0x8(%eax),%eax
   336d8:	85 c0                	test   %eax,%eax
   336da:	75 0c                	jne    336e8 <shift_out+0x46>
   336dc:	c7 45 fc ff ff ff ff 	movl   $0xffffffff,0xfffffffc(%ebp)
   336e3:	e9 b9 00 00 00       	jmp    337a1 <shift_out+0xff>
   336e8:	8b 45 08             	mov    0x8(%ebp),%eax
   336eb:	8b 10                	mov    (%eax),%edx
   336ed:	8b 45 08             	mov    0x8(%ebp),%eax
   336f0:	8b 40 04             	mov    0x4(%eax),%eax
   336f3:	39 c2                	cmp    %eax,%edx
   336f5:	73 31                	jae    33728 <shift_out+0x86>
   336f7:	8b 45 08             	mov    0x8(%ebp),%eax
   336fa:	8b 00                	mov    (%eax),%eax
   336fc:	8d 50 01             	lea    0x1(%eax),%edx
   336ff:	8b 45 08             	mov    0x8(%ebp),%eax
   33702:	89 10                	mov    %edx,(%eax)
   33704:	8b 45 08             	mov    0x8(%ebp),%eax
   33707:	8b 40 08             	mov    0x8(%eax),%eax
   3370a:	8d 50 ff             	lea    0xffffffff(%eax),%edx
   3370d:	8b 45 08             	mov    0x8(%ebp),%eax
   33710:	89 50 08             	mov    %edx,0x8(%eax)
   33713:	8b 45 08             	mov    0x8(%ebp),%eax
   33716:	8b 10                	mov    (%eax),%edx
   33718:	8b 45 08             	mov    0x8(%ebp),%eax
   3371b:	0f b6 44 10 0c       	movzbl 0xc(%eax,%edx,1),%eax
   33720:	0f be c0             	movsbl %al,%eax
   33723:	89 45 fc             	mov    %eax,0xfffffffc(%ebp)
   33726:	eb 79                	jmp    337a1 <shift_out+0xff>
   33728:	8b 45 08             	mov    0x8(%ebp),%eax
   3372b:	8b 10                	mov    (%eax),%edx
   3372d:	8b 45 08             	mov    0x8(%ebp),%eax
   33730:	8b 40 04             	mov    0x4(%eax),%eax
   33733:	39 c2                	cmp    %eax,%edx
   33735:	76 68                	jbe    3379f <shift_out+0xfd>
   33737:	8b 45 08             	mov    0x8(%ebp),%eax
   3373a:	8b 00                	mov    (%eax),%eax
   3373c:	83 f8 1f             	cmp    $0x1f,%eax
   3373f:	75 2d                	jne    3376e <shift_out+0xcc>
   33741:	8b 45 08             	mov    0x8(%ebp),%eax
   33744:	c7 00 00 00 00 00    	movl   $0x0,(%eax)
   3374a:	8b 45 08             	mov    0x8(%ebp),%eax
   3374d:	8b 40 08             	mov    0x8(%eax),%eax
   33750:	8d 50 ff             	lea    0xffffffff(%eax),%edx
   33753:	8b 45 08             	mov    0x8(%ebp),%eax
   33756:	89 50 08             	mov    %edx,0x8(%eax)
   33759:	8b 45 08             	mov    0x8(%ebp),%eax
   3375c:	8b 10                	mov    (%eax),%edx
   3375e:	8b 45 08             	mov    0x8(%ebp),%eax
   33761:	0f b6 44 10 0c       	movzbl 0xc(%eax,%edx,1),%eax
   33766:	0f be c0             	movsbl %al,%eax
   33769:	89 45 fc             	mov    %eax,0xfffffffc(%ebp)
   3376c:	eb 33                	jmp    337a1 <shift_out+0xff>
   3376e:	8b 45 08             	mov    0x8(%ebp),%eax
   33771:	8b 00                	mov    (%eax),%eax
   33773:	8d 50 01             	lea    0x1(%eax),%edx
   33776:	8b 45 08             	mov    0x8(%ebp),%eax
   33779:	89 10                	mov    %edx,(%eax)
   3377b:	8b 45 08             	mov    0x8(%ebp),%eax
   3377e:	8b 40 08             	mov    0x8(%eax),%eax
   33781:	8d 50 ff             	lea    0xffffffff(%eax),%edx
   33784:	8b 45 08             	mov    0x8(%ebp),%eax
   33787:	89 50 08             	mov    %edx,0x8(%eax)
   3378a:	8b 45 08             	mov    0x8(%ebp),%eax
   3378d:	8b 10                	mov    (%eax),%edx
   3378f:	8b 45 08             	mov    0x8(%ebp),%eax
   33792:	0f b6 44 10 0c       	movzbl 0xc(%eax,%edx,1),%eax
   33797:	0f be c0             	movsbl %al,%eax
   3379a:	89 45 fc             	mov    %eax,0xfffffffc(%ebp)
   3379d:	eb 02                	jmp    337a1 <shift_out+0xff>
   3379f:	eb 06                	jmp    337a7 <shift_out+0x105>
   337a1:	8b 45 fc             	mov    0xfffffffc(%ebp),%eax
   337a4:	89 45 f8             	mov    %eax,0xfffffff8(%ebp)
   337a7:	8b 45 f8             	mov    0xfffffff8(%ebp),%eax
   337aa:	c9                   	leave  
   337ab:	c3                   	ret    

000337ac <shift_outM>:
   337ac:	55                   	push   %ebp
   337ad:	89 e5                	mov    %esp,%ebp
   337af:	83 ec 18             	sub    $0x18,%esp
   337b2:	c7 45 fc 00 00 00 00 	movl   $0x0,0xfffffffc(%ebp)
   337b9:	eb 0f                	jmp    337ca <shift_outM+0x1e>
   337bb:	8b 45 08             	mov    0x8(%ebp),%eax
   337be:	89 04 24             	mov    %eax,(%esp)
   337c1:	e8 dc fe ff ff       	call   336a2 <shift_out>
   337c6:	83 45 fc 01          	addl   $0x1,0xfffffffc(%ebp)
   337ca:	8b 45 fc             	mov    0xfffffffc(%ebp),%eax
   337cd:	3b 45 0c             	cmp    0xc(%ebp),%eax
   337d0:	7c e9                	jl     337bb <shift_outM+0xf>
   337d2:	c9                   	leave  
   337d3:	c3                   	ret    

000337d4 <add_head>:
   337d4:	55                   	push   %ebp
   337d5:	89 e5                	mov    %esp,%ebp
   337d7:	83 ec 18             	sub    $0x18,%esp
   337da:	8b 45 0c             	mov    0xc(%ebp),%eax
   337dd:	88 45 fc             	mov    %al,0xfffffffc(%ebp)
   337e0:	83 7d 08 00          	cmpl   $0x0,0x8(%ebp)
   337e4:	75 24                	jne    3380a <add_head+0x36>
   337e6:	c7 44 24 0c 45 00 00 	movl   $0x45,0xc(%esp)
   337ed:	00 
   337ee:	c7 44 24 08 64 4f 03 	movl   $0x34f64,0x8(%esp)
   337f5:	00 
   337f6:	c7 44 24 04 64 4f 03 	movl   $0x34f64,0x4(%esp)
   337fd:	00 
   337fe:	c7 04 24 7f 4f 03 00 	movl   $0x34f7f,(%esp)
   33805:	e8 21 f3 ff ff       	call   32b2b <assertion_failure>
   3380a:	8b 45 08             	mov    0x8(%ebp),%eax
   3380d:	8b 40 08             	mov    0x8(%eax),%eax
   33810:	83 f8 1d             	cmp    $0x1d,%eax
   33813:	76 0c                	jbe    33821 <add_head+0x4d>
   33815:	c7 45 f8 00 00 00 00 	movl   $0x0,0xfffffff8(%ebp)
   3381c:	e9 ac 00 00 00       	jmp    338cd <add_head+0xf9>
   33821:	8b 45 08             	mov    0x8(%ebp),%eax
   33824:	8b 10                	mov    (%eax),%edx
   33826:	8b 45 08             	mov    0x8(%ebp),%eax
   33829:	8b 40 04             	mov    0x4(%eax),%eax
   3382c:	39 c2                	cmp    %eax,%edx
   3382e:	73 5b                	jae    3388b <add_head+0xb7>
   33830:	8b 45 08             	mov    0x8(%ebp),%eax
   33833:	8b 00                	mov    (%eax),%eax
   33835:	85 c0                	test   %eax,%eax
   33837:	75 24                	jne    3385d <add_head+0x89>
   33839:	0f b6 55 fc          	movzbl 0xfffffffc(%ebp),%edx
   3383d:	8b 45 08             	mov    0x8(%ebp),%eax
   33840:	88 50 0c             	mov    %dl,0xc(%eax)
   33843:	8b 45 08             	mov    0x8(%ebp),%eax
   33846:	c7 00 1f 00 00 00    	movl   $0x1f,(%eax)
   3384c:	8b 45 08             	mov    0x8(%ebp),%eax
   3384f:	8b 40 08             	mov    0x8(%eax),%eax
   33852:	8d 50 01             	lea    0x1(%eax),%edx
   33855:	8b 45 08             	mov    0x8(%ebp),%eax
   33858:	89 50 08             	mov    %edx,0x8(%eax)
   3385b:	eb 69                	jmp    338c6 <add_head+0xf2>
   3385d:	8b 45 08             	mov    0x8(%ebp),%eax
   33860:	8b 08                	mov    (%eax),%ecx
   33862:	0f b6 55 fc          	movzbl 0xfffffffc(%ebp),%edx
   33866:	8b 45 08             	mov    0x8(%ebp),%eax
   33869:	88 54 08 0c          	mov    %dl,0xc(%eax,%ecx,1)
   3386d:	8b 45 08             	mov    0x8(%ebp),%eax
   33870:	8b 00                	mov    (%eax),%eax
   33872:	8d 50 ff             	lea    0xffffffff(%eax),%edx
   33875:	8b 45 08             	mov    0x8(%ebp),%eax
   33878:	89 10                	mov    %edx,(%eax)
   3387a:	8b 45 08             	mov    0x8(%ebp),%eax
   3387d:	8b 40 08             	mov    0x8(%eax),%eax
   33880:	8d 50 01             	lea    0x1(%eax),%edx
   33883:	8b 45 08             	mov    0x8(%ebp),%eax
   33886:	89 50 08             	mov    %edx,0x8(%eax)
   33889:	eb 3b                	jmp    338c6 <add_head+0xf2>
   3388b:	8b 45 08             	mov    0x8(%ebp),%eax
   3388e:	8b 10                	mov    (%eax),%edx
   33890:	8b 45 08             	mov    0x8(%ebp),%eax
   33893:	8b 40 04             	mov    0x4(%eax),%eax
   33896:	39 c2                	cmp    %eax,%edx
   33898:	76 2c                	jbe    338c6 <add_head+0xf2>
   3389a:	8b 45 08             	mov    0x8(%ebp),%eax
   3389d:	8b 08                	mov    (%eax),%ecx
   3389f:	0f b6 55 fc          	movzbl 0xfffffffc(%ebp),%edx
   338a3:	8b 45 08             	mov    0x8(%ebp),%eax
   338a6:	88 54 08 0c          	mov    %dl,0xc(%eax,%ecx,1)
   338aa:	8b 45 08             	mov    0x8(%ebp),%eax
   338ad:	8b 00                	mov    (%eax),%eax
   338af:	8d 50 ff             	lea    0xffffffff(%eax),%edx
   338b2:	8b 45 08             	mov    0x8(%ebp),%eax
   338b5:	89 10                	mov    %edx,(%eax)
   338b7:	8b 45 08             	mov    0x8(%ebp),%eax
   338ba:	8b 40 08             	mov    0x8(%eax),%eax
   338bd:	8d 50 01             	lea    0x1(%eax),%edx
   338c0:	8b 45 08             	mov    0x8(%ebp),%eax
   338c3:	89 50 08             	mov    %edx,0x8(%eax)
   338c6:	c7 45 f8 01 00 00 00 	movl   $0x1,0xfffffff8(%ebp)
   338cd:	8b 45 f8             	mov    0xfffffff8(%ebp),%eax
   338d0:	c9                   	leave  
   338d1:	c3                   	ret    

000338d2 <add_tail>:
   338d2:	55                   	push   %ebp
   338d3:	89 e5                	mov    %esp,%ebp
   338d5:	83 ec 18             	sub    $0x18,%esp
   338d8:	8b 45 0c             	mov    0xc(%ebp),%eax
   338db:	88 45 fc             	mov    %al,0xfffffffc(%ebp)
   338de:	83 7d 08 00          	cmpl   $0x0,0x8(%ebp)
   338e2:	75 24                	jne    33908 <add_tail+0x36>
   338e4:	c7 44 24 0c 5f 00 00 	movl   $0x5f,0xc(%esp)
   338eb:	00 
   338ec:	c7 44 24 08 64 4f 03 	movl   $0x34f64,0x8(%esp)
   338f3:	00 
   338f4:	c7 44 24 04 64 4f 03 	movl   $0x34f64,0x4(%esp)
   338fb:	00 
   338fc:	c7 04 24 7f 4f 03 00 	movl   $0x34f7f,(%esp)
   33903:	e8 23 f2 ff ff       	call   32b2b <assertion_failure>
   33908:	8b 45 08             	mov    0x8(%ebp),%eax
   3390b:	8b 40 08             	mov    0x8(%eax),%eax
   3390e:	83 f8 1d             	cmp    $0x1d,%eax
   33911:	76 0c                	jbe    3391f <add_tail+0x4d>
   33913:	c7 45 f8 00 00 00 00 	movl   $0x0,0xfffffff8(%ebp)
   3391a:	e9 bc 00 00 00       	jmp    339db <add_tail+0x109>
   3391f:	8b 45 08             	mov    0x8(%ebp),%eax
   33922:	8b 10                	mov    (%eax),%edx
   33924:	8b 45 08             	mov    0x8(%ebp),%eax
   33927:	8b 40 04             	mov    0x4(%eax),%eax
   3392a:	39 c2                	cmp    %eax,%edx
   3392c:	73 68                	jae    33996 <add_tail+0xc4>
   3392e:	8b 45 08             	mov    0x8(%ebp),%eax
   33931:	8b 40 04             	mov    0x4(%eax),%eax
   33934:	83 f8 1f             	cmp    $0x1f,%eax
   33937:	75 2c                	jne    33965 <add_tail+0x93>
   33939:	8b 45 08             	mov    0x8(%ebp),%eax
   3393c:	8b 48 04             	mov    0x4(%eax),%ecx
   3393f:	0f b6 55 fc          	movzbl 0xfffffffc(%ebp),%edx
   33943:	8b 45 08             	mov    0x8(%ebp),%eax
   33946:	88 54 08 0c          	mov    %dl,0xc(%eax,%ecx,1)
   3394a:	8b 45 08             	mov    0x8(%ebp),%eax
   3394d:	c7 40 04 00 00 00 00 	movl   $0x0,0x4(%eax)
   33954:	8b 45 08             	mov    0x8(%ebp),%eax
   33957:	8b 40 08             	mov    0x8(%eax),%eax
   3395a:	8d 50 01             	lea    0x1(%eax),%edx
   3395d:	8b 45 08             	mov    0x8(%ebp),%eax
   33960:	89 50 08             	mov    %edx,0x8(%eax)
   33963:	eb 6f                	jmp    339d4 <add_tail+0x102>
   33965:	8b 45 08             	mov    0x8(%ebp),%eax
   33968:	8b 48 04             	mov    0x4(%eax),%ecx
   3396b:	0f b6 55 fc          	movzbl 0xfffffffc(%ebp),%edx
   3396f:	8b 45 08             	mov    0x8(%ebp),%eax
   33972:	88 54 08 0c          	mov    %dl,0xc(%eax,%ecx,1)
   33976:	8b 45 08             	mov    0x8(%ebp),%eax
   33979:	8b 40 04             	mov    0x4(%eax),%eax
   3397c:	8d 50 01             	lea    0x1(%eax),%edx
   3397f:	8b 45 08             	mov    0x8(%ebp),%eax
   33982:	89 50 04             	mov    %edx,0x4(%eax)
   33985:	8b 45 08             	mov    0x8(%ebp),%eax
   33988:	8b 40 08             	mov    0x8(%eax),%eax
   3398b:	8d 50 01             	lea    0x1(%eax),%edx
   3398e:	8b 45 08             	mov    0x8(%ebp),%eax
   33991:	89 50 08             	mov    %edx,0x8(%eax)
   33994:	eb 3e                	jmp    339d4 <add_tail+0x102>
   33996:	8b 45 08             	mov    0x8(%ebp),%eax
   33999:	8b 10                	mov    (%eax),%edx
   3399b:	8b 45 08             	mov    0x8(%ebp),%eax
   3399e:	8b 40 04             	mov    0x4(%eax),%eax
   339a1:	39 c2                	cmp    %eax,%edx
   339a3:	76 2f                	jbe    339d4 <add_tail+0x102>
   339a5:	8b 45 08             	mov    0x8(%ebp),%eax
   339a8:	8b 48 04             	mov    0x4(%eax),%ecx
   339ab:	0f b6 55 fc          	movzbl 0xfffffffc(%ebp),%edx
   339af:	8b 45 08             	mov    0x8(%ebp),%eax
   339b2:	88 54 08 0c          	mov    %dl,0xc(%eax,%ecx,1)
   339b6:	8b 45 08             	mov    0x8(%ebp),%eax
   339b9:	8b 40 04             	mov    0x4(%eax),%eax
   339bc:	8d 50 01             	lea    0x1(%eax),%edx
   339bf:	8b 45 08             	mov    0x8(%ebp),%eax
   339c2:	89 50 04             	mov    %edx,0x4(%eax)
   339c5:	8b 45 08             	mov    0x8(%ebp),%eax
   339c8:	8b 40 08             	mov    0x8(%eax),%eax
   339cb:	8d 50 01             	lea    0x1(%eax),%edx
   339ce:	8b 45 08             	mov    0x8(%ebp),%eax
   339d1:	89 50 08             	mov    %edx,0x8(%eax)
   339d4:	c7 45 f8 01 00 00 00 	movl   $0x1,0xfffffff8(%ebp)
   339db:	8b 45 f8             	mov    0xfffffff8(%ebp),%eax
   339de:	c9                   	leave  
   339df:	c3                   	ret    

000339e0 <key_interrupt>:
   339e0:	55                   	push   %ebp
   339e1:	89 e5                	mov    %esp,%ebp
   339e3:	83 ec 18             	sub    $0x18,%esp
   339e6:	c7 04 24 60 00 00 00 	movl   $0x60,(%esp)
   339ed:	e8 74 f0 ff ff       	call   32a66 <in_byte>
   339f2:	88 45 ff             	mov    %al,0xffffffff(%ebp)
   339f5:	0f b6 45 ff          	movzbl 0xffffffff(%ebp),%eax
   339f9:	0f be c0             	movsbl %al,%eax
   339fc:	89 44 24 04          	mov    %eax,0x4(%esp)
   33a00:	c7 04 24 80 7c 03 00 	movl   $0x37c80,(%esp)
   33a07:	e8 c6 fe ff ff       	call   338d2 <add_tail>
   33a0c:	c9                   	leave  
   33a0d:	c3                   	ret    

00033a0e <init_keyboard>:
   33a0e:	55                   	push   %ebp
   33a0f:	89 e5                	mov    %esp,%ebp
   33a11:	83 ec 08             	sub    $0x8,%esp
   33a14:	c7 04 24 80 7c 03 00 	movl   $0x37c80,(%esp)
   33a1b:	e8 5c fb ff ff       	call   3357c <init_KB_INPUT>
   33a20:	c7 05 ac 7c 03 00 00 	movl   $0x0,0x37cac
   33a27:	00 00 00 
   33a2a:	c7 05 b0 7c 03 00 00 	movl   $0x0,0x37cb0
   33a31:	00 00 00 
   33a34:	c7 05 b4 7c 03 00 00 	movl   $0x0,0x37cb4
   33a3b:	00 00 00 
   33a3e:	c7 05 b8 7c 03 00 00 	movl   $0x0,0x37cb8
   33a45:	00 00 00 
   33a48:	c7 05 bc 7c 03 00 00 	movl   $0x0,0x37cbc
   33a4f:	00 00 00 
   33a52:	c7 05 c0 7c 03 00 00 	movl   $0x0,0x37cc0
   33a59:	00 00 00 
   33a5c:	c9                   	leave  
   33a5d:	c3                   	ret    

00033a5e <keyboard_read>:
   33a5e:	55                   	push   %ebp
   33a5f:	89 e5                	mov    %esp,%ebp
   33a61:	83 ec 48             	sub    $0x48,%esp
   33a64:	c7 45 f4 00 00 00 00 	movl   $0x0,0xfffffff4(%ebp)
   33a6b:	c7 45 f8 00 00 00 00 	movl   $0x0,0xfffffff8(%ebp)
   33a72:	c7 44 24 04 01 00 00 	movl   $0x1,0x4(%esp)
   33a79:	00 
   33a7a:	c7 04 24 80 7c 03 00 	movl   $0x37c80,(%esp)
   33a81:	e8 45 fb ff ff       	call   335cb <get_scancode>
   33a86:	88 45 fe             	mov    %al,0xfffffffe(%ebp)
   33a89:	80 7d fe ff          	cmpb   $0xff,0xfffffffe(%ebp)
   33a8d:	75 0c                	jne    33a9b <keyboard_read+0x3d>
   33a8f:	c7 45 c8 ff ff ff ff 	movl   $0xffffffff,0xffffffc8(%ebp)
   33a96:	e9 61 04 00 00       	jmp    33efc <keyboard_read+0x49e>
   33a9b:	80 7d fe e1          	cmpb   $0xe1,0xfffffffe(%ebp)
   33a9f:	75 3d                	jne    33ade <keyboard_read+0x80>
   33aa1:	a1 88 7c 03 00       	mov    0x37c88,%eax
   33aa6:	83 f8 03             	cmp    $0x3,%eax
   33aa9:	77 0c                	ja     33ab7 <keyboard_read+0x59>
   33aab:	c7 45 c8 ff ff ff ff 	movl   $0xffffffff,0xffffffc8(%ebp)
   33ab2:	e9 45 04 00 00       	jmp    33efc <keyboard_read+0x49e>
   33ab7:	c7 45 f4 1e 01 00 00 	movl   $0x11e,0xfffffff4(%ebp)
   33abe:	c7 45 f8 01 00 00 00 	movl   $0x1,0xfffffff8(%ebp)
   33ac5:	c7 44 24 04 06 00 00 	movl   $0x6,0x4(%esp)
   33acc:	00 
   33acd:	c7 04 24 80 7c 03 00 	movl   $0x37c80,(%esp)
   33ad4:	e8 d3 fc ff ff       	call   337ac <shift_outM>
   33ad9:	e9 dc 02 00 00       	jmp    33dba <keyboard_read+0x35c>
   33ade:	80 7d fe e0          	cmpb   $0xe0,0xfffffffe(%ebp)
   33ae2:	0f 85 95 01 00 00    	jne    33c7d <keyboard_read+0x21f>
   33ae8:	a1 88 7c 03 00       	mov    0x37c88,%eax
   33aed:	83 f8 01             	cmp    $0x1,%eax
   33af0:	77 0c                	ja     33afe <keyboard_read+0xa0>
   33af2:	c7 45 c8 ff ff ff ff 	movl   $0xffffffff,0xffffffc8(%ebp)
   33af9:	e9 fe 03 00 00       	jmp    33efc <keyboard_read+0x49e>
   33afe:	c7 44 24 04 02 00 00 	movl   $0x2,0x4(%esp)
   33b05:	00 
   33b06:	c7 04 24 80 7c 03 00 	movl   $0x37c80,(%esp)
   33b0d:	e8 b9 fa ff ff       	call   335cb <get_scancode>
   33b12:	88 45 ff             	mov    %al,0xffffffff(%ebp)
   33b15:	80 7d ff 00          	cmpb   $0x0,0xffffffff(%ebp)
   33b19:	78 28                	js     33b43 <keyboard_read+0xe5>
   33b1b:	0f b6 45 ff          	movzbl 0xffffffff(%ebp),%eax
   33b1f:	84 c0                	test   %al,%al
   33b21:	78 20                	js     33b43 <keyboard_read+0xe5>
   33b23:	0f be 55 ff          	movsbl 0xffffffff(%ebp),%edx
   33b27:	89 d0                	mov    %edx,%eax
   33b29:	01 c0                	add    %eax,%eax
   33b2b:	01 d0                	add    %edx,%eax
   33b2d:	83 c0 02             	add    $0x2,%eax
   33b30:	8b 04 85 20 50 03 00 	mov    0x35020(,%eax,4),%eax
   33b37:	89 45 f4             	mov    %eax,0xfffffff4(%ebp)
   33b3a:	c7 45 f8 01 00 00 00 	movl   $0x1,0xfffffff8(%ebp)
   33b41:	eb 12                	jmp    33b55 <keyboard_read+0xf7>
   33b43:	0f be 45 ff          	movsbl 0xffffffff(%ebp),%eax
   33b47:	83 e0 01             	and    $0x1,%eax
   33b4a:	84 c0                	test   %al,%al
   33b4c:	74 07                	je     33b55 <keyboard_read+0xf7>
   33b4e:	c7 45 f8 00 00 00 00 	movl   $0x0,0xfffffff8(%ebp)
   33b55:	0f b6 45 ff          	movzbl 0xffffffff(%ebp),%eax
   33b59:	0f b6 c0             	movzbl %al,%eax
   33b5c:	89 45 cc             	mov    %eax,0xffffffcc(%ebp)
   33b5f:	83 7d cc 38          	cmpl   $0x38,0xffffffcc(%ebp)
   33b63:	74 59                	je     33bbe <keyboard_read+0x160>
   33b65:	83 7d cc 38          	cmpl   $0x38,0xffffffcc(%ebp)
   33b69:	7f 11                	jg     33b7c <keyboard_read+0x11e>
   33b6b:	83 7d cc 1d          	cmpl   $0x1d,0xffffffcc(%ebp)
   33b6f:	74 2f                	je     33ba0 <keyboard_read+0x142>
   33b71:	83 7d cc 2a          	cmpl   $0x2a,0xffffffcc(%ebp)
   33b75:	74 65                	je     33bdc <keyboard_read+0x17e>
   33b77:	e9 e8 00 00 00       	jmp    33c64 <keyboard_read+0x206>
   33b7c:	81 7d cc b7 00 00 00 	cmpl   $0xb7,0xffffffcc(%ebp)
   33b83:	0f 84 97 00 00 00    	je     33c20 <keyboard_read+0x1c2>
   33b89:	81 7d cc b8 00 00 00 	cmpl   $0xb8,0xffffffcc(%ebp)
   33b90:	74 3b                	je     33bcd <keyboard_read+0x16f>
   33b92:	81 7d cc 9d 00 00 00 	cmpl   $0x9d,0xffffffcc(%ebp)
   33b99:	74 14                	je     33baf <keyboard_read+0x151>
   33b9b:	e9 c4 00 00 00       	jmp    33c64 <keyboard_read+0x206>
   33ba0:	c7 05 b8 7c 03 00 01 	movl   $0x1,0x37cb8
   33ba7:	00 00 00 
   33baa:	e9 b5 00 00 00       	jmp    33c64 <keyboard_read+0x206>
   33baf:	c7 05 b8 7c 03 00 00 	movl   $0x0,0x37cb8
   33bb6:	00 00 00 
   33bb9:	e9 a6 00 00 00       	jmp    33c64 <keyboard_read+0x206>
   33bbe:	c7 05 c0 7c 03 00 01 	movl   $0x1,0x37cc0
   33bc5:	00 00 00 
   33bc8:	e9 97 00 00 00       	jmp    33c64 <keyboard_read+0x206>
   33bcd:	c7 05 c0 7c 03 00 00 	movl   $0x0,0x37cc0
   33bd4:	00 00 00 
   33bd7:	e9 88 00 00 00       	jmp    33c64 <keyboard_read+0x206>
   33bdc:	a1 88 7c 03 00       	mov    0x37c88,%eax
   33be1:	83 f8 03             	cmp    $0x3,%eax
   33be4:	77 0c                	ja     33bf2 <keyboard_read+0x194>
   33be6:	c7 45 c8 ff ff ff ff 	movl   $0xffffffff,0xffffffc8(%ebp)
   33bed:	e9 0a 03 00 00       	jmp    33efc <keyboard_read+0x49e>
   33bf2:	c7 45 f4 1d 01 00 00 	movl   $0x11d,0xfffffff4(%ebp)
   33bf9:	c7 45 f8 01 00 00 00 	movl   $0x1,0xfffffff8(%ebp)
   33c00:	c7 44 24 04 04 00 00 	movl   $0x4,0x4(%esp)
   33c07:	00 
   33c08:	c7 04 24 80 7c 03 00 	movl   $0x37c80,(%esp)
   33c0f:	e8 98 fb ff ff       	call   337ac <shift_outM>
   33c14:	c7 45 c8 ff ff ff ff 	movl   $0xffffffff,0xffffffc8(%ebp)
   33c1b:	e9 dc 02 00 00       	jmp    33efc <keyboard_read+0x49e>
   33c20:	a1 88 7c 03 00       	mov    0x37c88,%eax
   33c25:	83 f8 03             	cmp    $0x3,%eax
   33c28:	77 0c                	ja     33c36 <keyboard_read+0x1d8>
   33c2a:	c7 45 c8 ff ff ff ff 	movl   $0xffffffff,0xffffffc8(%ebp)
   33c31:	e9 c6 02 00 00       	jmp    33efc <keyboard_read+0x49e>
   33c36:	c7 45 f4 1d 01 00 00 	movl   $0x11d,0xfffffff4(%ebp)
   33c3d:	c7 45 f8 00 00 00 00 	movl   $0x0,0xfffffff8(%ebp)
   33c44:	c7 44 24 04 04 00 00 	movl   $0x4,0x4(%esp)
   33c4b:	00 
   33c4c:	c7 04 24 80 7c 03 00 	movl   $0x37c80,(%esp)
   33c53:	e8 54 fb ff ff       	call   337ac <shift_outM>
   33c58:	c7 45 c8 ff ff ff ff 	movl   $0xffffffff,0xffffffc8(%ebp)
   33c5f:	e9 98 02 00 00       	jmp    33efc <keyboard_read+0x49e>
   33c64:	c7 44 24 04 02 00 00 	movl   $0x2,0x4(%esp)
   33c6b:	00 
   33c6c:	c7 04 24 80 7c 03 00 	movl   $0x37c80,(%esp)
   33c73:	e8 34 fb ff ff       	call   337ac <shift_outM>
   33c78:	e9 3d 01 00 00       	jmp    33dba <keyboard_read+0x35c>
   33c7d:	80 7d fe 00          	cmpb   $0x0,0xfffffffe(%ebp)
   33c81:	0f 88 b7 00 00 00    	js     33d3e <keyboard_read+0x2e0>
   33c87:	0f b6 45 fe          	movzbl 0xfffffffe(%ebp),%eax
   33c8b:	84 c0                	test   %al,%al
   33c8d:	0f 88 ab 00 00 00    	js     33d3e <keyboard_read+0x2e0>
   33c93:	0f be 45 fe          	movsbl 0xfffffffe(%ebp),%eax
   33c97:	89 45 d0             	mov    %eax,0xffffffd0(%ebp)
   33c9a:	83 7d d0 2a          	cmpl   $0x2a,0xffffffd0(%ebp)
   33c9e:	74 28                	je     33cc8 <keyboard_read+0x26a>
   33ca0:	83 7d d0 2a          	cmpl   $0x2a,0xffffffd0(%ebp)
   33ca4:	7f 08                	jg     33cae <keyboard_read+0x250>
   33ca6:	83 7d d0 1d          	cmpl   $0x1d,0xffffffd0(%ebp)
   33caa:	74 28                	je     33cd4 <keyboard_read+0x276>
   33cac:	eb 3c                	jmp    33cea <keyboard_read+0x28c>
   33cae:	83 7d d0 36          	cmpl   $0x36,0xffffffd0(%ebp)
   33cb2:	74 08                	je     33cbc <keyboard_read+0x25e>
   33cb4:	83 7d d0 38          	cmpl   $0x38,0xffffffd0(%ebp)
   33cb8:	74 26                	je     33ce0 <keyboard_read+0x282>
   33cba:	eb 2e                	jmp    33cea <keyboard_read+0x28c>
   33cbc:	c7 05 b0 7c 03 00 01 	movl   $0x1,0x37cb0
   33cc3:	00 00 00 
   33cc6:	eb 22                	jmp    33cea <keyboard_read+0x28c>
   33cc8:	c7 05 ac 7c 03 00 01 	movl   $0x1,0x37cac
   33ccf:	00 00 00 
   33cd2:	eb 16                	jmp    33cea <keyboard_read+0x28c>
   33cd4:	c7 05 b4 7c 03 00 01 	movl   $0x1,0x37cb4
   33cdb:	00 00 00 
   33cde:	eb 0a                	jmp    33cea <keyboard_read+0x28c>
   33ce0:	c7 05 bc 7c 03 00 01 	movl   $0x1,0x37cbc
   33ce7:	00 00 00 
   33cea:	0f be 55 fe          	movsbl 0xfffffffe(%ebp),%edx
   33cee:	89 d0                	mov    %edx,%eax
   33cf0:	01 c0                	add    %eax,%eax
   33cf2:	01 d0                	add    %edx,%eax
   33cf4:	8b 04 85 20 50 03 00 	mov    0x35020(,%eax,4),%eax
   33cfb:	89 45 f4             	mov    %eax,0xfffffff4(%ebp)
   33cfe:	a1 ac 7c 03 00       	mov    0x37cac,%eax
   33d03:	83 f8 01             	cmp    $0x1,%eax
   33d06:	74 0a                	je     33d12 <keyboard_read+0x2b4>
   33d08:	a1 b0 7c 03 00       	mov    0x37cb0,%eax
   33d0d:	83 f8 01             	cmp    $0x1,%eax
   33d10:	75 17                	jne    33d29 <keyboard_read+0x2cb>
   33d12:	0f be 55 fe          	movsbl 0xfffffffe(%ebp),%edx
   33d16:	89 d0                	mov    %edx,%eax
   33d18:	01 c0                	add    %eax,%eax
   33d1a:	01 d0                	add    %edx,%eax
   33d1c:	83 c0 01             	add    $0x1,%eax
   33d1f:	8b 04 85 20 50 03 00 	mov    0x35020(,%eax,4),%eax
   33d26:	89 45 f4             	mov    %eax,0xfffffff4(%ebp)
   33d29:	c7 45 f8 01 00 00 00 	movl   $0x1,0xfffffff8(%ebp)
   33d30:	c7 04 24 80 7c 03 00 	movl   $0x37c80,(%esp)
   33d37:	e8 66 f9 ff ff       	call   336a2 <shift_out>
   33d3c:	eb 7c                	jmp    33dba <keyboard_read+0x35c>
   33d3e:	0f b6 45 fe          	movzbl 0xfffffffe(%ebp),%eax
   33d42:	0f b6 c0             	movzbl %al,%eax
   33d45:	89 45 d4             	mov    %eax,0xffffffd4(%ebp)
   33d48:	81 7d d4 aa 00 00 00 	cmpl   $0xaa,0xffffffd4(%ebp)
   33d4f:	74 34                	je     33d85 <keyboard_read+0x327>
   33d51:	81 7d d4 aa 00 00 00 	cmpl   $0xaa,0xffffffd4(%ebp)
   33d58:	7f 0b                	jg     33d65 <keyboard_read+0x307>
   33d5a:	81 7d d4 9d 00 00 00 	cmpl   $0x9d,0xffffffd4(%ebp)
   33d61:	74 2e                	je     33d91 <keyboard_read+0x333>
   33d63:	eb 42                	jmp    33da7 <keyboard_read+0x349>
   33d65:	81 7d d4 b6 00 00 00 	cmpl   $0xb6,0xffffffd4(%ebp)
   33d6c:	74 0b                	je     33d79 <keyboard_read+0x31b>
   33d6e:	81 7d d4 b8 00 00 00 	cmpl   $0xb8,0xffffffd4(%ebp)
   33d75:	74 26                	je     33d9d <keyboard_read+0x33f>
   33d77:	eb 2e                	jmp    33da7 <keyboard_read+0x349>
   33d79:	c7 05 b0 7c 03 00 00 	movl   $0x0,0x37cb0
   33d80:	00 00 00 
   33d83:	eb 22                	jmp    33da7 <keyboard_read+0x349>
   33d85:	c7 05 ac 7c 03 00 00 	movl   $0x0,0x37cac
   33d8c:	00 00 00 
   33d8f:	eb 16                	jmp    33da7 <keyboard_read+0x349>
   33d91:	c7 05 b4 7c 03 00 00 	movl   $0x0,0x37cb4
   33d98:	00 00 00 
   33d9b:	eb 0a                	jmp    33da7 <keyboard_read+0x349>
   33d9d:	c7 05 bc 7c 03 00 00 	movl   $0x0,0x37cbc
   33da4:	00 00 00 
   33da7:	c7 45 f8 00 00 00 00 	movl   $0x0,0xfffffff8(%ebp)
   33dae:	c7 04 24 80 7c 03 00 	movl   $0x37c80,(%esp)
   33db5:	e8 e8 f8 ff ff       	call   336a2 <shift_out>
   33dba:	83 7d f8 01          	cmpl   $0x1,0xfffffff8(%ebp)
   33dbe:	0f 85 31 01 00 00    	jne    33ef5 <keyboard_read+0x497>
   33dc4:	a1 bc 7c 03 00       	mov    0x37cbc,%eax
   33dc9:	83 f8 01             	cmp    $0x1,%eax
   33dcc:	74 0a                	je     33dd8 <keyboard_read+0x37a>
   33dce:	a1 c0 7c 03 00       	mov    0x37cc0,%eax
   33dd3:	83 f8 01             	cmp    $0x1,%eax
   33dd6:	75 47                	jne    33e1f <keyboard_read+0x3c1>
   33dd8:	8b 45 f4             	mov    0xfffffff4(%ebp),%eax
   33ddb:	89 45 c4             	mov    %eax,0xffffffc4(%ebp)
   33dde:	81 7d c4 12 01 00 00 	cmpl   $0x112,0xffffffc4(%ebp)
   33de5:	74 20                	je     33e07 <keyboard_read+0x3a9>
   33de7:	81 7d c4 13 01 00 00 	cmpl   $0x113,0xffffffc4(%ebp)
   33dee:	74 23                	je     33e13 <keyboard_read+0x3b5>
   33df0:	81 7d c4 11 01 00 00 	cmpl   $0x111,0xffffffc4(%ebp)
   33df7:	74 02                	je     33dfb <keyboard_read+0x39d>
   33df9:	eb 24                	jmp    33e1f <keyboard_read+0x3c1>
   33dfb:	c7 45 c8 00 00 00 00 	movl   $0x0,0xffffffc8(%ebp)
   33e02:	e9 f5 00 00 00       	jmp    33efc <keyboard_read+0x49e>
   33e07:	c7 45 c8 01 00 00 00 	movl   $0x1,0xffffffc8(%ebp)
   33e0e:	e9 e9 00 00 00       	jmp    33efc <keyboard_read+0x49e>
   33e13:	c7 45 c8 02 00 00 00 	movl   $0x2,0xffffffc8(%ebp)
   33e1a:	e9 dd 00 00 00       	jmp    33efc <keyboard_read+0x49e>
   33e1f:	a1 ac 7c 03 00       	mov    0x37cac,%eax
   33e24:	85 c0                	test   %eax,%eax
   33e26:	74 09                	je     33e31 <keyboard_read+0x3d3>
   33e28:	c7 45 d8 00 02 00 00 	movl   $0x200,0xffffffd8(%ebp)
   33e2f:	eb 07                	jmp    33e38 <keyboard_read+0x3da>
   33e31:	c7 45 d8 00 00 00 00 	movl   $0x0,0xffffffd8(%ebp)
   33e38:	8b 45 d8             	mov    0xffffffd8(%ebp),%eax
   33e3b:	09 45 f4             	or     %eax,0xfffffff4(%ebp)
   33e3e:	a1 b0 7c 03 00       	mov    0x37cb0,%eax
   33e43:	85 c0                	test   %eax,%eax
   33e45:	74 09                	je     33e50 <keyboard_read+0x3f2>
   33e47:	c7 45 dc 00 04 00 00 	movl   $0x400,0xffffffdc(%ebp)
   33e4e:	eb 07                	jmp    33e57 <keyboard_read+0x3f9>
   33e50:	c7 45 dc 00 00 00 00 	movl   $0x0,0xffffffdc(%ebp)
   33e57:	8b 45 dc             	mov    0xffffffdc(%ebp),%eax
   33e5a:	09 45 f4             	or     %eax,0xfffffff4(%ebp)
   33e5d:	a1 bc 7c 03 00       	mov    0x37cbc,%eax
   33e62:	85 c0                	test   %eax,%eax
   33e64:	74 09                	je     33e6f <keyboard_read+0x411>
   33e66:	c7 45 e0 00 20 00 00 	movl   $0x2000,0xffffffe0(%ebp)
   33e6d:	eb 07                	jmp    33e76 <keyboard_read+0x418>
   33e6f:	c7 45 e0 00 00 00 00 	movl   $0x0,0xffffffe0(%ebp)
   33e76:	8b 45 e0             	mov    0xffffffe0(%ebp),%eax
   33e79:	09 45 f4             	or     %eax,0xfffffff4(%ebp)
   33e7c:	a1 c0 7c 03 00       	mov    0x37cc0,%eax
   33e81:	85 c0                	test   %eax,%eax
   33e83:	74 09                	je     33e8e <keyboard_read+0x430>
   33e85:	c7 45 e4 00 40 00 00 	movl   $0x4000,0xffffffe4(%ebp)
   33e8c:	eb 07                	jmp    33e95 <keyboard_read+0x437>
   33e8e:	c7 45 e4 00 00 00 00 	movl   $0x0,0xffffffe4(%ebp)
   33e95:	8b 45 e4             	mov    0xffffffe4(%ebp),%eax
   33e98:	09 45 f4             	or     %eax,0xfffffff4(%ebp)
   33e9b:	a1 b4 7c 03 00       	mov    0x37cb4,%eax
   33ea0:	85 c0                	test   %eax,%eax
   33ea2:	74 09                	je     33ead <keyboard_read+0x44f>
   33ea4:	c7 45 e8 00 08 00 00 	movl   $0x800,0xffffffe8(%ebp)
   33eab:	eb 07                	jmp    33eb4 <keyboard_read+0x456>
   33ead:	c7 45 e8 00 00 00 00 	movl   $0x0,0xffffffe8(%ebp)
   33eb4:	8b 45 e8             	mov    0xffffffe8(%ebp),%eax
   33eb7:	09 45 f4             	or     %eax,0xfffffff4(%ebp)
   33eba:	a1 b8 7c 03 00       	mov    0x37cb8,%eax
   33ebf:	85 c0                	test   %eax,%eax
   33ec1:	74 09                	je     33ecc <keyboard_read+0x46e>
   33ec3:	c7 45 ec 00 10 00 00 	movl   $0x1000,0xffffffec(%ebp)
   33eca:	eb 07                	jmp    33ed3 <keyboard_read+0x475>
   33ecc:	c7 45 ec 00 00 00 00 	movl   $0x0,0xffffffec(%ebp)
   33ed3:	8b 45 ec             	mov    0xffffffec(%ebp),%eax
   33ed6:	09 45 f4             	or     %eax,0xfffffff4(%ebp)
   33ed9:	8b 45 08             	mov    0x8(%ebp),%eax
   33edc:	89 04 24             	mov    %eax,(%esp)
   33edf:	e8 a5 f5 ff ff       	call   33489 <tty2id>
   33ee4:	89 c2                	mov    %eax,%edx
   33ee6:	8b 45 f4             	mov    0xfffffff4(%ebp),%eax
   33ee9:	89 44 24 04          	mov    %eax,0x4(%esp)
   33eed:	89 14 24             	mov    %edx,(%esp)
   33ef0:	e8 ca 00 00 00       	call   33fbf <printChar>
   33ef5:	c7 45 c8 ff ff ff ff 	movl   $0xffffffff,0xffffffc8(%ebp)
   33efc:	8b 45 c8             	mov    0xffffffc8(%ebp),%eax
   33eff:	c9                   	leave  
   33f00:	c3                   	ret    

00033f01 <set_cursor>:
   33f01:	55                   	push   %ebp
   33f02:	89 e5                	mov    %esp,%ebp
   33f04:	83 ec 08             	sub    $0x8,%esp
   33f07:	c7 44 24 04 0e 00 00 	movl   $0xe,0x4(%esp)
   33f0e:	00 
   33f0f:	c7 04 24 d4 03 00 00 	movl   $0x3d4,(%esp)
   33f16:	e8 3b eb ff ff       	call   32a56 <out_byte>
   33f1b:	8b 45 08             	mov    0x8(%ebp),%eax
   33f1e:	c1 f8 08             	sar    $0x8,%eax
   33f21:	0f b6 c0             	movzbl %al,%eax
   33f24:	89 44 24 04          	mov    %eax,0x4(%esp)
   33f28:	c7 04 24 d5 03 00 00 	movl   $0x3d5,(%esp)
   33f2f:	e8 22 eb ff ff       	call   32a56 <out_byte>
   33f34:	c7 44 24 04 0f 00 00 	movl   $0xf,0x4(%esp)
   33f3b:	00 
   33f3c:	c7 04 24 d4 03 00 00 	movl   $0x3d4,(%esp)
   33f43:	e8 0e eb ff ff       	call   32a56 <out_byte>
   33f48:	8b 45 08             	mov    0x8(%ebp),%eax
   33f4b:	0f b6 c0             	movzbl %al,%eax
   33f4e:	89 44 24 04          	mov    %eax,0x4(%esp)
   33f52:	c7 04 24 d5 03 00 00 	movl   $0x3d5,(%esp)
   33f59:	e8 f8 ea ff ff       	call   32a56 <out_byte>
   33f5e:	c9                   	leave  
   33f5f:	c3                   	ret    

00033f60 <set_disp_addr>:
   33f60:	55                   	push   %ebp
   33f61:	89 e5                	mov    %esp,%ebp
   33f63:	83 ec 08             	sub    $0x8,%esp
   33f66:	c7 44 24 04 0c 00 00 	movl   $0xc,0x4(%esp)
   33f6d:	00 
   33f6e:	c7 04 24 d4 03 00 00 	movl   $0x3d4,(%esp)
   33f75:	e8 dc ea ff ff       	call   32a56 <out_byte>
   33f7a:	8b 45 08             	mov    0x8(%ebp),%eax
   33f7d:	c1 f8 08             	sar    $0x8,%eax
   33f80:	0f b6 c0             	movzbl %al,%eax
   33f83:	89 44 24 04          	mov    %eax,0x4(%esp)
   33f87:	c7 04 24 d5 03 00 00 	movl   $0x3d5,(%esp)
   33f8e:	e8 c3 ea ff ff       	call   32a56 <out_byte>
   33f93:	c7 44 24 04 0d 00 00 	movl   $0xd,0x4(%esp)
   33f9a:	00 
   33f9b:	c7 04 24 d4 03 00 00 	movl   $0x3d4,(%esp)
   33fa2:	e8 af ea ff ff       	call   32a56 <out_byte>
   33fa7:	8b 45 08             	mov    0x8(%ebp),%eax
   33faa:	0f b6 c0             	movzbl %al,%eax
   33fad:	89 44 24 04          	mov    %eax,0x4(%esp)
   33fb1:	c7 04 24 d5 03 00 00 	movl   $0x3d5,(%esp)
   33fb8:	e8 99 ea ff ff       	call   32a56 <out_byte>
   33fbd:	c9                   	leave  
   33fbe:	c3                   	ret    

00033fbf <printChar>:
   33fbf:	55                   	push   %ebp
   33fc0:	89 e5                	mov    %esp,%ebp
   33fc2:	83 ec 48             	sub    $0x48,%esp
   33fc5:	c7 45 dc 81 4f 03 00 	movl   $0x34f81,0xffffffdc(%ebp)
   33fcc:	8b 45 0c             	mov    0xc(%ebp),%eax
   33fcf:	25 00 01 00 00       	and    $0x100,%eax
   33fd4:	89 45 e0             	mov    %eax,0xffffffe0(%ebp)
   33fd7:	83 7d 08 00          	cmpl   $0x0,0x8(%ebp)
   33fdb:	78 08                	js     33fe5 <printChar+0x26>
   33fdd:	83 7d 08 02          	cmpl   $0x2,0x8(%ebp)
   33fe1:	7f 02                	jg     33fe5 <printChar+0x26>
   33fe3:	eb 24                	jmp    34009 <printChar+0x4a>
   33fe5:	c7 44 24 0c 47 01 00 	movl   $0x147,0xc(%esp)
   33fec:	00 
   33fed:	c7 44 24 08 64 4f 03 	movl   $0x34f64,0x8(%esp)
   33ff4:	00 
   33ff5:	c7 44 24 04 64 4f 03 	movl   $0x34f64,0x4(%esp)
   33ffc:	00 
   33ffd:	c7 04 24 83 4f 03 00 	movl   $0x34f83,(%esp)
   34004:	e8 22 eb ff ff       	call   32b2b <assertion_failure>
   34009:	8b 45 08             	mov    0x8(%ebp),%eax
   3400c:	89 04 24             	mov    %eax,(%esp)
   3400f:	e8 b8 f4 ff ff       	call   334cc <id2tty>
   34014:	89 45 e4             	mov    %eax,0xffffffe4(%ebp)
   34017:	8b 45 e4             	mov    0xffffffe4(%ebp),%eax
   3401a:	8b 50 0c             	mov    0xc(%eax),%edx
   3401d:	8b 45 e4             	mov    0xffffffe4(%ebp),%eax
   34020:	8b 40 04             	mov    0x4(%eax),%eax
   34023:	39 c2                	cmp    %eax,%edx
   34025:	72 0b                	jb     34032 <printChar+0x73>
   34027:	8b 45 e4             	mov    0xffffffe4(%ebp),%eax
   3402a:	8b 10                	mov    (%eax),%edx
   3402c:	8b 45 e4             	mov    0xffffffe4(%ebp),%eax
   3402f:	89 50 0c             	mov    %edx,0xc(%eax)
   34032:	c7 45 e8 ff ff ff ff 	movl   $0xffffffff,0xffffffe8(%ebp)
   34039:	8b 45 e4             	mov    0xffffffe4(%ebp),%eax
   3403c:	8b 40 0c             	mov    0xc(%eax),%eax
   3403f:	01 c0                	add    %eax,%eax
   34041:	a3 08 50 03 00       	mov    %eax,0x35008
   34046:	83 7d e0 00          	cmpl   $0x0,0xffffffe0(%ebp)
   3404a:	75 1e                	jne    3406a <printChar+0xab>
   3404c:	8b 45 0c             	mov    0xc(%ebp),%eax
   3404f:	89 c2                	mov    %eax,%edx
   34051:	8b 45 dc             	mov    0xffffffdc(%ebp),%eax
   34054:	88 10                	mov    %dl,(%eax)
   34056:	8b 45 dc             	mov    0xffffffdc(%ebp),%eax
   34059:	89 04 24             	mov    %eax,(%esp)
   3405c:	e8 93 e9 ff ff       	call   329f4 <disp_str>
   34061:	c7 45 e8 00 00 00 00 	movl   $0x0,0xffffffe8(%ebp)
   34068:	eb 6f                	jmp    340d9 <printChar+0x11a>
   3406a:	8b 45 0c             	mov    0xc(%ebp),%eax
   3406d:	25 ff 01 00 00       	and    $0x1ff,%eax
   34072:	89 45 fc             	mov    %eax,0xfffffffc(%ebp)
   34075:	8b 45 fc             	mov    0xfffffffc(%ebp),%eax
   34078:	89 45 cc             	mov    %eax,0xffffffcc(%ebp)
   3407b:	81 7d cc 04 01 00 00 	cmpl   $0x104,0xffffffcc(%ebp)
   34082:	74 3d                	je     340c1 <printChar+0x102>
   34084:	81 7d cc 04 01 00 00 	cmpl   $0x104,0xffffffcc(%ebp)
   3408b:	7f 0b                	jg     34098 <printChar+0xd9>
   3408d:	81 7d cc 03 01 00 00 	cmpl   $0x103,0xffffffcc(%ebp)
   34094:	74 16                	je     340ac <printChar+0xed>
   34096:	eb 41                	jmp    340d9 <printChar+0x11a>
   34098:	81 7d cc 25 01 00 00 	cmpl   $0x125,0xffffffcc(%ebp)
   3409f:	74 36                	je     340d7 <printChar+0x118>
   340a1:	81 7d cc 26 01 00 00 	cmpl   $0x126,0xffffffcc(%ebp)
   340a8:	74 2f                	je     340d9 <printChar+0x11a>
   340aa:	eb 2d                	jmp    340d9 <printChar+0x11a>
   340ac:	c7 04 24 9a 4f 03 00 	movl   $0x34f9a,(%esp)
   340b3:	e8 3c e9 ff ff       	call   329f4 <disp_str>
   340b8:	c7 45 e8 00 00 00 00 	movl   $0x0,0xffffffe8(%ebp)
   340bf:	eb 18                	jmp    340d9 <printChar+0x11a>
   340c1:	a1 08 50 03 00       	mov    0x35008,%eax
   340c6:	83 e8 02             	sub    $0x2,%eax
   340c9:	a3 08 50 03 00       	mov    %eax,0x35008
   340ce:	c7 45 e8 00 00 00 00 	movl   $0x0,0xffffffe8(%ebp)
   340d5:	eb 02                	jmp    340d9 <printChar+0x11a>
   340d7:	eb 00                	jmp    340d9 <printChar+0x11a>
   340d9:	8b 15 08 50 03 00    	mov    0x35008,%edx
   340df:	89 d0                	mov    %edx,%eax
   340e1:	c1 e8 1f             	shr    $0x1f,%eax
   340e4:	01 d0                	add    %edx,%eax
   340e6:	d1 f8                	sar    %eax
   340e8:	89 c2                	mov    %eax,%edx
   340ea:	8b 45 e4             	mov    0xffffffe4(%ebp),%eax
   340ed:	89 50 0c             	mov    %edx,0xc(%eax)
   340f0:	8b 45 e4             	mov    0xffffffe4(%ebp),%eax
   340f3:	89 04 24             	mov    %eax,(%esp)
   340f6:	e8 8e f3 ff ff       	call   33489 <tty2id>
   340fb:	89 c2                	mov    %eax,%edx
   340fd:	a1 88 f1 09 00       	mov    0x9f188,%eax
   34102:	39 c2                	cmp    %eax,%edx
   34104:	75 17                	jne    3411d <printChar+0x15e>
   34106:	8b 15 08 50 03 00    	mov    0x35008,%edx
   3410c:	89 d0                	mov    %edx,%eax
   3410e:	c1 e8 1f             	shr    $0x1f,%eax
   34111:	01 d0                	add    %edx,%eax
   34113:	d1 f8                	sar    %eax
   34115:	89 04 24             	mov    %eax,(%esp)
   34118:	e8 e4 fd ff ff       	call   33f01 <set_cursor>
   3411d:	8b 0d 08 50 03 00    	mov    0x35008,%ecx
   34123:	c7 45 c8 67 66 66 66 	movl   $0x66666667,0xffffffc8(%ebp)
   3412a:	8b 45 c8             	mov    0xffffffc8(%ebp),%eax
   3412d:	f7 e9                	imul   %ecx
   3412f:	c1 fa 06             	sar    $0x6,%edx
   34132:	89 c8                	mov    %ecx,%eax
   34134:	c1 f8 1f             	sar    $0x1f,%eax
   34137:	89 d1                	mov    %edx,%ecx
   34139:	29 c1                	sub    %eax,%ecx
   3413b:	89 c8                	mov    %ecx,%eax
   3413d:	89 45 ec             	mov    %eax,0xffffffec(%ebp)
   34140:	8b 45 e4             	mov    0xffffffe4(%ebp),%eax
   34143:	8b 50 08             	mov    0x8(%eax),%edx
   34146:	c7 45 c8 cd cc cc cc 	movl   $0xcccccccd,0xffffffc8(%ebp)
   3414d:	8b 45 c8             	mov    0xffffffc8(%ebp),%eax
   34150:	f7 e2                	mul    %edx
   34152:	89 d0                	mov    %edx,%eax
   34154:	c1 e8 06             	shr    $0x6,%eax
   34157:	89 45 f0             	mov    %eax,0xfffffff0(%ebp)
   3415a:	8b 55 f0             	mov    0xfffffff0(%ebp),%edx
   3415d:	8b 45 ec             	mov    0xffffffec(%ebp),%eax
   34160:	29 d0                	sub    %edx,%eax
   34162:	89 45 f4             	mov    %eax,0xfffffff4(%ebp)
   34165:	8b 45 f4             	mov    0xfffffff4(%ebp),%eax
   34168:	83 e8 18             	sub    $0x18,%eax
   3416b:	89 45 f8             	mov    %eax,0xfffffff8(%ebp)
   3416e:	83 7d f8 00          	cmpl   $0x0,0xfffffff8(%ebp)
   34172:	7e 6c                	jle    341e0 <printChar+0x221>
   34174:	8b 45 e4             	mov    0xffffffe4(%ebp),%eax
   34177:	8b 48 08             	mov    0x8(%eax),%ecx
   3417a:	8b 55 f8             	mov    0xfffffff8(%ebp),%edx
   3417d:	89 d0                	mov    %edx,%eax
   3417f:	c1 e0 02             	shl    $0x2,%eax
   34182:	01 d0                	add    %edx,%eax
   34184:	c1 e0 04             	shl    $0x4,%eax
   34187:	8d 14 01             	lea    (%ecx,%eax,1),%edx
   3418a:	8b 45 e4             	mov    0xffffffe4(%ebp),%eax
   3418d:	89 50 08             	mov    %edx,0x8(%eax)
   34190:	8b 45 e4             	mov    0xffffffe4(%ebp),%eax
   34193:	8b 40 08             	mov    0x8(%eax),%eax
   34196:	8d 90 80 07 00 00    	lea    0x780(%eax),%edx
   3419c:	8b 45 e4             	mov    0xffffffe4(%ebp),%eax
   3419f:	8b 40 04             	mov    0x4(%eax),%eax
   341a2:	39 c2                	cmp    %eax,%edx
   341a4:	72 16                	jb     341bc <printChar+0x1fd>
   341a6:	8b 45 e4             	mov    0xffffffe4(%ebp),%eax
   341a9:	8b 10                	mov    (%eax),%edx
   341ab:	8b 45 e4             	mov    0xffffffe4(%ebp),%eax
   341ae:	89 50 08             	mov    %edx,0x8(%eax)
   341b1:	8b 45 e4             	mov    0xffffffe4(%ebp),%eax
   341b4:	8b 10                	mov    (%eax),%edx
   341b6:	8b 45 e4             	mov    0xffffffe4(%ebp),%eax
   341b9:	89 50 0c             	mov    %edx,0xc(%eax)
   341bc:	8b 45 e4             	mov    0xffffffe4(%ebp),%eax
   341bf:	89 04 24             	mov    %eax,(%esp)
   341c2:	e8 c2 f2 ff ff       	call   33489 <tty2id>
   341c7:	89 c2                	mov    %eax,%edx
   341c9:	a1 88 f1 09 00       	mov    0x9f188,%eax
   341ce:	39 c2                	cmp    %eax,%edx
   341d0:	75 0e                	jne    341e0 <printChar+0x221>
   341d2:	8b 45 e4             	mov    0xffffffe4(%ebp),%eax
   341d5:	8b 40 08             	mov    0x8(%eax),%eax
   341d8:	89 04 24             	mov    %eax,(%esp)
   341db:	e8 80 fd ff ff       	call   33f60 <set_disp_addr>
   341e0:	8b 45 e8             	mov    0xffffffe8(%ebp),%eax
   341e3:	c9                   	leave  
   341e4:	c3                   	ret    

000341e5 <printStr>:
   341e5:	55                   	push   %ebp
   341e6:	89 e5                	mov    %esp,%ebp
   341e8:	83 ec 18             	sub    $0x18,%esp
   341eb:	c7 45 fc 00 00 00 00 	movl   $0x0,0xfffffffc(%ebp)
   341f2:	eb 1f                	jmp    34213 <printStr+0x2e>
   341f4:	8b 45 fc             	mov    0xfffffffc(%ebp),%eax
   341f7:	03 45 0c             	add    0xc(%ebp),%eax
   341fa:	0f b6 00             	movzbl (%eax),%eax
   341fd:	0f be c0             	movsbl %al,%eax
   34200:	89 44 24 04          	mov    %eax,0x4(%esp)
   34204:	8b 45 08             	mov    0x8(%ebp),%eax
   34207:	89 04 24             	mov    %eax,(%esp)
   3420a:	e8 b0 fd ff ff       	call   33fbf <printChar>
   3420f:	83 45 fc 01          	addl   $0x1,0xfffffffc(%ebp)
   34213:	8b 45 fc             	mov    0xfffffffc(%ebp),%eax
   34216:	03 45 0c             	add    0xc(%ebp),%eax
   34219:	0f b6 00             	movzbl (%eax),%eax
   3421c:	84 c0                	test   %al,%al
   3421e:	75 d4                	jne    341f4 <printStr+0xf>
   34220:	c9                   	leave  
   34221:	c3                   	ret    

00034222 <printStrLen>:
   34222:	55                   	push   %ebp
   34223:	89 e5                	mov    %esp,%ebp
   34225:	83 ec 18             	sub    $0x18,%esp
   34228:	c7 45 fc 00 00 00 00 	movl   $0x0,0xfffffffc(%ebp)
   3422f:	eb 1f                	jmp    34250 <printStrLen+0x2e>
   34231:	8b 45 fc             	mov    0xfffffffc(%ebp),%eax
   34234:	03 45 0c             	add    0xc(%ebp),%eax
   34237:	0f b6 00             	movzbl (%eax),%eax
   3423a:	0f be c0             	movsbl %al,%eax
   3423d:	89 44 24 04          	mov    %eax,0x4(%esp)
   34241:	8b 45 08             	mov    0x8(%ebp),%eax
   34244:	89 04 24             	mov    %eax,(%esp)
   34247:	e8 73 fd ff ff       	call   33fbf <printChar>
   3424c:	83 45 fc 01          	addl   $0x1,0xfffffffc(%ebp)
   34250:	8b 45 fc             	mov    0xfffffffc(%ebp),%eax
   34253:	3b 45 10             	cmp    0x10(%ebp),%eax
   34256:	7d 0d                	jge    34265 <printStrLen+0x43>
   34258:	8b 45 fc             	mov    0xfffffffc(%ebp),%eax
   3425b:	03 45 0c             	add    0xc(%ebp),%eax
   3425e:	0f b6 00             	movzbl (%eax),%eax
   34261:	84 c0                	test   %al,%al
   34263:	75 cc                	jne    34231 <printStrLen+0xf>
   34265:	c9                   	leave  
   34266:	c3                   	ret    
   34267:	90                   	nop    

00034268 <milli_delay>:
   34268:	55                   	push   %ebp
   34269:	89 e5                	mov    %esp,%ebp
   3426b:	83 ec 18             	sub    $0x18,%esp
   3426e:	e8 69 eb ff ff       	call   32ddc <get_ticks>
   34273:	89 45 f8             	mov    %eax,0xfffffff8(%ebp)
   34276:	e8 61 eb ff ff       	call   32ddc <get_ticks>
   3427b:	89 45 fc             	mov    %eax,0xfffffffc(%ebp)
   3427e:	8b 55 f8             	mov    0xfffffff8(%ebp),%edx
   34281:	8b 45 fc             	mov    0xfffffffc(%ebp),%eax
   34284:	89 c1                	mov    %eax,%ecx
   34286:	29 d1                	sub    %edx,%ecx
   34288:	89 ca                	mov    %ecx,%edx
   3428a:	89 d0                	mov    %edx,%eax
   3428c:	c1 e0 02             	shl    $0x2,%eax
   3428f:	01 d0                	add    %edx,%eax
   34291:	01 c0                	add    %eax,%eax
   34293:	89 c2                	mov    %eax,%edx
   34295:	8b 45 08             	mov    0x8(%ebp),%eax
   34298:	39 c2                	cmp    %eax,%edx
   3429a:	77 02                	ja     3429e <milli_delay+0x36>
   3429c:	eb d8                	jmp    34276 <milli_delay+0xe>
   3429e:	c9                   	leave  
   3429f:	c3                   	ret    

000342a0 <p1>:
   342a0:	55                   	push   %ebp
   342a1:	89 e5                	mov    %esp,%ebp
   342a3:	83 ec 18             	sub    $0x18,%esp
   342a6:	c7 45 f8 9c 4f 03 00 	movl   $0x34f9c,0xfffffff8(%ebp)
   342ad:	c7 45 fc a7 4f 03 00 	movl   $0x34fa7,0xfffffffc(%ebp)
   342b4:	e8 23 eb ff ff       	call   32ddc <get_ticks>
   342b9:	89 45 f4             	mov    %eax,0xfffffff4(%ebp)
   342bc:	8b 45 f4             	mov    0xfffffff4(%ebp),%eax
   342bf:	89 44 24 04          	mov    %eax,0x4(%esp)
   342c3:	8b 45 fc             	mov    0xfffffffc(%ebp),%eax
   342c6:	89 04 24             	mov    %eax,(%esp)
   342c9:	e8 62 dd ff ff       	call   32030 <printf>
   342ce:	c7 04 24 e8 03 00 00 	movl   $0x3e8,(%esp)
   342d5:	e8 8e ff ff ff       	call   34268 <milli_delay>
   342da:	eb d8                	jmp    342b4 <p1+0x14>

000342dc <p2>:
   342dc:	55                   	push   %ebp
   342dd:	89 e5                	mov    %esp,%ebp
   342df:	83 ec 18             	sub    $0x18,%esp
   342e2:	c7 45 fc 00 00 00 00 	movl   $0x0,0xfffffffc(%ebp)
   342e9:	c7 04 24 ae 4f 03 00 	movl   $0x34fae,(%esp)
   342f0:	e8 3b dd ff ff       	call   32030 <printf>
   342f5:	c7 04 24 e8 03 00 00 	movl   $0x3e8,(%esp)
   342fc:	e8 67 ff ff ff       	call   34268 <milli_delay>
   34301:	eb e6                	jmp    342e9 <p2+0xd>

00034303 <p3>:
   34303:	55                   	push   %ebp
   34304:	89 e5                	mov    %esp,%ebp
   34306:	83 ec 18             	sub    $0x18,%esp
   34309:	c7 45 fc 00 00 00 00 	movl   $0x0,0xfffffffc(%ebp)
   34310:	c7 04 24 b2 4f 03 00 	movl   $0x34fb2,(%esp)
   34317:	e8 14 dd ff ff       	call   32030 <printf>
   3431c:	c7 04 24 e8 03 00 00 	movl   $0x3e8,(%esp)
   34323:	e8 40 ff ff ff       	call   34268 <milli_delay>
   34328:	eb e6                	jmp    34310 <p3+0xd>

0003432a <init_normal_process>:
   3432a:	55                   	push   %ebp
   3432b:	89 e5                	mov    %esp,%ebp
   3432d:	83 ec 48             	sub    $0x48,%esp
   34330:	c7 45 e0 14 00 00 00 	movl   $0x14,0xffffffe0(%ebp)
   34337:	c7 45 e4 15 00 00 00 	movl   $0x15,0xffffffe4(%ebp)
   3433e:	c7 45 e8 16 00 00 00 	movl   $0x16,0xffffffe8(%ebp)
   34345:	c7 45 ec 00 00 00 00 	movl   $0x0,0xffffffec(%ebp)
   3434c:	8b 45 e0             	mov    0xffffffe0(%ebp),%eax
   3434f:	69 c0 fc 28 00 00    	imul   $0x28fc,%eax,%eax
   34355:	05 20 8a 03 00       	add    $0x38a20,%eax
   3435a:	89 45 f0             	mov    %eax,0xfffffff0(%ebp)
   3435d:	8b 45 e4             	mov    0xffffffe4(%ebp),%eax
   34360:	69 c0 fc 28 00 00    	imul   $0x28fc,%eax,%eax
   34366:	05 20 8a 03 00       	add    $0x38a20,%eax
   3436b:	89 45 f4             	mov    %eax,0xfffffff4(%ebp)
   3436e:	8b 45 e8             	mov    0xffffffe8(%ebp),%eax
   34371:	69 c0 fc 28 00 00    	imul   $0x28fc,%eax,%eax
   34377:	05 20 8a 03 00       	add    $0x38a20,%eax
   3437c:	89 45 f8             	mov    %eax,0xfffffff8(%ebp)
   3437f:	c7 45 fc 02 02 00 00 	movl   $0x202,0xfffffffc(%ebp)
   34386:	8b 45 f0             	mov    0xfffffff0(%ebp),%eax
   34389:	05 d4 00 00 00       	add    $0xd4,%eax
   3438e:	05 ff 27 00 00       	add    $0x27ff,%eax
   34393:	ba a0 42 03 00       	mov    $0x342a0,%edx
   34398:	c7 44 24 1c 17 00 00 	movl   $0x17,0x1c(%esp)
   3439f:	00 
   343a0:	c7 44 24 18 1f 00 00 	movl   $0x1f,0x18(%esp)
   343a7:	00 
   343a8:	c7 44 24 14 0f 00 00 	movl   $0xf,0x14(%esp)
   343af:	00 
   343b0:	89 44 24 10          	mov    %eax,0x10(%esp)
   343b4:	8b 45 fc             	mov    0xfffffffc(%ebp),%eax
   343b7:	89 44 24 0c          	mov    %eax,0xc(%esp)
   343bb:	c7 44 24 08 07 00 00 	movl   $0x7,0x8(%esp)
   343c2:	00 
   343c3:	89 54 24 04          	mov    %edx,0x4(%esp)
   343c7:	8b 45 f0             	mov    0xfffffff0(%ebp),%eax
   343ca:	89 04 24             	mov    %eax,(%esp)
   343cd:	e8 95 cb ff ff       	call   30f67 <set_process_regs>
   343d2:	8b 45 f4             	mov    0xfffffff4(%ebp),%eax
   343d5:	05 d4 00 00 00       	add    $0xd4,%eax
   343da:	05 ff 27 00 00       	add    $0x27ff,%eax
   343df:	ba dc 42 03 00       	mov    $0x342dc,%edx
   343e4:	c7 44 24 1c 17 00 00 	movl   $0x17,0x1c(%esp)
   343eb:	00 
   343ec:	c7 44 24 18 0f 00 00 	movl   $0xf,0x18(%esp)
   343f3:	00 
   343f4:	c7 44 24 14 1f 00 00 	movl   $0x1f,0x14(%esp)
   343fb:	00 
   343fc:	89 44 24 10          	mov    %eax,0x10(%esp)
   34400:	8b 45 fc             	mov    0xfffffffc(%ebp),%eax
   34403:	89 44 24 0c          	mov    %eax,0xc(%esp)
   34407:	c7 44 24 08 07 00 00 	movl   $0x7,0x8(%esp)
   3440e:	00 
   3440f:	89 54 24 04          	mov    %edx,0x4(%esp)
   34413:	8b 45 f4             	mov    0xfffffff4(%ebp),%eax
   34416:	89 04 24             	mov    %eax,(%esp)
   34419:	e8 49 cb ff ff       	call   30f67 <set_process_regs>
   3441e:	8b 45 f8             	mov    0xfffffff8(%ebp),%eax
   34421:	05 d4 00 00 00       	add    $0xd4,%eax
   34426:	05 ff 27 00 00       	add    $0x27ff,%eax
   3442b:	ba 03 43 03 00       	mov    $0x34303,%edx
   34430:	c7 44 24 1c 17 00 00 	movl   $0x17,0x1c(%esp)
   34437:	00 
   34438:	c7 44 24 18 0f 00 00 	movl   $0xf,0x18(%esp)
   3443f:	00 
   34440:	c7 44 24 14 1f 00 00 	movl   $0x1f,0x14(%esp)
   34447:	00 
   34448:	89 44 24 10          	mov    %eax,0x10(%esp)
   3444c:	8b 45 fc             	mov    0xfffffffc(%ebp),%eax
   3444f:	89 44 24 0c          	mov    %eax,0xc(%esp)
   34453:	c7 44 24 08 07 00 00 	movl   $0x7,0x8(%esp)
   3445a:	00 
   3445b:	89 54 24 04          	mov    %edx,0x4(%esp)
   3445f:	8b 45 f8             	mov    0xfffffff8(%ebp),%eax
   34462:	89 04 24             	mov    %eax,(%esp)
   34465:	e8 fd ca ff ff       	call   30f67 <set_process_regs>
   3446a:	c7 44 24 10 00 00 00 	movl   $0x0,0x10(%esp)
   34471:	00 
   34472:	c7 44 24 0c 03 00 00 	movl   $0x3,0xc(%esp)
   34479:	00 
   3447a:	c7 44 24 08 1e 00 00 	movl   $0x1e,0x8(%esp)
   34481:	00 
   34482:	c7 44 24 04 1e 00 00 	movl   $0x1e,0x4(%esp)
   34489:	00 
   3448a:	8b 45 f0             	mov    0xfffffff0(%ebp),%eax
   3448d:	89 04 24             	mov    %eax,(%esp)
   34490:	e8 79 cb ff ff       	call   3100e <initProcess>
   34495:	c7 44 24 10 01 00 00 	movl   $0x1,0x10(%esp)
   3449c:	00 
   3449d:	c7 44 24 0c 03 00 00 	movl   $0x3,0xc(%esp)
   344a4:	00 
   344a5:	c7 44 24 08 1e 00 00 	movl   $0x1e,0x8(%esp)
   344ac:	00 
   344ad:	c7 44 24 04 1e 00 00 	movl   $0x1e,0x4(%esp)
   344b4:	00 
   344b5:	8b 45 f4             	mov    0xfffffff4(%ebp),%eax
   344b8:	89 04 24             	mov    %eax,(%esp)
   344bb:	e8 4e cb ff ff       	call   3100e <initProcess>
   344c0:	c7 44 24 10 02 00 00 	movl   $0x2,0x10(%esp)
   344c7:	00 
   344c8:	c7 44 24 0c 03 00 00 	movl   $0x3,0xc(%esp)
   344cf:	00 
   344d0:	c7 44 24 08 1e 00 00 	movl   $0x1e,0x8(%esp)
   344d7:	00 
   344d8:	c7 44 24 04 1e 00 00 	movl   $0x1e,0x4(%esp)
   344df:	00 
   344e0:	8b 45 f8             	mov    0xfffffff8(%ebp),%eax
   344e3:	89 04 24             	mov    %eax,(%esp)
   344e6:	e8 23 cb ff ff       	call   3100e <initProcess>
   344eb:	8b 45 f0             	mov    0xfffffff0(%ebp),%eax
   344ee:	83 c0 54             	add    $0x54,%eax
   344f1:	c7 44 24 0c e2 40 00 	movl   $0x40e2,0xc(%esp)
   344f8:	00 
   344f9:	c7 44 24 08 7f 00 00 	movl   $0x7f,0x8(%esp)
   34500:	00 
   34501:	89 44 24 04          	mov    %eax,0x4(%esp)
   34505:	c7 04 24 08 00 00 00 	movl   $0x8,(%esp)
   3450c:	e8 0f e0 ff ff       	call   32520 <setGDTEntry>
   34511:	8b 45 f0             	mov    0xfffffff0(%ebp),%eax
   34514:	c7 40 48 43 00 00 00 	movl   $0x43,0x48(%eax)
   3451b:	8b 45 f4             	mov    0xfffffff4(%ebp),%eax
   3451e:	83 c0 54             	add    $0x54,%eax
   34521:	c7 44 24 0c e2 40 00 	movl   $0x40e2,0xc(%esp)
   34528:	00 
   34529:	c7 44 24 08 7f 00 00 	movl   $0x7f,0x8(%esp)
   34530:	00 
   34531:	89 44 24 04          	mov    %eax,0x4(%esp)
   34535:	c7 04 24 09 00 00 00 	movl   $0x9,(%esp)
   3453c:	e8 df df ff ff       	call   32520 <setGDTEntry>
   34541:	8b 45 f4             	mov    0xfffffff4(%ebp),%eax
   34544:	c7 40 48 4b 00 00 00 	movl   $0x4b,0x48(%eax)
   3454b:	8b 45 f8             	mov    0xfffffff8(%ebp),%eax
   3454e:	83 c0 54             	add    $0x54,%eax
   34551:	c7 44 24 0c e2 40 00 	movl   $0x40e2,0xc(%esp)
   34558:	00 
   34559:	c7 44 24 08 7f 00 00 	movl   $0x7f,0x8(%esp)
   34560:	00 
   34561:	89 44 24 04          	mov    %eax,0x4(%esp)
   34565:	c7 04 24 0a 00 00 00 	movl   $0xa,(%esp)
   3456c:	e8 af df ff ff       	call   32520 <setGDTEntry>
   34571:	8b 45 f8             	mov    0xfffffff8(%ebp),%eax
   34574:	c7 40 48 53 00 00 00 	movl   $0x53,0x48(%eax)
   3457b:	8b 45 f0             	mov    0xfffffff0(%ebp),%eax
   3457e:	83 c0 54             	add    $0x54,%eax
   34581:	c7 44 24 10 fa c0 00 	movl   $0xc0fa,0x10(%esp)
   34588:	00 
   34589:	c7 44 24 0c ff ff 00 	movl   $0xffff,0xc(%esp)
   34590:	00 
   34591:	c7 44 24 08 00 00 00 	movl   $0x0,0x8(%esp)
   34598:	00 
   34599:	c7 44 24 04 00 00 00 	movl   $0x0,0x4(%esp)
   345a0:	00 
   345a1:	89 04 24             	mov    %eax,(%esp)
   345a4:	e8 23 c9 ff ff       	call   30ecc <setLDTEntry>
   345a9:	8b 45 f0             	mov    0xfffffff0(%ebp),%eax
   345ac:	83 c0 54             	add    $0x54,%eax
   345af:	c7 44 24 10 f2 c0 00 	movl   $0xc0f2,0x10(%esp)
   345b6:	00 
   345b7:	c7 44 24 0c ff ff 00 	movl   $0xffff,0xc(%esp)
   345be:	00 
   345bf:	c7 44 24 08 00 00 00 	movl   $0x0,0x8(%esp)
   345c6:	00 
   345c7:	c7 44 24 04 03 00 00 	movl   $0x3,0x4(%esp)
   345ce:	00 
   345cf:	89 04 24             	mov    %eax,(%esp)
   345d2:	e8 f5 c8 ff ff       	call   30ecc <setLDTEntry>
   345d7:	8b 45 f0             	mov    0xfffffff0(%ebp),%eax
   345da:	83 c0 54             	add    $0x54,%eax
   345dd:	c7 44 24 10 f2 c0 00 	movl   $0xc0f2,0x10(%esp)
   345e4:	00 
   345e5:	c7 44 24 0c ff ff 00 	movl   $0xffff,0xc(%esp)
   345ec:	00 
   345ed:	c7 44 24 08 00 00 00 	movl   $0x0,0x8(%esp)
   345f4:	00 
   345f5:	c7 44 24 04 02 00 00 	movl   $0x2,0x4(%esp)
   345fc:	00 
   345fd:	89 04 24             	mov    %eax,(%esp)
   34600:	e8 c7 c8 ff ff       	call   30ecc <setLDTEntry>
   34605:	8b 45 f0             	mov    0xfffffff0(%ebp),%eax
   34608:	05 d4 00 00 00       	add    $0xd4,%eax
   3460d:	05 ff 27 00 00       	add    $0x27ff,%eax
   34612:	8b 55 f0             	mov    0xfffffff0(%ebp),%edx
   34615:	83 c2 54             	add    $0x54,%edx
   34618:	c7 44 24 10 f2 40 00 	movl   $0x40f2,0x10(%esp)
   3461f:	00 
   34620:	89 44 24 0c          	mov    %eax,0xc(%esp)
   34624:	c7 44 24 08 00 00 00 	movl   $0x0,0x8(%esp)
   3462b:	00 
   3462c:	c7 44 24 04 01 00 00 	movl   $0x1,0x4(%esp)
   34633:	00 
   34634:	89 14 24             	mov    %edx,(%esp)
   34637:	e8 90 c8 ff ff       	call   30ecc <setLDTEntry>
   3463c:	8b 45 f4             	mov    0xfffffff4(%ebp),%eax
   3463f:	83 c0 54             	add    $0x54,%eax
   34642:	c7 44 24 10 fa c0 00 	movl   $0xc0fa,0x10(%esp)
   34649:	00 
   3464a:	c7 44 24 0c ff ff 00 	movl   $0xffff,0xc(%esp)
   34651:	00 
   34652:	c7 44 24 08 00 00 00 	movl   $0x0,0x8(%esp)
   34659:	00 
   3465a:	c7 44 24 04 00 00 00 	movl   $0x0,0x4(%esp)
   34661:	00 
   34662:	89 04 24             	mov    %eax,(%esp)
   34665:	e8 62 c8 ff ff       	call   30ecc <setLDTEntry>
   3466a:	8b 45 f4             	mov    0xfffffff4(%ebp),%eax
   3466d:	83 c0 54             	add    $0x54,%eax
   34670:	c7 44 24 10 f2 c0 00 	movl   $0xc0f2,0x10(%esp)
   34677:	00 
   34678:	c7 44 24 0c ff ff 00 	movl   $0xffff,0xc(%esp)
   3467f:	00 
   34680:	c7 44 24 08 00 00 00 	movl   $0x0,0x8(%esp)
   34687:	00 
   34688:	c7 44 24 04 01 00 00 	movl   $0x1,0x4(%esp)
   3468f:	00 
   34690:	89 04 24             	mov    %eax,(%esp)
   34693:	e8 34 c8 ff ff       	call   30ecc <setLDTEntry>
   34698:	8b 45 f4             	mov    0xfffffff4(%ebp),%eax
   3469b:	83 c0 54             	add    $0x54,%eax
   3469e:	c7 44 24 10 f2 c0 00 	movl   $0xc0f2,0x10(%esp)
   346a5:	00 
   346a6:	c7 44 24 0c ff ff 00 	movl   $0xffff,0xc(%esp)
   346ad:	00 
   346ae:	c7 44 24 08 00 00 00 	movl   $0x0,0x8(%esp)
   346b5:	00 
   346b6:	c7 44 24 04 02 00 00 	movl   $0x2,0x4(%esp)
   346bd:	00 
   346be:	89 04 24             	mov    %eax,(%esp)
   346c1:	e8 06 c8 ff ff       	call   30ecc <setLDTEntry>
   346c6:	8b 45 f4             	mov    0xfffffff4(%ebp),%eax
   346c9:	05 d4 00 00 00       	add    $0xd4,%eax
   346ce:	05 ff 27 00 00       	add    $0x27ff,%eax
   346d3:	8b 55 f4             	mov    0xfffffff4(%ebp),%edx
   346d6:	83 c2 54             	add    $0x54,%edx
   346d9:	c7 44 24 10 f2 40 00 	movl   $0x40f2,0x10(%esp)
   346e0:	00 
   346e1:	89 44 24 0c          	mov    %eax,0xc(%esp)
   346e5:	c7 44 24 08 00 00 00 	movl   $0x0,0x8(%esp)
   346ec:	00 
   346ed:	c7 44 24 04 03 00 00 	movl   $0x3,0x4(%esp)
   346f4:	00 
   346f5:	89 14 24             	mov    %edx,(%esp)
   346f8:	e8 cf c7 ff ff       	call   30ecc <setLDTEntry>
   346fd:	8b 45 f8             	mov    0xfffffff8(%ebp),%eax
   34700:	83 c0 54             	add    $0x54,%eax
   34703:	c7 44 24 10 fa c0 00 	movl   $0xc0fa,0x10(%esp)
   3470a:	00 
   3470b:	c7 44 24 0c ff ff 00 	movl   $0xffff,0xc(%esp)
   34712:	00 
   34713:	c7 44 24 08 00 00 00 	movl   $0x0,0x8(%esp)
   3471a:	00 
   3471b:	c7 44 24 04 00 00 00 	movl   $0x0,0x4(%esp)
   34722:	00 
   34723:	89 04 24             	mov    %eax,(%esp)
   34726:	e8 a1 c7 ff ff       	call   30ecc <setLDTEntry>
   3472b:	8b 45 f8             	mov    0xfffffff8(%ebp),%eax
   3472e:	83 c0 54             	add    $0x54,%eax
   34731:	c7 44 24 10 f2 c0 00 	movl   $0xc0f2,0x10(%esp)
   34738:	00 
   34739:	c7 44 24 0c ff ff 00 	movl   $0xffff,0xc(%esp)
   34740:	00 
   34741:	c7 44 24 08 00 00 00 	movl   $0x0,0x8(%esp)
   34748:	00 
   34749:	c7 44 24 04 01 00 00 	movl   $0x1,0x4(%esp)
   34750:	00 
   34751:	89 04 24             	mov    %eax,(%esp)
   34754:	e8 73 c7 ff ff       	call   30ecc <setLDTEntry>
   34759:	8b 45 f8             	mov    0xfffffff8(%ebp),%eax
   3475c:	83 c0 54             	add    $0x54,%eax
   3475f:	c7 44 24 10 f2 c0 00 	movl   $0xc0f2,0x10(%esp)
   34766:	00 
   34767:	c7 44 24 0c ff ff 00 	movl   $0xffff,0xc(%esp)
   3476e:	00 
   3476f:	c7 44 24 08 00 00 00 	movl   $0x0,0x8(%esp)
   34776:	00 
   34777:	c7 44 24 04 02 00 00 	movl   $0x2,0x4(%esp)
   3477e:	00 
   3477f:	89 04 24             	mov    %eax,(%esp)
   34782:	e8 45 c7 ff ff       	call   30ecc <setLDTEntry>
   34787:	8b 45 f8             	mov    0xfffffff8(%ebp),%eax
   3478a:	05 d4 00 00 00       	add    $0xd4,%eax
   3478f:	05 ff 27 00 00       	add    $0x27ff,%eax
   34794:	8b 55 f8             	mov    0xfffffff8(%ebp),%edx
   34797:	83 c2 54             	add    $0x54,%edx
   3479a:	c7 44 24 10 f2 40 00 	movl   $0x40f2,0x10(%esp)
   347a1:	00 
   347a2:	89 44 24 0c          	mov    %eax,0xc(%esp)
   347a6:	c7 44 24 08 00 00 00 	movl   $0x0,0x8(%esp)
   347ad:	00 
   347ae:	c7 44 24 04 03 00 00 	movl   $0x3,0x4(%esp)
   347b5:	00 
   347b6:	89 14 24             	mov    %edx,(%esp)
   347b9:	e8 0e c7 ff ff       	call   30ecc <setLDTEntry>
   347be:	c9                   	leave  
   347bf:	c3                   	ret    
Disassembly of section .rodata:

000347c0 <ldt_selector_offset-0x318>:
   347c0:	6b 65 72 6e          	imul   $0x6e,0x72(%ebp),%esp
   347c4:	65                   	gs
   347c5:	6c                   	insb   (%dx),%es:(%edi)
   347c6:	2f                   	das    
   347c7:	69 70 63 2e 63 00 73 	imul   $0x7300632e,0x63(%eax),%esi
   347ce:	72 63                	jb     34833 <init_normal_process+0x509>
   347d0:	21 3d 49 4e 54 45    	and    %edi,0x45544e49
   347d6:	52                   	push   %edx
   347d7:	52                   	push   %edx
   347d8:	55                   	push   %ebp
   347d9:	50                   	push   %eax
   347da:	54                   	push   %esp
   347db:	20 26                	and    %ah,(%esi)
   347dd:	26 20 73 72          	and    %dh,%es:0x72(%ebx)
   347e1:	63 3e                	arpl   %di,(%esi)
   347e3:	3d 30 00 64 65       	cmp    $0x65640030,%eax
   347e8:	73 74                	jae    3485e <init_normal_process+0x534>
   347ea:	21 3d 49 4e 54 45    	and    %edi,0x45544e49
   347f0:	52                   	push   %edx
   347f1:	52                   	push   %edx
   347f2:	55                   	push   %ebp
   347f3:	50                   	push   %eax
   347f4:	54                   	push   %esp
   347f5:	20 26                	and    %ah,(%esi)
   347f7:	26 20 64 65 73       	and    %ah,%es:0x73(%ebp)
   347fc:	74 3e                	je     3483c <init_normal_process+0x512>
   347fe:	3d 30 00 73 72       	cmp    $0x72730030,%eax
   34803:	63 21                	arpl   %sp,(%ecx)
   34805:	3d 64 65 73 74       	cmp    $0x74736564,%eax
   3480a:	00 6d 00             	add    %ch,0x0(%ebp)
   3480d:	72 65                	jb     34874 <init_normal_process+0x54a>
   3480f:	63 65 69             	arpl   %sp,0x69(%ebp)
   34812:	76 65                	jbe    34879 <init_normal_process+0x54f>
   34814:	72 2d                	jb     34843 <init_normal_process+0x519>
   34816:	3e                   	ds
   34817:	6d                   	insl   (%dx),%es:(%edi)
   34818:	73 67                	jae    34881 <init_normal_process+0x557>
   3481a:	00 20                	add    %ah,(%eax)
   3481c:	25 64 20 73 65       	and    $0x65732064,%eax
   34821:	6e                   	outsb  %ds:(%esi),(%dx)
   34822:	74 20                	je     34844 <init_normal_process+0x51a>
   34824:	6d                   	insl   (%dx),%es:(%edi)
   34825:	65                   	gs
   34826:	73 73                	jae    3489b <init_normal_process+0x571>
   34828:	61                   	popa   
   34829:	67 65 20 74 6f       	addr16 and %dh,%gs:111(%si)
   3482e:	20 25 64 20 00 25    	and    %ah,0x25002064
   34834:	64 20 72 65          	and    %dh,%fs:0x65(%edx)
   34838:	63 65 76             	arpl   %sp,0x76(%ebp)
   3483b:	69 6e 67 20 66 72 6f 	imul   $0x6f726620,0x67(%esi),%ebp
   34842:	6d                   	insl   (%dx),%es:(%edi)
   34843:	20 25 64 00 20 25    	and    %ah,0x25200064
   34849:	64 20 73 65          	and    %dh,%fs:0x65(%ebx)
   3484d:	6e                   	outsb  %ds:(%esi),(%dx)
   3484e:	64 69 6e 67 20 6d 65 	imul   $0x73656d20,%fs:0x67(%esi),%ebp
   34855:	73 
   34856:	73 61                	jae    348b9 <init_normal_process+0x58f>
   34858:	67 65 20 74 6f       	addr16 and %dh,%gs:111(%si)
   3485d:	20 25 64 0a 00 00    	and    %ah,0xa64
   34863:	00 28                	add    %ch,(%eax)
   34865:	63 75 72             	arpl   %si,0x72(%ebp)
   34868:	72 65                	jb     348cf <init_normal_process+0x5a5>
   3486a:	6e                   	outsb  %ds:(%esi),(%dx)
   3486b:	74 2d                	je     3489a <init_normal_process+0x570>
   3486d:	3e 70 5f             	jo,pt  348cf <init_normal_process+0x5a5>
   34870:	66                   	data16
   34871:	6c                   	insb   (%dx),%es:(%edi)
   34872:	61                   	popa   
   34873:	67 73 20             	addr16 jae 34896 <init_normal_process+0x56c>
   34876:	26 20 53 45          	and    %dl,%es:0x45(%ebx)
   3487a:	4e                   	dec    %esi
   3487b:	44                   	inc    %esp
   3487c:	49                   	dec    %ecx
   3487d:	4e                   	dec    %esi
   3487e:	47                   	inc    %edi
   3487f:	29 21                	sub    %esp,(%ecx)
   34881:	3d 30 00 64 65       	cmp    $0x65640030,%eax
   34886:	73 74                	jae    348fc <init_normal_process+0x5d2>
   34888:	21 3d 73 72 63 00    	and    %edi,0x637273
   3488e:	64                   	fs
   3488f:	65                   	gs
   34890:	73 74                	jae    34906 <init_normal_process+0x5dc>
   34892:	3e                   	ds
   34893:	49                   	dec    %ecx
   34894:	4e                   	dec    %esi
   34895:	54                   	push   %esp
   34896:	45                   	inc    %ebp
   34897:	52                   	push   %edx
   34898:	52                   	push   %edx
   34899:	55                   	push   %ebp
   3489a:	50                   	push   %eax
   3489b:	54                   	push   %esp
   3489c:	20 26                	and    %ah,(%esi)
   3489e:	26 20 64 65 73       	and    %ah,%es:0x73(%ebp)
   348a3:	74 3e                	je     348e3 <init_normal_process+0x5b9>
   348a5:	3d 30 00 73 72       	cmp    $0x72730030,%eax
   348aa:	63 3e                	arpl   %di,(%esi)
   348ac:	3d 49 4e 54 45       	cmp    $0x45544e49,%eax
   348b1:	52                   	push   %edx
   348b2:	52                   	push   %edx
   348b3:	55                   	push   %ebp
   348b4:	50                   	push   %eax
   348b5:	54                   	push   %esp
   348b6:	20 26                	and    %ah,(%esi)
   348b8:	26 20 73 72          	and    %dh,%es:0x72(%ebx)
   348bc:	63 3e                	arpl   %di,(%esi)
   348be:	3d 30 00 72 65       	cmp    $0x65720030,%eax
   348c3:	63 65 69             	arpl   %sp,0x69(%ebp)
   348c6:	76 65                	jbe    3492d <init_normal_process+0x603>
   348c8:	3a 41 4e             	cmp    0x4e(%ecx),%al
   348cb:	59                   	pop    %ecx
   348cc:	0a 00                	or     (%eax),%al
   348ce:	73 65                	jae    34935 <init_normal_process+0x60b>
   348d0:	6e                   	outsb  %ds:(%esi),(%dx)
   348d1:	64                   	fs
   348d2:	65                   	gs
   348d3:	72 00                	jb     348d5 <init_normal_process+0x5ab>
   348d5:	28 73 65             	sub    %dh,0x65(%ebx)
   348d8:	6e                   	outsb  %ds:(%esi),(%dx)
   348d9:	64                   	fs
   348da:	65                   	gs
   348db:	72 2d                	jb     3490a <init_normal_process+0x5e0>
   348dd:	3e 70 5f             	jo,pt  3493f <init_normal_process+0x615>
   348e0:	66                   	data16
   348e1:	6c                   	insb   (%dx),%es:(%edi)
   348e2:	61                   	popa   
   348e3:	67 73 26             	addr16 jae 3490c <init_normal_process+0x5e2>
   348e6:	53                   	push   %ebx
   348e7:	45                   	inc    %ebp
   348e8:	4e                   	dec    %esi
   348e9:	44                   	inc    %esp
   348ea:	49                   	dec    %ecx
   348eb:	4e                   	dec    %esi
   348ec:	47                   	inc    %edi
   348ed:	29 21                	sub    %esp,(%ecx)
   348ef:	3d 30 00 73 65       	cmp    $0x65730030,%eax
   348f4:	6e                   	outsb  %ds:(%esi),(%dx)
   348f5:	64                   	fs
   348f6:	65                   	gs
   348f7:	72 2d                	jb     34926 <init_normal_process+0x5fc>
   348f9:	3e 70 5f             	jo,pt  3495b <init_normal_process+0x631>
   348fc:	73 65                	jae    34963 <init_normal_process+0x639>
   348fe:	6e                   	outsb  %ds:(%esi),(%dx)
   348ff:	64                   	fs
   34900:	74 6f                	je     34971 <init_normal_process+0x647>
   34902:	3d 3d 64 65 73       	cmp    $0x7365643d,%eax
   34907:	74 00                	je     34909 <init_normal_process+0x5df>
   34909:	00 00                	add    %al,(%eax)
   3490b:	00 72 65             	add    %dh,0x65(%edx)
   3490e:	63 65 69             	arpl   %sp,0x69(%ebp)
   34911:	76 65                	jbe    34978 <init_normal_process+0x64e>
   34913:	3a 73 72             	cmp    0x72(%ebx),%dh
   34916:	63 20                	arpl   %sp,(%eax)
   34918:	63 68 61             	arpl   %bp,0x61(%eax)
   3491b:	6e                   	outsb  %ds:(%esi),(%dx)
   3491c:	67 65 64 20 66 72    	addr16 and %ah,%fs:%gs:114(%bp)
   34922:	6f                   	outsl  %ds:(%esi),(%dx)
   34923:	6d                   	insl   (%dx),%es:(%edi)
   34924:	20 41 4e             	and    %al,0x4e(%ecx)
   34927:	59                   	pop    %ecx
   34928:	20 74 6f 20          	and    %dh,0x20(%edi,%ebp,2)
   3492c:	25 64 0a 00 20       	and    $0x20000a64,%eax
   34931:	25 64 20 72 65       	and    $0x65722064,%eax
   34936:	63 65 69             	arpl   %sp,0x69(%ebp)
   34939:	76 65                	jbe    349a0 <init_normal_process+0x676>
   3493b:	64 20 6d 65          	and    %ch,%fs:0x65(%ebp)
   3493f:	73 73                	jae    349b4 <init_normal_process+0x68a>
   34941:	61                   	popa   
   34942:	67 65 20 66 72       	addr16 and %ah,%gs:114(%bp)
   34947:	6f                   	outsl  %ds:(%esi),(%dx)
   34948:	6d                   	insl   (%dx),%es:(%edi)
   34949:	20 25 64 20 00 74    	and    %ah,0x74002064
   3494f:	6d                   	insl   (%dx),%es:(%edi)
   34950:	70 00                	jo     34952 <init_normal_process+0x628>
   34952:	74 6d                	je     349c1 <init_normal_process+0x697>
   34954:	70 2d                	jo     34983 <init_normal_process+0x659>
   34956:	3e 6e                	outsb  %ds:(%esi),(%dx)
   34958:	65                   	gs
   34959:	78 74                	js     349cf <init_normal_process+0x6a5>
   3495b:	53                   	push   %ebx
   3495c:	65 6e                	outsb  %gs:(%esi),(%dx)
   3495e:	64 69 6e 67 50 72 6f 	imul   $0x3d6f7250,%fs:0x67(%esi),%ebp
   34965:	3d 
   34966:	3d 73 65 6e 64       	cmp    $0x646e6573,%eax
   3496b:	65                   	gs
   3496c:	72 00                	jb     3496e <init_normal_process+0x644>
   3496e:	00 00                	add    %al,(%eax)
   34970:	20 25 64 20 72 65    	and    %ah,0x65722064
   34976:	63 65 69             	arpl   %sp,0x69(%ebp)
   34979:	76 69                	jbe    349e4 <init_normal_process+0x6ba>
   3497b:	6e                   	outsb  %ds:(%esi),(%dx)
   3497c:	67 20 6d 65          	addr16 and %ch,101(%di)
   34980:	73 73                	jae    349f5 <init_normal_process+0x6cb>
   34982:	61                   	popa   
   34983:	67 65 20 66 72       	addr16 and %ah,%gs:114(%bp)
   34988:	6f                   	outsl  %ds:(%esi),(%dx)
   34989:	6d                   	insl   (%dx),%es:(%edi)
   3498a:	20 25 64 20 00 70    	and    %ah,0x70002064
   34990:	21 3d 30 00 73 65    	and    %edi,0x65730030
   34996:	6e                   	outsb  %ds:(%esi),(%dx)
   34997:	64 69 6e 67 20 74 6f 	imul   $0x206f7420,%fs:0x67(%esi),%ebp
   3499e:	20 
   3499f:	25 64 20 00 00       	and    $0x2064,%eax
   349a4:	20 21                	and    %ah,(%ecx)
   349a6:	74 74                	je     34a1c <init_normal_process+0x6f2>
   349a8:	79 20                	jns    349ca <init_normal_process+0x6a0>
   349aa:	74 61                	je     34a0d <init_normal_process+0x6e3>
   349ac:	73 6b                	jae    34a19 <init_normal_process+0x6ef>
   349ae:	20 69 73             	and    %ch,0x73(%ecx)
   349b1:	20 62 6c             	and    %ah,0x6c(%edx)
   349b4:	6f                   	outsl  %ds:(%esi),(%dx)
   349b5:	63 6b 65             	arpl   %bp,0x65(%ebx)
   349b8:	64 21 20             	and    %esp,%fs:(%eax)
   349bb:	00 73 63             	add    %dh,0x63(%ebx)
   349be:	68 65 64 75 6c       	push   $0x6c756465
   349c3:	65 3a 41 6c          	cmp    %gs:0x6c(%ecx),%al
   349c7:	6c                   	insb   (%dx),%es:(%edi)
   349c8:	20 70 72             	and    %dh,0x72(%eax)
   349cb:	6f                   	outsl  %ds:(%esi),(%dx)
   349cc:	63 65 73             	arpl   %sp,0x73(%ebp)
   349cf:	73 65                	jae    34a36 <init_normal_process+0x70c>
   349d1:	73 20                	jae    349f3 <init_normal_process+0x6c9>
   349d3:	61                   	popa   
   349d4:	72 65                	jb     34a3b <init_normal_process+0x711>
   349d6:	20 62 6c             	and    %ah,0x6c(%edx)
   349d9:	6f                   	outsl  %ds:(%esi),(%dx)
   349da:	63 6b 65             	arpl   %bp,0x65(%ebx)
   349dd:	64 0a 00             	or     %fs:(%eax),%al
   349e0:	2a 3a                	sub    (%edx),%bh
   349e2:	54                   	push   %esp
   349e3:	68 69 73 20 69       	push   $0x69207369
   349e8:	73 20                	jae    34a0a <init_normal_process+0x6e0>
   349ea:	74 68                	je     34a54 <init_normal_process+0x72a>
   349ec:	65 20 65 78          	and    %ah,%gs:0x78(%ebp)
   349f0:	63 65 70             	arpl   %sp,0x70(%ebp)
   349f3:	74 69                	je     34a5e <init_normal_process+0x734>
   349f5:	6f                   	outsl  %ds:(%esi),(%dx)
   349f6:	6e                   	outsb  %ds:(%esi),(%dx)
   349f7:	5f                   	pop    %edi
   349f8:	68 61 6e 64 6c       	push   $0x6c646e61
   349fd:	65                   	gs
   349fe:	72 3a                	jb     34a3a <init_normal_process+0x710>
   34a00:	25 64 00 3a 45       	and    $0x453a0064,%eax
   34a05:	72 72                	jb     34a79 <init_normal_process+0x74f>
   34a07:	6f                   	outsl  %ds:(%esi),(%dx)
   34a08:	72 20                	jb     34a2a <init_normal_process+0x700>
   34a0a:	43                   	inc    %ebx
   34a0b:	6f                   	outsl  %ds:(%esi),(%dx)
   34a0c:	64 65 3a 25 64 00 3a 	cmp    %fs:%gs:0x503a0064,%ah
   34a13:	50 
   34a14:	72 6f                	jb     34a85 <init_normal_process+0x75b>
   34a16:	63 65 73             	arpl   %sp,0x73(%ebp)
   34a19:	73 20                	jae    34a3b <init_normal_process+0x711>
   34a1b:	49                   	dec    %ecx
   34a1c:	44                   	inc    %esp
   34a1d:	3a 25 64 00 3a 43    	cmp    0x433a0064,%ah
   34a23:	53                   	push   %ebx
   34a24:	20 52 65             	and    %dl,0x65(%edx)
   34a27:	67 69 73 74 65 72 3a 	addr16 imul $0x253a7265,116(%bp,%di),%esi
   34a2e:	25 
   34a2f:	64 00 3a             	add    %bh,%fs:(%edx)
   34a32:	45                   	inc    %ebp
   34a33:	49                   	dec    %ecx
   34a34:	50                   	push   %eax
   34a35:	20 52 65             	and    %dl,0x65(%edx)
   34a38:	67 69 73 74 65 72 3a 	addr16 imul $0x253a7265,116(%bp,%di),%esi
   34a3f:	25 
   34a40:	64 00 3a             	add    %bh,%fs:(%edx)
   34a43:	6e                   	outsb  %ds:(%esi),(%dx)
   34a44:	65                   	gs
   34a45:	73 74                	jae    34abb <init_normal_process+0x791>
   34a47:	65 64 20 63 6c       	and    %ah,%fs:%gs:0x6c(%ebx)
   34a4c:	6f                   	outsl  %ds:(%esi),(%dx)
   34a4d:	63 6b 20             	arpl   %bp,0x20(%ebx)
   34a50:	6e                   	outsb  %ds:(%esi),(%dx)
   34a51:	75 6d                	jne    34ac0 <init_normal_process+0x796>
   34a53:	62 65 72             	bound  %esp,0x72(%ebp)
   34a56:	3a 25 64 00 3a 6b    	cmp    0x6b3a0064,%ah
   34a5c:	5f                   	pop    %edi
   34a5d:	72 65                	jb     34ac4 <init_normal_process+0x79a>
   34a5f:	65 6e                	outsb  %gs:(%esi),(%dx)
   34a61:	74 65                	je     34ac8 <init_normal_process+0x79e>
   34a63:	72 3a                	jb     34a9f <init_normal_process+0x775>
   34a65:	25 64 00 3a 50       	and    $0x503a0064,%eax
   34a6a:	20 43 53             	and    %al,0x53(%ebx)
   34a6d:	20 52 65             	and    %dl,0x65(%edx)
   34a70:	67 69 73 74 65 72 3a 	addr16 imul $0x253a7265,116(%bp,%di),%esi
   34a77:	25 
   34a78:	64 00 3a             	add    %bh,%fs:(%edx)
   34a7b:	50                   	push   %eax
   34a7c:	20 45 49             	and    %al,0x49(%ebp)
   34a7f:	50                   	push   %eax
   34a80:	20 52 65             	and    %dl,0x65(%edx)
   34a83:	67 69 73 74 65 72 3a 	addr16 imul $0x253a7265,116(%bp,%di),%esi
   34a8a:	25 
   34a8b:	64 00 23             	add    %ah,%fs:(%ebx)
   34a8e:	6a 75                	push   $0x75
   34a90:	6d                   	insl   (%dx),%es:(%edi)
   34a91:	70 49                	jo     34adc <priority_offset>
   34a93:	6e                   	outsb  %ds:(%esi),(%dx)
   34a94:	20 63 6c             	and    %ah,0x6c(%ebx)
   34a97:	6f                   	outsl  %ds:(%esi),(%dx)
   34a98:	63 6b 52             	arpl   %bp,0x52(%ebx)
   34a9b:	65                   	gs
   34a9c:	74 45                	je     34ae3 <ticks_offset+0x3>
   34a9e:	69 70 3a 25 64 23 00 	imul   $0x236425,0x3a(%eax),%esi
   34aa5:	23 6a 75             	and    0x75(%edx),%ebp
   34aa8:	6d                   	insl   (%dx),%es:(%edi)
   34aa9:	70 4f                	jo     34afa <ds_offset+0x2>
   34aab:	75 74                	jne    34b21 <eflags_offset+0x1>
   34aad:	20 63 6c             	and    %ah,0x6c(%ebx)
   34ab0:	6f                   	outsl  %ds:(%esi),(%dx)
   34ab1:	63 6b 52             	arpl   %bp,0x52(%ebx)
   34ab4:	65                   	gs
   34ab5:	74 45                	je     34afc <edi_offset>
   34ab7:	69 70 3a 25 64 23 00 	imul   $0x236425,0x3a(%eax),%esi
   34abe:	2a 45 6e             	sub    0x6e(%ebp),%al
   34ac1:	74 65                	je     34b28 <ss_offset>
   34ac3:	72 43                	jb     34b08 <ebx_offset>
   34ac5:	4c                   	dec    %esp
   34ac6:	6f                   	outsl  %ds:(%esi),(%dx)
   34ac7:	63 6b 00             	arpl   %bp,0x0(%ebx)
   34aca:	49                   	dec    %ecx
   34acb:	6e                   	outsb  %ds:(%esi),(%dx)
   34acc:	74 45                	je     34b13 <ecx_offset+0x3>
   34ace:	69 70 3a 25 64 2a 00 	imul   $0x2a6425,0x3a(%eax),%esi
   34ad5:	00 00                	add    %al,(%eax)
	...

00034ad8 <ldt_selector_offset>:
   34ad8:	48                   	dec    %eax
   34ad9:	00 00                	add    %al,(%eax)
	...

00034adc <priority_offset>:
   34adc:	4c                   	dec    %esp
   34add:	00 00                	add    %al,(%eax)
	...

00034ae0 <ticks_offset>:
   34ae0:	50                   	push   %eax
   34ae1:	00 00                	add    %al,(%eax)
	...

00034ae4 <regs_offset>:
   34ae4:	00 00                	add    %al,(%eax)
	...

00034ae8 <regs_size>:
   34ae8:	48                   	dec    %eax
   34ae9:	00 00                	add    %al,(%eax)
	...

00034aec <gs_offset>:
   34aec:	00 00                	add    %al,(%eax)
	...

00034af0 <fs_offset>:
   34af0:	04 00                	add    $0x0,%al
	...

00034af4 <es_offset>:
   34af4:	08 00                	or     %al,(%eax)
	...

00034af8 <ds_offset>:
   34af8:	0c 00                	or     $0x0,%al
	...

00034afc <edi_offset>:
   34afc:	10 00                	adc    %al,(%eax)
	...

00034b00 <esi_offset>:
   34b00:	14 00                	adc    $0x0,%al
	...

00034b04 <ebp_offset>:
   34b04:	18 00                	sbb    %al,(%eax)
	...

00034b08 <ebx_offset>:
   34b08:	20 00                	and    %al,(%eax)
	...

00034b0c <edx_offset>:
   34b0c:	24 00                	and    $0x0,%al
	...

00034b10 <ecx_offset>:
   34b10:	28 00                	sub    %al,(%eax)
	...

00034b14 <eax_offset>:
   34b14:	2c 00                	sub    $0x0,%al
	...

00034b18 <eip_offset>:
   34b18:	34 00                	xor    $0x0,%al
	...

00034b1c <cs_offset>:
   34b1c:	38 00                	cmp    %al,(%eax)
	...

00034b20 <eflags_offset>:
   34b20:	3c 00                	cmp    $0x0,%al
	...

00034b24 <esp_offset>:
   34b24:	40                   	inc    %eax
   34b25:	00 00                	add    %al,(%eax)
	...

00034b28 <ss_offset>:
   34b28:	44                   	inc    %esp
   34b29:	00 00                	add    %al,(%eax)
	...

00034b2c <regs_bottom_offset>:
   34b2c:	48                   	dec    %eax
   34b2d:	00 00                	add    %al,(%eax)
	...

00034b30 <regs_top_offset>:
   34b30:	00 00                	add    %al,(%eax)
	...

00034b34 <size_process_table>:
   34b34:	fc                   	cld    
   34b35:	28 00                	sub    %al,(%eax)
   34b37:	00 6b 65             	add    %ch,0x65(%ebx)
   34b3a:	72 6e                	jb     34baa <size_process_table+0x76>
   34b3c:	65                   	gs
   34b3d:	6c                   	insb   (%dx),%es:(%edi)
   34b3e:	2f                   	das    
   34b3f:	70 72                	jo     34bb3 <size_process_table+0x7f>
   34b41:	6f                   	outsl  %ds:(%esi),(%dx)
   34b42:	63 5f 75             	arpl   %bx,0x75(%edi)
   34b45:	74 69                	je     34bb0 <size_process_table+0x7c>
   34b47:	6c                   	insb   (%dx),%es:(%edi)
   34b48:	2e 63 00             	arpl   %ax,%cs:(%eax)
   34b4b:	70 21                	jo     34b6e <size_process_table+0x3a>
   34b4d:	3d 30 00 70 3e       	cmp    $0x3e700030,%eax
   34b52:	70 72                	jo     34bc6 <size_process_table+0x92>
   34b54:	6f                   	outsl  %ds:(%esi),(%dx)
   34b55:	63 65 73             	arpl   %sp,0x73(%ebp)
   34b58:	73 5f                	jae    34bb9 <size_process_table+0x85>
   34b5a:	74 61                	je     34bbd <size_process_table+0x89>
   34b5c:	62 6c 65 00          	bound  %ebp,0x0(%ebp)
   34b60:	70 69                	jo     34bcb <size_process_table+0x97>
   34b62:	64 3e 30 00          	xor    %al,%ds:%fs:(%eax)
   34b66:	70 2d                	jo     34b95 <size_process_table+0x61>
   34b68:	3e 70 5f             	jo,pt  34bca <size_process_table+0x96>
   34b6b:	66                   	data16
   34b6c:	6c                   	insb   (%dx),%es:(%edi)
   34b6d:	61                   	popa   
   34b6e:	67 73 3d             	addr16 jae 34bae <size_process_table+0x7a>
   34b71:	3d 52 55 4e 4e       	cmp    $0x4e4e5552,%eax
   34b76:	41                   	inc    %ecx
   34b77:	42                   	inc    %edx
   34b78:	4c                   	dec    %esp
   34b79:	45                   	inc    %ebp
   34b7a:	00 28                	add    %ch,(%eax)
   34b7c:	75 6e                	jne    34bec <size_process_table+0xb8>
   34b7e:	62 6c 6f 63          	bound  %ebp,0x63(%edi,%ebp,2)
   34b82:	6b 20 25             	imul   $0x25,(%eax),%esp
   34b85:	64 29 00             	sub    %eax,%fs:(%eax)
   34b88:	70 2d                	jo     34bb7 <size_process_table+0x83>
   34b8a:	3e 70 5f             	jo,pt  34bec <size_process_table+0xb8>
   34b8d:	66                   	data16
   34b8e:	6c                   	insb   (%dx),%es:(%edi)
   34b8f:	61                   	popa   
   34b90:	67 73 21             	addr16 jae 34bb4 <size_process_table+0x80>
   34b93:	3d 52 55 4e 4e       	cmp    $0x4e4e5552,%eax
   34b98:	41                   	inc    %ecx
   34b99:	42                   	inc    %edx
   34b9a:	4c                   	dec    %esp
   34b9b:	45                   	inc    %ebp
   34b9c:	00 28                	add    %ch,(%eax)
   34b9e:	62 6c 6f 63          	bound  %ebp,0x63(%edi,%ebp,2)
   34ba2:	6b 20 25             	imul   $0x25,(%eax),%esp
   34ba5:	64 29 00             	sub    %eax,%fs:(%eax)
   34ba8:	20 53 65             	and    %dl,0x65(%ebx)
   34bab:	6e                   	outsb  %ds:(%esi),(%dx)
   34bac:	64 69 6e 67 20 74 6f 	imul   $0x206f7420,%fs:0x67(%esi),%ebp
   34bb3:	20 
   34bb4:	25 64 3a 20 00       	and    $0x203a64,%eax
   34bb9:	25 64 20 00 0a       	and    $0xa002064,%eax
   34bbe:	00 0a                	add    %cl,(%edx)
   34bc0:	0a 0a                	or     (%edx),%cl
   34bc2:	0a 0a                	or     (%edx),%cl
   34bc4:	0a 00                	or     (%eax),%al
   34bc6:	4b                   	dec    %ebx
   34bc7:	65                   	gs
   34bc8:	72 6e                	jb     34c38 <size_process_table+0x104>
   34bca:	65                   	gs
   34bcb:	6c                   	insb   (%dx),%es:(%edi)
   34bcc:	3a 0a                	cmp    (%edx),%cl
   34bce:	00 49 6e             	add    %cl,0x6e(%ecx)
   34bd1:	69 74 69 61 6c 69 7a 	imul   $0x697a696c,0x61(%ecx,%ebp,2),%esi
   34bd8:	69 
   34bd9:	6e                   	outsb  %ds:(%esi),(%dx)
   34bda:	67 20 47 44          	addr16 and %al,68(%bx)
   34bde:	54                   	push   %esp
   34bdf:	2e 2e 2e 2e 2e 2e 2e 	or     %cs:(%eax),%al
   34be6:	2e 2e 2e 2e 0a 00 
   34bec:	49                   	dec    %ecx
   34bed:	6e                   	outsb  %ds:(%esi),(%dx)
   34bee:	69 74 69 61 6c 69 7a 	imul   $0x697a696c,0x61(%ecx,%ebp,2),%esi
   34bf5:	69 
   34bf6:	6e                   	outsb  %ds:(%esi),(%dx)
   34bf7:	67 20 49 44          	addr16 and %cl,68(%bx,%di)
   34bfb:	54                   	push   %esp
   34bfc:	20 50 6f             	and    %dl,0x6f(%eax)
   34bff:	69 6e 74 65 72 2e 2e 	imul   $0x2e2e7265,0x74(%esi),%ebp
   34c06:	2e 0a 00             	or     %cs:(%eax),%al
   34c09:	49                   	dec    %ecx
   34c0a:	6e                   	outsb  %ds:(%esi),(%dx)
   34c0b:	69 74 69 61 6c 69 7a 	imul   $0x697a696c,0x61(%ecx,%ebp,2),%esi
   34c12:	69 
   34c13:	6e                   	outsb  %ds:(%esi),(%dx)
   34c14:	67 20 49 44          	addr16 and %cl,68(%bx,%di)
   34c18:	54                   	push   %esp
   34c19:	20 65 6e             	and    %ah,0x6e(%ebp)
   34c1c:	74 72                	je     34c90 <size_process_table+0x15c>
   34c1e:	69 65 73 2e 2e 2e 0a 	imul   $0xa2e2e2e,0x73(%ebp),%esp
   34c25:	00 49 6e             	add    %cl,0x6e(%ecx)
   34c28:	69 74 69 61 6c 69 7a 	imul   $0x697a696c,0x61(%ecx,%ebp,2),%esi
   34c2f:	69 
   34c30:	6e                   	outsb  %ds:(%esi),(%dx)
   34c31:	67 20 73 79          	addr16 and %dh,121(%bp,%di)
   34c35:	73 20                	jae    34c57 <size_process_table+0x123>
   34c37:	63 61 6c             	arpl   %sp,0x6c(%ecx)
   34c3a:	6c                   	insb   (%dx),%es:(%edi)
   34c3b:	73 2e                	jae    34c6b <size_process_table+0x137>
   34c3d:	2e 2e 2e 2e 0a 00    	or     %cs:(%eax),%al
   34c43:	49                   	dec    %ecx
   34c44:	6e                   	outsb  %ds:(%esi),(%dx)
   34c45:	69 74 69 61 6c 69 7a 	imul   $0x697a696c,0x61(%ecx,%ebp,2),%esi
   34c4c:	69 
   34c4d:	6e                   	outsb  %ds:(%esi),(%dx)
   34c4e:	67 20 38             	addr16 and %bh,(%bx,%si)
   34c51:	32 35 33 20 74 69    	xor    0x69742033,%dh
   34c57:	6d                   	insl   (%dx),%es:(%edi)
   34c58:	65                   	gs
   34c59:	72 2e                	jb     34c89 <size_process_table+0x155>
   34c5b:	2e 2e 2e 0a 00       	or     %cs:(%eax),%al
   34c60:	49                   	dec    %ecx
   34c61:	6e                   	outsb  %ds:(%esi),(%dx)
   34c62:	69 74 69 61 6c 69 7a 	imul   $0x697a696c,0x61(%ecx,%ebp,2),%esi
   34c69:	69 
   34c6a:	6e                   	outsb  %ds:(%esi),(%dx)
   34c6b:	67 20 74 74          	addr16 and %dh,116(%si)
   34c6f:	79 73                	jns    34ce4 <size_process_table+0x1b0>
   34c71:	20 2e                	and    %ch,(%esi)
   34c73:	2e 2e 2e 2e 2e 2e 2e 	or     %cs:(%eax),%al
   34c7a:	2e 0a 00 
   34c7d:	00 00                	add    %al,(%eax)
   34c7f:	00 3f                	add    %bh,(%edi)
   34c81:	20 6b 5f             	and    %ch,0x5f(%ebx)
   34c84:	72 65                	jb     34ceb <size_process_table+0x1b7>
   34c86:	65 6e                	outsb  %gs:(%esi),(%dx)
   34c88:	74 65                	je     34cef <size_process_table+0x1bb>
   34c8a:	72 20                	jb     34cac <size_process_table+0x178>
   34c8c:	69 73 20 69 6e 63 6f 	imul   $0x6f636e69,0x20(%ebx),%esi
   34c93:	72 72                	jb     34d07 <size_process_table+0x1d3>
   34c95:	65 63 74 20 66       	arpl   %si,%gs:0x66(%eax)
   34c9a:	6f                   	outsl  %ds:(%esi),(%dx)
   34c9b:	72 20                	jb     34cbd <size_process_table+0x189>
   34c9d:	75 6e                	jne    34d0d <size_process_table+0x1d9>
   34c9f:	6b 6e 6f 77          	imul   $0x77,0x6f(%esi),%ebp
   34ca3:	6e                   	outsb  %ds:(%esi),(%dx)
   34ca4:	20 72 65             	and    %dh,0x65(%edx)
   34ca7:	61                   	popa   
   34ca8:	73 6f                	jae    34d19 <size_process_table+0x1e5>
   34caa:	6e                   	outsb  %ds:(%esi),(%dx)
   34cab:	00 20                	add    %ah,(%eax)
   34cad:	23 25 64 20 73 65    	and    0x65732064,%esp
   34cb3:	6e                   	outsb  %ds:(%esi),(%dx)
   34cb4:	64 69 6e 67 20 74 6f 	imul   $0x206f7420,%fs:0x67(%esi),%ebp
   34cbb:	20 
   34cbc:	25 64 23 20 00       	and    $0x202364,%eax
   34cc1:	20 23                	and    %ah,(%ebx)
   34cc3:	25 64 20 72 65       	and    $0x65722064,%eax
   34cc8:	63 65 69             	arpl   %sp,0x69(%ebp)
   34ccb:	76 69                	jbe    34d36 <size_process_table+0x202>
   34ccd:	6e                   	outsb  %ds:(%esi),(%dx)
   34cce:	67 20 66 72          	addr16 and %ah,114(%bp)
   34cd2:	6f                   	outsl  %ds:(%esi),(%dx)
   34cd3:	6d                   	insl   (%dx),%es:(%edi)
   34cd4:	20 25 64 20 25 64    	and    %ah,0x64252064
   34cda:	23 20                	and    (%eax),%esp
   34cdc:	00 00                	add    %al,(%eax)
   34cde:	00 00                	add    %al,(%eax)
   34ce0:	49                   	dec    %ecx
   34ce1:	6e                   	outsb  %ds:(%esi),(%dx)
   34ce2:	76 61                	jbe    34d45 <size_process_table+0x211>
   34ce4:	6c                   	insb   (%dx),%es:(%edi)
   34ce5:	69 64 20 66 75 6e 63 	imul   $0x74636e75,0x66(%eax),%esp
   34cec:	74 
   34ced:	69 6f 6e 20 64 65 73 	imul   $0x73656420,0x6e(%edi),%ebp
   34cf4:	63 72 69             	arpl   %si,0x69(%edx)
   34cf7:	70 74                	jo     34d6d <size_process_table+0x239>
   34cf9:	69 6f 6e 20 69 6e 20 	imul   $0x206e6920,0x6e(%edi),%ebp
   34d00:	73 79                	jae    34d7b <size_process_table+0x247>
   34d02:	73 5f                	jae    34d63 <size_process_table+0x22f>
   34d04:	73 65                	jae    34d6b <size_process_table+0x237>
   34d06:	6e                   	outsb  %ds:(%esi),(%dx)
   34d07:	64                   	fs
   34d08:	72 65                	jb     34d6f <size_process_table+0x23b>
   34d0a:	63 00                	arpl   %ax,(%eax)
   34d0c:	73 70                	jae    34d7e <size_process_table+0x24a>
   34d0e:	69 6e 6e 69 6e 67 20 	imul   $0x20676e69,0x6e(%esi),%ebp
   34d15:	69 6e 20 25 73 20 2e 	imul   $0x2e207325,0x20(%esi),%ebp
   34d1c:	2e 2e 0a 00          	or     %cs:(%eax),%al
   34d20:	25 64 20 25 63       	and    $0x63252064,%eax
   34d25:	20 41 73             	and    %al,0x73(%ecx)
   34d28:	73 65                	jae    34d8f <size_process_table+0x25b>
   34d2a:	72 74                	jb     34da0 <size_process_table+0x26c>
   34d2c:	69 6f 6e 20 46 61 69 	imul   $0x69614620,0x6e(%edi),%ebp
   34d33:	6c                   	insb   (%dx),%es:(%edi)
   34d34:	3a 25 73 20 69 6e    	cmp    0x6e692073,%ah
   34d3a:	20 66 69             	and    %ah,0x69(%esi)
   34d3d:	6c                   	insb   (%dx),%es:(%edi)
   34d3e:	65 3a 25 73 20 6c 69 	cmp    %gs:0x696c2073,%ah
   34d45:	6e                   	outsb  %ds:(%esi),(%dx)
   34d46:	65 20 6e 75          	and    %ch,%gs:0x75(%esi)
   34d4a:	6d                   	insl   (%dx),%es:(%edi)
   34d4b:	62 65 72             	bound  %esp,0x72(%ebp)
   34d4e:	3a 25 64 20 62 61    	cmp    0x61622064,%ah
   34d54:	73 65                	jae    34dbb <size_process_table+0x287>
   34d56:	20 66 69             	and    %ah,0x69(%esi)
   34d59:	6c                   	insb   (%dx),%es:(%edi)
   34d5a:	65 3a 25 73 0a 00 61 	cmp    %gs:0x61000a73,%ah
   34d61:	73 73                	jae    34dd6 <size_process_table+0x2a2>
   34d63:	65                   	gs
   34d64:	72 74                	jb     34dda <size_process_table+0x2a6>
   34d66:	69 6f 6e 5f 66 61 69 	imul   $0x6961665f,0x6e(%edi),%ebp
   34d6d:	6c                   	insb   (%dx),%es:(%edi)
   34d6e:	28 29                	sub    %ch,(%ecx)
   34d70:	00 25 63 20 21 21    	add    %ah,0x21212063
   34d76:	50                   	push   %eax
   34d77:	41                   	inc    %ecx
   34d78:	4e                   	dec    %esi
   34d79:	49                   	dec    %ecx
   34d7a:	43                   	inc    %ebx
   34d7b:	21 21                	and    %esp,(%ecx)
   34d7d:	20 25 73 00 20 00    	and    %ah,0x200073
   34d83:	00 54 48 69          	add    %dl,0x69(%eax,%ecx,2)
   34d87:	73 20                	jae    34da9 <size_process_table+0x275>
   34d89:	69 73 20 74 68 65 20 	imul   $0x20656874,0x20(%ebx),%esi
   34d90:	68 61 72 64 20       	push   $0x20647261
   34d95:	64 69 73 6b 20 69 6e 	imul   $0x746e6920,%fs:0x6b(%ebx),%esi
   34d9c:	74 
   34d9d:	65                   	gs
   34d9e:	72 72                	jb     34e12 <size_process_table+0x2de>
   34da0:	75 70                	jne    34e12 <size_process_table+0x2de>
   34da2:	74 20                	je     34dc4 <size_process_table+0x290>
   34da4:	68 61 6e 64 6c       	push   $0x6c646e61
   34da9:	65                   	gs
   34daa:	72 2e                	jb     34dda <size_process_table+0x2a6>
   34dac:	0a 00                	or     (%eax),%al
   34dae:	4e                   	dec    %esi
   34daf:	72 44                	jb     34df5 <size_process_table+0x2c1>
   34db1:	72 69                	jb     34e1c <size_process_table+0x2e8>
   34db3:	76 65                	jbe    34e1a <size_process_table+0x2e6>
   34db5:	73 3a                	jae    34df1 <size_process_table+0x2bd>
   34db7:	25 64 2e 0a 00       	and    $0xa2e64,%eax
   34dbc:	73 79                	jae    34e37 <size_process_table+0x303>
   34dbe:	73 5f                	jae    34e1f <size_process_table+0x2eb>
   34dc0:	74 61                	je     34e23 <size_process_table+0x2ef>
   34dc2:	73 6b                	jae    34e2f <size_process_table+0x2fb>
   34dc4:	2f                   	das    
   34dc5:	2f                   	das    
   34dc6:	64 69 73 6b 2f 74 61 	imul   $0x7361742f,%fs:0x6b(%ebx),%esi
   34dcd:	73 
   34dce:	6b 5f 64 69          	imul   $0x69,0x64(%edi),%ebx
   34dd2:	73 6b                	jae    34e3f <size_process_table+0x30b>
   34dd4:	2e 63 00             	arpl   %ax,%cs:(%eax)
   34dd7:	2a 70 4e             	sub    0x4e(%eax),%dh
   34dda:	72 44                	jb     34e20 <size_process_table+0x2ec>
   34ddc:	72 69                	jb     34e47 <size_process_table+0x313>
   34dde:	76 65                	jbe    34e45 <size_process_table+0x311>
   34de0:	73 00                	jae    34de2 <size_process_table+0x2ae>
   34de2:	54                   	push   %esp
   34de3:	68 69 73 20 69       	push   $0x69207369
   34de8:	73 20                	jae    34e0a <size_process_table+0x2d6>
   34dea:	64 69 73 6b 20 74 61 	imul   $0x73617420,%fs:0x6b(%ebx),%esi
   34df1:	73 
   34df2:	6b 0a 00             	imul   $0x0,(%edx),%ecx
   34df5:	68 64 20 65 72       	push   $0x72652064
   34dfa:	72 6f                	jb     34e6b <size_process_table+0x337>
   34dfc:	72 2e                	jb     34e2c <size_process_table+0x2f8>
   34dfe:	00 48 44             	add    %cl,0x44(%eax)
   34e01:	5f                   	pop    %edi
   34e02:	53                   	push   %ebx
   34e03:	4e                   	dec    %esi
   34e04:	00 48 44             	add    %cl,0x44(%eax)
   34e07:	5f                   	pop    %edi
   34e08:	4d                   	dec    %ebp
   34e09:	6f                   	outsl  %ds:(%esi),(%dx)
   34e0a:	64                   	fs
   34e0b:	65                   	gs
   34e0c:	6c                   	insb   (%dx),%es:(%edi)
   34e0d:	00 25 73 3a 20 25    	add    %ah,0x25203a73
   34e13:	73 20                	jae    34e35 <size_process_table+0x301>
   34e15:	20 00                	and    %al,(%eax)
   34e17:	59                   	pop    %ecx
   34e18:	65                   	gs
   34e19:	73 00                	jae    34e1b <size_process_table+0x2e7>
   34e1b:	4e                   	dec    %esi
   34e1c:	6f                   	outsl  %ds:(%esi),(%dx)
   34e1d:	00 4c 42 41          	add    %cl,0x41(%edx,%eax,2)
   34e21:	20 73 75             	and    %dh,0x75(%ebx)
   34e24:	70 70                	jo     34e96 <size_process_table+0x362>
   34e26:	6f                   	outsl  %ds:(%esi),(%dx)
   34e27:	72 74                	jb     34e9d <size_process_table+0x369>
   34e29:	65 64 3a 20          	cmp    %fs:%gs:(%eax),%ah
   34e2d:	25 73 20 20 00       	and    $0x202073,%eax
   34e32:	4c                   	dec    %esp
   34e33:	42                   	inc    %edx
   34e34:	41                   	inc    %ecx
   34e35:	34 38                	xor    $0x38,%al
   34e37:	20 73 75             	and    %dh,0x75(%ebx)
   34e3a:	70 70                	jo     34eac <size_process_table+0x378>
   34e3c:	6f                   	outsl  %ds:(%esi),(%dx)
   34e3d:	72 74                	jb     34eb3 <size_process_table+0x37f>
   34e3f:	65 64 3a 20          	cmp    %fs:%gs:(%eax),%ah
   34e43:	25 73 20 20 00       	and    $0x202073,%eax
   34e48:	53                   	push   %ebx
   34e49:	65 63 74 6f 72       	arpl   %si,%gs:0x72(%edi,%ebp,2)
   34e4e:	20 73 69             	and    %dh,0x69(%ebx)
   34e51:	7a 65                	jp     34eb8 <size_process_table+0x384>
   34e53:	3a 20                	cmp    (%eax),%ah
   34e55:	25 64 20 20 00       	and    $0x202064,%eax
   34e5a:	48                   	dec    %eax
   34e5b:	44                   	inc    %esp
   34e5c:	20 73 69             	and    %dh,0x69(%ebx)
   34e5f:	7a 65                	jp     34ec6 <size_process_table+0x392>
   34e61:	3a 20                	cmp    (%eax),%ah
   34e63:	25 64 4d 42 20       	and    $0x20424d64,%eax
   34e68:	20 00                	and    %al,(%eax)
   34e6a:	54                   	push   %esp
   34e6b:	68 69 73 20 69       	push   $0x69207369
   34e70:	73 20                	jae    34e92 <size_process_table+0x35e>
   34e72:	74 68                	je     34edc <size_process_table+0x3a8>
   34e74:	65 20 66 69          	and    %ah,%gs:0x69(%esi)
   34e78:	6c                   	insb   (%dx),%es:(%edi)
   34e79:	65 20 73 79          	and    %dh,%gs:0x79(%ebx)
   34e7d:	73 74                	jae    34ef3 <size_process_table+0x3bf>
   34e7f:	65                   	gs
   34e80:	6d                   	insl   (%dx),%es:(%edi)
   34e81:	20 74 61 73          	and    %dh,0x73(%ecx)
   34e85:	6b 0a 00             	imul   $0x0,(%edx),%ecx
   34e88:	46                   	inc    %esi
   34e89:	53                   	push   %ebx
   34e8a:	00 73 79             	add    %dh,0x79(%ebx)
   34e8d:	73 5f                	jae    34eee <size_process_table+0x3ba>
   34e8f:	74 61                	je     34ef2 <size_process_table+0x3be>
   34e91:	73 6b                	jae    34efe <size_process_table+0x3ca>
   34e93:	2f                   	das    
   34e94:	2f                   	das    
   34e95:	74 69                	je     34f00 <size_process_table+0x3cc>
   34e97:	63 6b 2f             	arpl   %bp,0x2f(%ebx)
   34e9a:	74 61                	je     34efd <size_process_table+0x3c9>
   34e9c:	73 6b                	jae    34f09 <size_process_table+0x3d5>
   34e9e:	5f                   	pop    %edi
   34e9f:	74 69                	je     34f0a <size_process_table+0x3d6>
   34ea1:	63 6b 2e             	arpl   %bp,0x2e(%ebx)
   34ea4:	63 00                	arpl   %ax,(%eax)
   34ea6:	72 65                	jb     34f0d <size_process_table+0x3d9>
   34ea8:	71 75                	jno    34f1f <size_process_table+0x3eb>
   34eaa:	65                   	gs
   34eab:	73 74                	jae    34f21 <size_process_table+0x3ed>
   34ead:	5f                   	pop    %edi
   34eae:	70 69                	jo     34f19 <size_process_table+0x3e5>
   34eb0:	64 21 3d 30 00 00 00 	and    %edi,%fs:0x30
   34eb7:	00 69 6e             	add    %ch,0x6e(%ecx)
   34eba:	69 74 5f 74 74 79 20 	imul   $0x65207974,0x74(%edi,%ebx,2),%esi
   34ec1:	65 
   34ec2:	72 72                	jb     34f36 <size_process_table+0x402>
   34ec4:	6f                   	outsl  %ds:(%esi),(%dx)
   34ec5:	72 3a                	jb     34f01 <size_process_table+0x3cd>
   34ec7:	73 74                	jae    34f3d <size_process_table+0x409>
   34ec9:	61                   	popa   
   34eca:	72 74                	jb     34f40 <size_process_table+0x40c>
   34ecc:	61                   	popa   
   34ecd:	64                   	fs
   34ece:	64                   	fs
   34ecf:	72 20                	jb     34ef1 <size_process_table+0x3bd>
   34ed1:	62 69 67             	bound  %ebp,0x67(%ecx)
   34ed4:	67                   	addr16
   34ed5:	65                   	gs
   34ed6:	72 20                	jb     34ef8 <size_process_table+0x3c4>
   34ed8:	74 68                	je     34f42 <size_process_table+0x40e>
   34eda:	61                   	popa   
   34edb:	6e                   	outsb  %ds:(%esi),(%dx)
   34edc:	20 65 6e             	and    %ah,0x6e(%ebp)
   34edf:	64                   	fs
   34ee0:	61                   	popa   
   34ee1:	64                   	fs
   34ee2:	64                   	fs
   34ee3:	72 0a                	jb     34eef <size_process_table+0x3bb>
   34ee5:	00 00                	add    %al,(%eax)
   34ee7:	00 2e                	add    %ch,(%esi)
   34ee9:	2e                   	cs
   34eea:	2e                   	cs
   34eeb:	2e                   	cs
   34eec:	2e                   	cs
   34eed:	2e                   	cs
   34eee:	2e                   	cs
   34eef:	2e                   	cs
   34ef0:	2e                   	cs
   34ef1:	2e                   	cs
   34ef2:	2e                   	cs
   34ef3:	2e                   	cs
   34ef4:	2e                   	cs
   34ef5:	54                   	push   %esp
   34ef6:	54                   	push   %esp
   34ef7:	59                   	pop    %ecx
   34ef8:	30 2e                	xor    %ch,(%esi)
   34efa:	2e 2e 2e 2e 2e 2e 2e 	or     %cs:(%eax),%al
   34f01:	2e 2e 2e 2e 2e 0a 00 
   34f08:	2e                   	cs
   34f09:	2e                   	cs
   34f0a:	2e                   	cs
   34f0b:	2e                   	cs
   34f0c:	2e                   	cs
   34f0d:	2e                   	cs
   34f0e:	2e                   	cs
   34f0f:	2e                   	cs
   34f10:	2e                   	cs
   34f11:	2e                   	cs
   34f12:	2e                   	cs
   34f13:	2e                   	cs
   34f14:	2e                   	cs
   34f15:	54                   	push   %esp
   34f16:	54                   	push   %esp
   34f17:	59                   	pop    %ecx
   34f18:	31 2e                	xor    %ebp,(%esi)
   34f1a:	2e 2e 2e 2e 2e 2e 2e 	or     %cs:(%eax),%al
   34f21:	2e 2e 2e 2e 2e 0a 00 
   34f28:	2e                   	cs
   34f29:	2e                   	cs
   34f2a:	2e                   	cs
   34f2b:	2e                   	cs
   34f2c:	2e                   	cs
   34f2d:	2e                   	cs
   34f2e:	2e                   	cs
   34f2f:	2e                   	cs
   34f30:	2e                   	cs
   34f31:	2e                   	cs
   34f32:	2e                   	cs
   34f33:	2e                   	cs
   34f34:	2e                   	cs
   34f35:	54                   	push   %esp
   34f36:	54                   	push   %esp
   34f37:	59                   	pop    %ecx
   34f38:	32 2e                	xor    (%esi),%ch
   34f3a:	2e 2e 2e 2e 2e 2e 2e 	or     %cs:(%eax),%al
   34f41:	2e 2e 2e 2e 2e 0a 00 
   34f48:	73 79                	jae    34fc3 <size_process_table+0x48f>
   34f4a:	73 5f                	jae    34fab <size_process_table+0x477>
   34f4c:	74 61                	je     34faf <size_process_table+0x47b>
   34f4e:	73 6b                	jae    34fbb <size_process_table+0x487>
   34f50:	2f                   	das    
   34f51:	2f                   	das    
   34f52:	74 74                	je     34fc8 <size_process_table+0x494>
   34f54:	79 2f                	jns    34f85 <size_process_table+0x451>
   34f56:	74 74                	je     34fcc <size_process_table+0x498>
   34f58:	79 2e                	jns    34f88 <size_process_table+0x454>
   34f5a:	63 00                	arpl   %ax,(%eax)
   34f5c:	70 00                	jo     34f5e <size_process_table+0x42a>
   34f5e:	69 64 3e 3d 30 00 73 	imul   $0x79730030,0x3d(%esi,%edi,1),%esp
   34f65:	79 
   34f66:	73 5f                	jae    34fc7 <size_process_table+0x493>
   34f68:	74 61                	je     34fcb <size_process_table+0x497>
   34f6a:	73 6b                	jae    34fd7 <size_process_table+0x4a3>
   34f6c:	2f                   	das    
   34f6d:	2f                   	das    
   34f6e:	74 74                	je     34fe4 <size_process_table+0x4b0>
   34f70:	79 2f                	jns    34fa1 <size_process_table+0x46d>
   34f72:	6b 65 79 2e          	imul   $0x2e,0x79(%ebp),%esp
   34f76:	63 00                	arpl   %ax,(%eax)
   34f78:	6b 62 5f 62          	imul   $0x62,0x5f(%edx),%esp
   34f7c:	75 66                	jne    34fe4 <size_process_table+0x4b0>
   34f7e:	00 70 00             	add    %dh,0x0(%eax)
   34f81:	31 00                	xor    %eax,(%eax)
   34f83:	74 74                	je     34ff9 <size_process_table+0x4c5>
   34f85:	79 5f                	jns    34fe6 <size_process_table+0x4b2>
   34f87:	69 64 3e 3d 30 20 26 	imul   $0x26262030,0x3d(%esi,%edi,1),%esp
   34f8e:	26 
   34f8f:	20 74 74 79          	and    %dh,0x79(%esp,%esi,2)
   34f93:	5f                   	pop    %edi
   34f94:	69 64 3c 3d 32 00 0a 	imul   $0xa0032,0x3d(%esp,%edi,1),%esp
   34f9b:	00 
   34f9c:	48                   	dec    %eax
   34f9d:	65                   	gs
   34f9e:	6c                   	insb   (%dx),%es:(%edi)
   34f9f:	6c                   	insb   (%dx),%es:(%edi)
   34fa0:	6f                   	outsl  %ds:(%esi),(%dx)
   34fa1:	2c 57                	sub    $0x57,%al
   34fa3:	6f                   	outsl  %ds:(%esi),(%dx)
   34fa4:	6c                   	insb   (%dx),%es:(%edi)
   34fa5:	64 00 3c 41          	add    %bh,%fs:(%ecx,%eax,2)
   34fa9:	3a 25 64 3e 00 20    	cmp    0x20003e64,%ah
   34faf:	42                   	inc    %edx
   34fb0:	2e 00 3a             	add    %bh,%cs:(%edx)
   34fb3:	50                   	push   %eax
   34fb4:	33 3a                	xor    (%edx),%edi
	...
Disassembly of section .data:

00035000 <__id>:
   35000:	03 00                	add    (%eax),%eax
	...

00035004 <__id>:
   35004:	03 00                	add    (%eax),%eax
	...

00035008 <disp_pos>:
	...

00035020 <keymap>:
	...
   3502c:	01 01                	add    %eax,(%ecx)
   3502e:	00 00                	add    %al,(%eax)
   35030:	01 01                	add    %eax,(%ecx)
   35032:	00 00                	add    %al,(%eax)
   35034:	00 00                	add    %al,(%eax)
   35036:	00 00                	add    %al,(%eax)
   35038:	31 00                	xor    %eax,(%eax)
   3503a:	00 00                	add    %al,(%eax)
   3503c:	21 00                	and    %eax,(%eax)
   3503e:	00 00                	add    %al,(%eax)
   35040:	00 00                	add    %al,(%eax)
   35042:	00 00                	add    %al,(%eax)
   35044:	32 00                	xor    (%eax),%al
   35046:	00 00                	add    %al,(%eax)
   35048:	40                   	inc    %eax
   35049:	00 00                	add    %al,(%eax)
   3504b:	00 00                	add    %al,(%eax)
   3504d:	00 00                	add    %al,(%eax)
   3504f:	00 33                	add    %dh,(%ebx)
   35051:	00 00                	add    %al,(%eax)
   35053:	00 23                	add    %ah,(%ebx)
   35055:	00 00                	add    %al,(%eax)
   35057:	00 00                	add    %al,(%eax)
   35059:	00 00                	add    %al,(%eax)
   3505b:	00 34 00             	add    %dh,(%eax,%eax,1)
   3505e:	00 00                	add    %al,(%eax)
   35060:	24 00                	and    $0x0,%al
   35062:	00 00                	add    %al,(%eax)
   35064:	00 00                	add    %al,(%eax)
   35066:	00 00                	add    %al,(%eax)
   35068:	35 00 00 00 25       	xor    $0x25000000,%eax
   3506d:	00 00                	add    %al,(%eax)
   3506f:	00 00                	add    %al,(%eax)
   35071:	00 00                	add    %al,(%eax)
   35073:	00 36                	add    %dh,(%esi)
   35075:	00 00                	add    %al,(%eax)
   35077:	00 5e 00             	add    %bl,0x0(%esi)
   3507a:	00 00                	add    %al,(%eax)
   3507c:	00 00                	add    %al,(%eax)
   3507e:	00 00                	add    %al,(%eax)
   35080:	37                   	aaa    
   35081:	00 00                	add    %al,(%eax)
   35083:	00 26                	add    %ah,(%esi)
   35085:	00 00                	add    %al,(%eax)
   35087:	00 00                	add    %al,(%eax)
   35089:	00 00                	add    %al,(%eax)
   3508b:	00 38                	add    %bh,(%eax)
   3508d:	00 00                	add    %al,(%eax)
   3508f:	00 2a                	add    %ch,(%edx)
   35091:	00 00                	add    %al,(%eax)
   35093:	00 00                	add    %al,(%eax)
   35095:	00 00                	add    %al,(%eax)
   35097:	00 39                	add    %bh,(%ecx)
   35099:	00 00                	add    %al,(%eax)
   3509b:	00 28                	add    %ch,(%eax)
   3509d:	00 00                	add    %al,(%eax)
   3509f:	00 00                	add    %al,(%eax)
   350a1:	00 00                	add    %al,(%eax)
   350a3:	00 30                	add    %dh,(%eax)
   350a5:	00 00                	add    %al,(%eax)
   350a7:	00 29                	add    %ch,(%ecx)
   350a9:	00 00                	add    %al,(%eax)
   350ab:	00 00                	add    %al,(%eax)
   350ad:	00 00                	add    %al,(%eax)
   350af:	00 2d 00 00 00 5f    	add    %ch,0x5f000000
   350b5:	00 00                	add    %al,(%eax)
   350b7:	00 00                	add    %al,(%eax)
   350b9:	00 00                	add    %al,(%eax)
   350bb:	00 3d 00 00 00 2b    	add    %bh,0x2b000000
   350c1:	00 00                	add    %al,(%eax)
   350c3:	00 00                	add    %al,(%eax)
   350c5:	00 00                	add    %al,(%eax)
   350c7:	00 04 01             	add    %al,(%ecx,%eax,1)
   350ca:	00 00                	add    %al,(%eax)
   350cc:	04 01                	add    $0x1,%al
   350ce:	00 00                	add    %al,(%eax)
   350d0:	00 00                	add    %al,(%eax)
   350d2:	00 00                	add    %al,(%eax)
   350d4:	02 01                	add    (%ecx),%al
   350d6:	00 00                	add    %al,(%eax)
   350d8:	02 01                	add    (%ecx),%al
   350da:	00 00                	add    %al,(%eax)
   350dc:	00 00                	add    %al,(%eax)
   350de:	00 00                	add    %al,(%eax)
   350e0:	71 00                	jno    350e2 <keymap+0xc2>
   350e2:	00 00                	add    %al,(%eax)
   350e4:	51                   	push   %ecx
   350e5:	00 00                	add    %al,(%eax)
   350e7:	00 00                	add    %al,(%eax)
   350e9:	00 00                	add    %al,(%eax)
   350eb:	00 77 00             	add    %dh,0x0(%edi)
   350ee:	00 00                	add    %al,(%eax)
   350f0:	57                   	push   %edi
   350f1:	00 00                	add    %al,(%eax)
   350f3:	00 00                	add    %al,(%eax)
   350f5:	00 00                	add    %al,(%eax)
   350f7:	00 65 00             	add    %ah,0x0(%ebp)
   350fa:	00 00                	add    %al,(%eax)
   350fc:	45                   	inc    %ebp
   350fd:	00 00                	add    %al,(%eax)
   350ff:	00 00                	add    %al,(%eax)
   35101:	00 00                	add    %al,(%eax)
   35103:	00 72 00             	add    %dh,0x0(%edx)
   35106:	00 00                	add    %al,(%eax)
   35108:	52                   	push   %edx
   35109:	00 00                	add    %al,(%eax)
   3510b:	00 00                	add    %al,(%eax)
   3510d:	00 00                	add    %al,(%eax)
   3510f:	00 74 00 00          	add    %dh,0x0(%eax,%eax,1)
   35113:	00 54 00 00          	add    %dl,0x0(%eax,%eax,1)
   35117:	00 00                	add    %al,(%eax)
   35119:	00 00                	add    %al,(%eax)
   3511b:	00 79 00             	add    %bh,0x0(%ecx)
   3511e:	00 00                	add    %al,(%eax)
   35120:	59                   	pop    %ecx
   35121:	00 00                	add    %al,(%eax)
   35123:	00 00                	add    %al,(%eax)
   35125:	00 00                	add    %al,(%eax)
   35127:	00 75 00             	add    %dh,0x0(%ebp)
   3512a:	00 00                	add    %al,(%eax)
   3512c:	55                   	push   %ebp
   3512d:	00 00                	add    %al,(%eax)
   3512f:	00 00                	add    %al,(%eax)
   35131:	00 00                	add    %al,(%eax)
   35133:	00 69 00             	add    %ch,0x0(%ecx)
   35136:	00 00                	add    %al,(%eax)
   35138:	49                   	dec    %ecx
   35139:	00 00                	add    %al,(%eax)
   3513b:	00 00                	add    %al,(%eax)
   3513d:	00 00                	add    %al,(%eax)
   3513f:	00 6f 00             	add    %ch,0x0(%edi)
   35142:	00 00                	add    %al,(%eax)
   35144:	4f                   	dec    %edi
   35145:	00 00                	add    %al,(%eax)
   35147:	00 00                	add    %al,(%eax)
   35149:	00 00                	add    %al,(%eax)
   3514b:	00 70 00             	add    %dh,0x0(%eax)
   3514e:	00 00                	add    %al,(%eax)
   35150:	50                   	push   %eax
   35151:	00 00                	add    %al,(%eax)
   35153:	00 00                	add    %al,(%eax)
   35155:	00 00                	add    %al,(%eax)
   35157:	00 5b 00             	add    %bl,0x0(%ebx)
   3515a:	00 00                	add    %al,(%eax)
   3515c:	7b 00                	jnp    3515e <keymap+0x13e>
   3515e:	00 00                	add    %al,(%eax)
   35160:	00 00                	add    %al,(%eax)
   35162:	00 00                	add    %al,(%eax)
   35164:	5d                   	pop    %ebp
   35165:	00 00                	add    %al,(%eax)
   35167:	00 7d 00             	add    %bh,0x0(%ebp)
   3516a:	00 00                	add    %al,(%eax)
   3516c:	00 00                	add    %al,(%eax)
   3516e:	00 00                	add    %al,(%eax)
   35170:	03 01                	add    (%ecx),%eax
   35172:	00 00                	add    %al,(%eax)
   35174:	03 01                	add    (%ecx),%eax
   35176:	00 00                	add    %al,(%eax)
   35178:	30 01                	xor    %al,(%ecx)
   3517a:	00 00                	add    %al,(%eax)
   3517c:	0a 01                	or     (%ecx),%al
   3517e:	00 00                	add    %al,(%eax)
   35180:	0a 01                	or     (%ecx),%al
   35182:	00 00                	add    %al,(%eax)
   35184:	0b 01                	or     (%ecx),%eax
   35186:	00 00                	add    %al,(%eax)
   35188:	61                   	popa   
   35189:	00 00                	add    %al,(%eax)
   3518b:	00 41 00             	add    %al,0x0(%ecx)
   3518e:	00 00                	add    %al,(%eax)
   35190:	00 00                	add    %al,(%eax)
   35192:	00 00                	add    %al,(%eax)
   35194:	73 00                	jae    35196 <keymap+0x176>
   35196:	00 00                	add    %al,(%eax)
   35198:	53                   	push   %ebx
   35199:	00 00                	add    %al,(%eax)
   3519b:	00 00                	add    %al,(%eax)
   3519d:	00 00                	add    %al,(%eax)
   3519f:	00 64 00 00          	add    %ah,0x0(%eax,%eax,1)
   351a3:	00 44 00 00          	add    %al,0x0(%eax,%eax,1)
   351a7:	00 00                	add    %al,(%eax)
   351a9:	00 00                	add    %al,(%eax)
   351ab:	00 66 00             	add    %ah,0x0(%esi)
   351ae:	00 00                	add    %al,(%eax)
   351b0:	46                   	inc    %esi
   351b1:	00 00                	add    %al,(%eax)
   351b3:	00 00                	add    %al,(%eax)
   351b5:	00 00                	add    %al,(%eax)
   351b7:	00 67 00             	add    %ah,0x0(%edi)
   351ba:	00 00                	add    %al,(%eax)
   351bc:	47                   	inc    %edi
   351bd:	00 00                	add    %al,(%eax)
   351bf:	00 00                	add    %al,(%eax)
   351c1:	00 00                	add    %al,(%eax)
   351c3:	00 68 00             	add    %ch,0x0(%eax)
   351c6:	00 00                	add    %al,(%eax)
   351c8:	48                   	dec    %eax
   351c9:	00 00                	add    %al,(%eax)
   351cb:	00 00                	add    %al,(%eax)
   351cd:	00 00                	add    %al,(%eax)
   351cf:	00 6a 00             	add    %ch,0x0(%edx)
   351d2:	00 00                	add    %al,(%eax)
   351d4:	4a                   	dec    %edx
   351d5:	00 00                	add    %al,(%eax)
   351d7:	00 00                	add    %al,(%eax)
   351d9:	00 00                	add    %al,(%eax)
   351db:	00 6b 00             	add    %ch,0x0(%ebx)
   351de:	00 00                	add    %al,(%eax)
   351e0:	4b                   	dec    %ebx
   351e1:	00 00                	add    %al,(%eax)
   351e3:	00 00                	add    %al,(%eax)
   351e5:	00 00                	add    %al,(%eax)
   351e7:	00 6c 00 00          	add    %ch,0x0(%eax,%eax,1)
   351eb:	00 4c 00 00          	add    %cl,0x0(%eax,%eax,1)
   351ef:	00 00                	add    %al,(%eax)
   351f1:	00 00                	add    %al,(%eax)
   351f3:	00 3b                	add    %bh,(%ebx)
   351f5:	00 00                	add    %al,(%eax)
   351f7:	00 3a                	add    %bh,(%edx)
   351f9:	00 00                	add    %al,(%eax)
   351fb:	00 00                	add    %al,(%eax)
   351fd:	00 00                	add    %al,(%eax)
   351ff:	00 27                	add    %ah,(%edi)
   35201:	00 00                	add    %al,(%eax)
   35203:	00 22                	add    %ah,(%edx)
   35205:	00 00                	add    %al,(%eax)
   35207:	00 00                	add    %al,(%eax)
   35209:	00 00                	add    %al,(%eax)
   3520b:	00 60 00             	add    %ah,0x0(%eax)
   3520e:	00 00                	add    %al,(%eax)
   35210:	7e 00                	jle    35212 <keymap+0x1f2>
   35212:	00 00                	add    %al,(%eax)
   35214:	00 00                	add    %al,(%eax)
   35216:	00 00                	add    %al,(%eax)
   35218:	08 01                	or     %al,(%ecx)
   3521a:	00 00                	add    %al,(%eax)
   3521c:	08 01                	or     %al,(%ecx)
   3521e:	00 00                	add    %al,(%eax)
   35220:	00 00                	add    %al,(%eax)
   35222:	00 00                	add    %al,(%eax)
   35224:	5c                   	pop    %esp
   35225:	00 00                	add    %al,(%eax)
   35227:	00 7c 00 00          	add    %bh,0x0(%eax,%eax,1)
   3522b:	00 00                	add    %al,(%eax)
   3522d:	00 00                	add    %al,(%eax)
   3522f:	00 7a 00             	add    %bh,0x0(%edx)
   35232:	00 00                	add    %al,(%eax)
   35234:	5a                   	pop    %edx
   35235:	00 00                	add    %al,(%eax)
   35237:	00 00                	add    %al,(%eax)
   35239:	00 00                	add    %al,(%eax)
   3523b:	00 78 00             	add    %bh,0x0(%eax)
   3523e:	00 00                	add    %al,(%eax)
   35240:	58                   	pop    %eax
   35241:	00 00                	add    %al,(%eax)
   35243:	00 00                	add    %al,(%eax)
   35245:	00 00                	add    %al,(%eax)
   35247:	00 63 00             	add    %ah,0x0(%ebx)
   3524a:	00 00                	add    %al,(%eax)
   3524c:	43                   	inc    %ebx
   3524d:	00 00                	add    %al,(%eax)
   3524f:	00 00                	add    %al,(%eax)
   35251:	00 00                	add    %al,(%eax)
   35253:	00 76 00             	add    %dh,0x0(%esi)
   35256:	00 00                	add    %al,(%eax)
   35258:	56                   	push   %esi
   35259:	00 00                	add    %al,(%eax)
   3525b:	00 00                	add    %al,(%eax)
   3525d:	00 00                	add    %al,(%eax)
   3525f:	00 62 00             	add    %ah,0x0(%edx)
   35262:	00 00                	add    %al,(%eax)
   35264:	42                   	inc    %edx
   35265:	00 00                	add    %al,(%eax)
   35267:	00 00                	add    %al,(%eax)
   35269:	00 00                	add    %al,(%eax)
   3526b:	00 6e 00             	add    %ch,0x0(%esi)
   3526e:	00 00                	add    %al,(%eax)
   35270:	4e                   	dec    %esi
   35271:	00 00                	add    %al,(%eax)
   35273:	00 00                	add    %al,(%eax)
   35275:	00 00                	add    %al,(%eax)
   35277:	00 6d 00             	add    %ch,0x0(%ebp)
   3527a:	00 00                	add    %al,(%eax)
   3527c:	4d                   	dec    %ebp
   3527d:	00 00                	add    %al,(%eax)
   3527f:	00 00                	add    %al,(%eax)
   35281:	00 00                	add    %al,(%eax)
   35283:	00 2c 00             	add    %ch,(%eax,%eax,1)
   35286:	00 00                	add    %al,(%eax)
   35288:	3c 00                	cmp    $0x0,%al
   3528a:	00 00                	add    %al,(%eax)
   3528c:	00 00                	add    %al,(%eax)
   3528e:	00 00                	add    %al,(%eax)
   35290:	2e 00 00             	add    %al,%cs:(%eax)
   35293:	00 3e                	add    %bh,(%esi)
   35295:	00 00                	add    %al,(%eax)
   35297:	00 00                	add    %al,(%eax)
   35299:	00 00                	add    %al,(%eax)
   3529b:	00 2f                	add    %ch,(%edi)
   3529d:	00 00                	add    %al,(%eax)
   3529f:	00 3f                	add    %bh,(%edi)
   352a1:	00 00                	add    %al,(%eax)
   352a3:	00 2c 01             	add    %ch,(%ecx,%eax,1)
   352a6:	00 00                	add    %al,(%eax)
   352a8:	09 01                	or     %eax,(%ecx)
   352aa:	00 00                	add    %al,(%eax)
   352ac:	09 01                	or     %eax,(%ecx)
   352ae:	00 00                	add    %al,(%eax)
   352b0:	00 00                	add    %al,(%eax)
   352b2:	00 00                	add    %al,(%eax)
   352b4:	2a 00                	sub    (%eax),%al
   352b6:	00 00                	add    %al,(%eax)
   352b8:	2a 00                	sub    (%eax),%al
   352ba:	00 00                	add    %al,(%eax)
   352bc:	00 00                	add    %al,(%eax)
   352be:	00 00                	add    %al,(%eax)
   352c0:	0c 01                	or     $0x1,%al
   352c2:	00 00                	add    %al,(%eax)
   352c4:	0c 01                	or     $0x1,%al
   352c6:	00 00                	add    %al,(%eax)
   352c8:	0d 01 00 00 20       	or     $0x20000001,%eax
   352cd:	00 00                	add    %al,(%eax)
   352cf:	00 20                	add    %ah,(%eax)
   352d1:	00 00                	add    %al,(%eax)
   352d3:	00 00                	add    %al,(%eax)
   352d5:	00 00                	add    %al,(%eax)
   352d7:	00 0e                	add    %cl,(%esi)
   352d9:	01 00                	add    %eax,(%eax)
   352db:	00 0e                	add    %cl,(%esi)
   352dd:	01 00                	add    %eax,(%eax)
   352df:	00 00                	add    %al,(%eax)
   352e1:	00 00                	add    %al,(%eax)
   352e3:	00 11                	add    %dl,(%ecx)
   352e5:	01 00                	add    %eax,(%eax)
   352e7:	00 11                	add    %dl,(%ecx)
   352e9:	01 00                	add    %eax,(%eax)
   352eb:	00 00                	add    %al,(%eax)
   352ed:	00 00                	add    %al,(%eax)
   352ef:	00 12                	add    %dl,(%edx)
   352f1:	01 00                	add    %eax,(%eax)
   352f3:	00 12                	add    %dl,(%edx)
   352f5:	01 00                	add    %eax,(%eax)
   352f7:	00 00                	add    %al,(%eax)
   352f9:	00 00                	add    %al,(%eax)
   352fb:	00 13                	add    %dl,(%ebx)
   352fd:	01 00                	add    %eax,(%eax)
   352ff:	00 13                	add    %dl,(%ebx)
   35301:	01 00                	add    %eax,(%eax)
   35303:	00 00                	add    %al,(%eax)
   35305:	00 00                	add    %al,(%eax)
   35307:	00 14 01             	add    %dl,(%ecx,%eax,1)
   3530a:	00 00                	add    %al,(%eax)
   3530c:	14 01                	adc    $0x1,%al
   3530e:	00 00                	add    %al,(%eax)
   35310:	00 00                	add    %al,(%eax)
   35312:	00 00                	add    %al,(%eax)
   35314:	15 01 00 00 15       	adc    $0x15000001,%eax
   35319:	01 00                	add    %eax,(%eax)
   3531b:	00 00                	add    %al,(%eax)
   3531d:	00 00                	add    %al,(%eax)
   3531f:	00 16                	add    %dl,(%esi)
   35321:	01 00                	add    %eax,(%eax)
   35323:	00 16                	add    %dl,(%esi)
   35325:	01 00                	add    %eax,(%eax)
   35327:	00 00                	add    %al,(%eax)
   35329:	00 00                	add    %al,(%eax)
   3532b:	00 17                	add    %dl,(%edi)
   3532d:	01 00                	add    %eax,(%eax)
   3532f:	00 17                	add    %dl,(%edi)
   35331:	01 00                	add    %eax,(%eax)
   35333:	00 00                	add    %al,(%eax)
   35335:	00 00                	add    %al,(%eax)
   35337:	00 18                	add    %bl,(%eax)
   35339:	01 00                	add    %eax,(%eax)
   3533b:	00 18                	add    %bl,(%eax)
   3533d:	01 00                	add    %eax,(%eax)
   3533f:	00 00                	add    %al,(%eax)
   35341:	00 00                	add    %al,(%eax)
   35343:	00 19                	add    %bl,(%ecx)
   35345:	01 00                	add    %eax,(%eax)
   35347:	00 19                	add    %bl,(%ecx)
   35349:	01 00                	add    %eax,(%eax)
   3534b:	00 00                	add    %al,(%eax)
   3534d:	00 00                	add    %al,(%eax)
   3534f:	00 1a                	add    %bl,(%edx)
   35351:	01 00                	add    %eax,(%eax)
   35353:	00 1a                	add    %bl,(%edx)
   35355:	01 00                	add    %eax,(%eax)
   35357:	00 00                	add    %al,(%eax)
   35359:	00 00                	add    %al,(%eax)
   3535b:	00 0f                	add    %cl,(%edi)
   3535d:	01 00                	add    %eax,(%eax)
   3535f:	00 0f                	add    %cl,(%edi)
   35361:	01 00                	add    %eax,(%eax)
   35363:	00 00                	add    %al,(%eax)
   35365:	00 00                	add    %al,(%eax)
   35367:	00 10                	add    %dl,(%eax)
   35369:	01 00                	add    %eax,(%eax)
   3536b:	00 10                	add    %dl,(%eax)
   3536d:	01 00                	add    %eax,(%eax)
   3536f:	00 00                	add    %al,(%eax)
   35371:	00 00                	add    %al,(%eax)
   35373:	00 39                	add    %bh,(%ecx)
   35375:	01 00                	add    %eax,(%eax)
   35377:	00 37                	add    %dh,(%edi)
   35379:	00 00                	add    %al,(%eax)
   3537b:	00 21                	add    %ah,(%ecx)
   3537d:	01 00                	add    %eax,(%eax)
   3537f:	00 3a                	add    %bh,(%edx)
   35381:	01 00                	add    %eax,(%eax)
   35383:	00 38                	add    %bh,(%eax)
   35385:	00 00                	add    %al,(%eax)
   35387:	00 25 01 00 00 3b    	add    %ah,0x3b000001
   3538d:	01 00                	add    %eax,(%eax)
   3538f:	00 39                	add    %bh,(%ecx)
   35391:	00 00                	add    %al,(%eax)
   35393:	00 23                	add    %ah,(%ebx)
   35395:	01 00                	add    %eax,(%eax)
   35397:	00 2e                	add    %ch,(%esi)
   35399:	01 00                	add    %eax,(%eax)
   3539b:	00 2d 00 00 00 00    	add    %ch,0x0
   353a1:	00 00                	add    %al,(%eax)
   353a3:	00 36                	add    %dh,(%esi)
   353a5:	01 00                	add    %eax,(%eax)
   353a7:	00 34 00             	add    %dh,(%eax,%eax,1)
   353aa:	00 00                	add    %al,(%eax)
   353ac:	27                   	daa    
   353ad:	01 00                	add    %eax,(%eax)
   353af:	00 37                	add    %dh,(%edi)
   353b1:	01 00                	add    %eax,(%eax)
   353b3:	00 35 00 00 00 00    	add    %dh,0x0
   353b9:	00 00                	add    %al,(%eax)
   353bb:	00 38                	add    %bh,(%eax)
   353bd:	01 00                	add    %eax,(%eax)
   353bf:	00 36                	add    %dh,(%esi)
   353c1:	00 00                	add    %al,(%eax)
   353c3:	00 28                	add    %ch,(%eax)
   353c5:	01 00                	add    %eax,(%eax)
   353c7:	00 2f                	add    %ch,(%edi)
   353c9:	01 00                	add    %eax,(%eax)
   353cb:	00 2b                	add    %ch,(%ebx)
   353cd:	00 00                	add    %al,(%eax)
   353cf:	00 00                	add    %al,(%eax)
   353d1:	00 00                	add    %al,(%eax)
   353d3:	00 33                	add    %dh,(%ebx)
   353d5:	01 00                	add    %eax,(%eax)
   353d7:	00 31                	add    %dh,(%ecx)
   353d9:	00 00                	add    %al,(%eax)
   353db:	00 22                	add    %ah,(%edx)
   353dd:	01 00                	add    %eax,(%eax)
   353df:	00 34 01             	add    %dh,(%ecx,%eax,1)
   353e2:	00 00                	add    %al,(%eax)
   353e4:	32 00                	xor    (%eax),%al
   353e6:	00 00                	add    %al,(%eax)
   353e8:	26 01 00             	add    %eax,%es:(%eax)
   353eb:	00 35 01 00 00 33    	add    %dh,0x33000001
   353f1:	00 00                	add    %al,(%eax)
   353f3:	00 24 01             	add    %ah,(%ecx,%eax,1)
   353f6:	00 00                	add    %al,(%eax)
   353f8:	32 01                	xor    (%ecx),%al
   353fa:	00 00                	add    %al,(%eax)
   353fc:	30 00                	xor    %al,(%eax)
   353fe:	00 00                	add    %al,(%eax)
   35400:	1f                   	pop    %ds
   35401:	01 00                	add    %eax,(%eax)
   35403:	00 31                	add    %dh,(%ecx)
   35405:	01 00                	add    %eax,(%eax)
   35407:	00 2e                	add    %ch,(%esi)
   35409:	00 00                	add    %al,(%eax)
   3540b:	00 20                	add    %ah,(%eax)
   3540d:	01 00                	add    %eax,(%eax)
	...
   35433:	00 1b                	add    %bl,(%ebx)
   35435:	01 00                	add    %eax,(%eax)
   35437:	00 1b                	add    %bl,(%ebx)
   35439:	01 00                	add    %eax,(%eax)
   3543b:	00 00                	add    %al,(%eax)
   3543d:	00 00                	add    %al,(%eax)
   3543f:	00 1c 01             	add    %bl,(%ecx,%eax,1)
   35442:	00 00                	add    %al,(%eax)
   35444:	1c 01                	sbb    $0x1,%al
	...
   3546a:	00 00                	add    %al,(%eax)
   3546c:	05 01 00 00 00       	add    $0x1,%eax
   35471:	00 00                	add    %al,(%eax)
   35473:	00 00                	add    %al,(%eax)
   35475:	00 00                	add    %al,(%eax)
   35477:	00 06                	add    %al,(%esi)
   35479:	01 00                	add    %eax,(%eax)
	...
   35483:	00 07                	add    %al,(%edi)
   35485:	01 00                	add    %eax,(%eax)
	...
Disassembly of section .bss:

00035620 <StackSpace>:
	...

00037620 <StackTop>:
	...

00037820 <ready_p>:
   37820:	00 00                	add    %al,(%eax)
	...

00037824 <__DEBUG_Ipc>:
   37824:	00 00                	add    %al,(%eax)
	...

00037828 <__task_inc>:
   37828:	00 00                	add    %al,(%eax)
	...

0003782c <__userProcess_inc>:
   3782c:	00 00                	add    %al,(%eax)
	...

00037830 <__ldt_inc>:
   37830:	00 00                	add    %al,(%eax)
	...

00037834 <__DEBUG_ProcUtil>:
   37834:	00 00                	add    %al,(%eax)
	...

00037838 <clock_int_count>:
   37838:	00 00                	add    %al,(%eax)
	...

0003783c <in_sys_call>:
   3783c:	00 00                	add    %al,(%eax)
	...

00037840 <hdbuf>:
	...

00037c40 <tty_table>:
	...

00037c80 <kb_input>:
	...

00037cac <l_shift>:
   37cac:	00 00                	add    %al,(%eax)
	...

00037cb0 <r_shift>:
   37cb0:	00 00                	add    %al,(%eax)
	...

00037cb4 <l_ctrl>:
   37cb4:	00 00                	add    %al,(%eax)
	...

00037cb8 <r_ctrl>:
   37cb8:	00 00                	add    %al,(%eax)
	...

00037cbc <l_alt>:
   37cbc:	00 00                	add    %al,(%eax)
	...

00037cc0 <r_alt>:
	...

00037ce0 <idt_ptr>:
	...

00037ce8 <k_reenter>:
	...

00037d00 <gdt>:
	...

00038100 <__processID>:
	...

00038120 <tss>:
	...

000381a0 <sys_call_table>:
	...

000381e0 <gdt_ptr>:
	...

00038200 <idt>:
	...

00038a00 <ticks>:
	...

00038a20 <process_table>:
	...

0009f180 <MAX_CLOCK>:
   9f180:	00 00                	add    %al,(%eax)
	...

0009f184 <clock_times>:
   9f184:	00 00                	add    %al,(%eax)
	...

0009f188 <__currentTTY>:
   9f188:	00 00                	add    %al,(%eax)
	...
Disassembly of section .comment:

00000000 <.comment>:
   0:	00 54 68 65          	add    %dl,0x65(%eax,%ebp,2)
   4:	20 4e 65             	and    %cl,0x65(%esi)
   7:	74 77                	je     80 <DA_DPL3+0x20>
   9:	69 64 65 20 41 73 73 	imul   $0x65737341,0x20(%ebp),%esp
  10:	65 
  11:	6d                   	insl   (%dx),%es:(%edi)
  12:	62 6c 65 72          	bound  %ebp,0x72(%ebp)
  16:	20 32                	and    %dh,(%edx)
  18:	2e 30 34 00          	xor    %dh,%cs:(%eax,%eax,1)
  1c:	00 47 43             	add    %al,0x43(%edi)
  1f:	43                   	inc    %ebx
  20:	3a 20                	cmp    (%eax),%ah
  22:	28 47 4e             	sub    %al,0x4e(%edi)
  25:	55                   	push   %ebp
  26:	29 20                	sub    %esp,(%eax)
  28:	34 2e                	xor    $0x2e,%al
  2a:	31 2e                	xor    %ebp,(%esi)
  2c:	32 20                	xor    (%eax),%ah
  2e:	32 30                	xor    (%eax),%dh
  30:	30 38                	xor    %bh,(%eax)
  32:	30 37                	xor    %dh,(%edi)
  34:	30 34 20             	xor    %dh,(%eax)
  37:	28 52 65             	sub    %dl,0x65(%edx)
  3a:	64 20 48 61          	and    %cl,%fs:0x61(%eax)
  3e:	74 20                	je     60 <DA_DPL3>
  40:	34 2e                	xor    $0x2e,%al
  42:	31 2e                	xor    %ebp,(%esi)
  44:	32 2d 34 38 29 00    	xor    0x293834,%ch
  4a:	00 54 68 65          	add    %dl,0x65(%eax,%ebp,2)
  4e:	20 4e 65             	and    %cl,0x65(%esi)
  51:	74 77                	je     ca <DA_CCOR+0x2c>
  53:	69 64 65 20 41 73 73 	imul   $0x65737341,0x20(%ebp),%esp
  5a:	65 
  5b:	6d                   	insl   (%dx),%es:(%edi)
  5c:	62 6c 65 72          	bound  %ebp,0x72(%ebp)
  60:	20 32                	and    %dh,(%edx)
  62:	2e 30 34 00          	xor    %dh,%cs:(%eax,%eax,1)
  66:	00 47 43             	add    %al,0x43(%edi)
  69:	43                   	inc    %ebx
  6a:	3a 20                	cmp    (%eax),%ah
  6c:	28 47 4e             	sub    %al,0x4e(%edi)
  6f:	55                   	push   %ebp
  70:	29 20                	sub    %esp,(%eax)
  72:	34 2e                	xor    $0x2e,%al
  74:	31 2e                	xor    %ebp,(%esi)
  76:	32 20                	xor    (%eax),%ah
  78:	32 30                	xor    (%eax),%dh
  7a:	30 38                	xor    %bh,(%eax)
  7c:	30 37                	xor    %dh,(%edi)
  7e:	30 34 20             	xor    %dh,(%eax)
  81:	28 52 65             	sub    %dl,0x65(%edx)
  84:	64 20 48 61          	and    %cl,%fs:0x61(%eax)
  88:	74 20                	je     aa <DA_CCOR+0xc>
  8a:	34 2e                	xor    $0x2e,%al
  8c:	31 2e                	xor    %ebp,(%esi)
  8e:	32 2d 34 38 29 00    	xor    0x293834,%ch
  94:	00 47 43             	add    %al,0x43(%edi)
  97:	43                   	inc    %ebx
  98:	3a 20                	cmp    (%eax),%ah
  9a:	28 47 4e             	sub    %al,0x4e(%edi)
  9d:	55                   	push   %ebp
  9e:	29 20                	sub    %esp,(%eax)
  a0:	34 2e                	xor    $0x2e,%al
  a2:	31 2e                	xor    %ebp,(%esi)
  a4:	32 20                	xor    (%eax),%ah
  a6:	32 30                	xor    (%eax),%dh
  a8:	30 38                	xor    %bh,(%eax)
  aa:	30 37                	xor    %dh,(%edi)
  ac:	30 34 20             	xor    %dh,(%eax)
  af:	28 52 65             	sub    %dl,0x65(%edx)
  b2:	64 20 48 61          	and    %cl,%fs:0x61(%eax)
  b6:	74 20                	je     d8 <DA_CCOR+0x3a>
  b8:	34 2e                	xor    $0x2e,%al
  ba:	31 2e                	xor    %ebp,(%esi)
  bc:	32 2d 34 38 29 00    	xor    0x293834,%ch
  c2:	00 47 43             	add    %al,0x43(%edi)
  c5:	43                   	inc    %ebx
  c6:	3a 20                	cmp    (%eax),%ah
  c8:	28 47 4e             	sub    %al,0x4e(%edi)
  cb:	55                   	push   %ebp
  cc:	29 20                	sub    %esp,(%eax)
  ce:	34 2e                	xor    $0x2e,%al
  d0:	31 2e                	xor    %ebp,(%esi)
  d2:	32 20                	xor    (%eax),%ah
  d4:	32 30                	xor    (%eax),%dh
  d6:	30 38                	xor    %bh,(%eax)
  d8:	30 37                	xor    %dh,(%edi)
  da:	30 34 20             	xor    %dh,(%eax)
  dd:	28 52 65             	sub    %dl,0x65(%edx)
  e0:	64 20 48 61          	and    %cl,%fs:0x61(%eax)
  e4:	74 20                	je     106 <DA_CCOR+0x68>
  e6:	34 2e                	xor    $0x2e,%al
  e8:	31 2e                	xor    %ebp,(%esi)
  ea:	32 2d 34 38 29 00    	xor    0x293834,%ch
  f0:	00 47 43             	add    %al,0x43(%edi)
  f3:	43                   	inc    %ebx
  f4:	3a 20                	cmp    (%eax),%ah
  f6:	28 47 4e             	sub    %al,0x4e(%edi)
  f9:	55                   	push   %ebp
  fa:	29 20                	sub    %esp,(%eax)
  fc:	34 2e                	xor    $0x2e,%al
  fe:	31 2e                	xor    %ebp,(%esi)
 100:	32 20                	xor    (%eax),%ah
 102:	32 30                	xor    (%eax),%dh
 104:	30 38                	xor    %bh,(%eax)
 106:	30 37                	xor    %dh,(%edi)
 108:	30 34 20             	xor    %dh,(%eax)
 10b:	28 52 65             	sub    %dl,0x65(%edx)
 10e:	64 20 48 61          	and    %cl,%fs:0x61(%eax)
 112:	74 20                	je     134 <DA_CCOR+0x96>
 114:	34 2e                	xor    $0x2e,%al
 116:	31 2e                	xor    %ebp,(%esi)
 118:	32 2d 34 38 29 00    	xor    0x293834,%ch
 11e:	00 54 68 65          	add    %dl,0x65(%eax,%ebp,2)
 122:	20 4e 65             	and    %cl,0x65(%esi)
 125:	74 77                	je     19e <DA_CCOR+0x100>
 127:	69 64 65 20 41 73 73 	imul   $0x65737341,0x20(%ebp),%esp
 12e:	65 
 12f:	6d                   	insl   (%dx),%es:(%edi)
 130:	62 6c 65 72          	bound  %ebp,0x72(%ebp)
 134:	20 32                	and    %dh,(%edx)
 136:	2e 30 34 00          	xor    %dh,%cs:(%eax,%eax,1)
 13a:	00 54 68 65          	add    %dl,0x65(%eax,%ebp,2)
 13e:	20 4e 65             	and    %cl,0x65(%esi)
 141:	74 77                	je     1ba <DA_CCOR+0x11c>
 143:	69 64 65 20 41 73 73 	imul   $0x65737341,0x20(%ebp),%esp
 14a:	65 
 14b:	6d                   	insl   (%dx),%es:(%edi)
 14c:	62 6c 65 72          	bound  %ebp,0x72(%ebp)
 150:	20 32                	and    %dh,(%edx)
 152:	2e 30 34 00          	xor    %dh,%cs:(%eax,%eax,1)
 156:	00 47 43             	add    %al,0x43(%edi)
 159:	43                   	inc    %ebx
 15a:	3a 20                	cmp    (%eax),%ah
 15c:	28 47 4e             	sub    %al,0x4e(%edi)
 15f:	55                   	push   %ebp
 160:	29 20                	sub    %esp,(%eax)
 162:	34 2e                	xor    $0x2e,%al
 164:	31 2e                	xor    %ebp,(%esi)
 166:	32 20                	xor    (%eax),%ah
 168:	32 30                	xor    (%eax),%dh
 16a:	30 38                	xor    %bh,(%eax)
 16c:	30 37                	xor    %dh,(%edi)
 16e:	30 34 20             	xor    %dh,(%eax)
 171:	28 52 65             	sub    %dl,0x65(%edx)
 174:	64 20 48 61          	and    %cl,%fs:0x61(%eax)
 178:	74 20                	je     19a <DA_CCOR+0xfc>
 17a:	34 2e                	xor    $0x2e,%al
 17c:	31 2e                	xor    %ebp,(%esi)
 17e:	32 2d 34 38 29 00    	xor    0x293834,%ch
 184:	00 47 43             	add    %al,0x43(%edi)
 187:	43                   	inc    %ebx
 188:	3a 20                	cmp    (%eax),%ah
 18a:	28 47 4e             	sub    %al,0x4e(%edi)
 18d:	55                   	push   %ebp
 18e:	29 20                	sub    %esp,(%eax)
 190:	34 2e                	xor    $0x2e,%al
 192:	31 2e                	xor    %ebp,(%esi)
 194:	32 20                	xor    (%eax),%ah
 196:	32 30                	xor    (%eax),%dh
 198:	30 38                	xor    %bh,(%eax)
 19a:	30 37                	xor    %dh,(%edi)
 19c:	30 34 20             	xor    %dh,(%eax)
 19f:	28 52 65             	sub    %dl,0x65(%edx)
 1a2:	64 20 48 61          	and    %cl,%fs:0x61(%eax)
 1a6:	74 20                	je     1c8 <DA_CCOR+0x12a>
 1a8:	34 2e                	xor    $0x2e,%al
 1aa:	31 2e                	xor    %ebp,(%esi)
 1ac:	32 2d 34 38 29 00    	xor    0x293834,%ch
 1b2:	00 47 43             	add    %al,0x43(%edi)
 1b5:	43                   	inc    %ebx
 1b6:	3a 20                	cmp    (%eax),%ah
 1b8:	28 47 4e             	sub    %al,0x4e(%edi)
 1bb:	55                   	push   %ebp
 1bc:	29 20                	sub    %esp,(%eax)
 1be:	34 2e                	xor    $0x2e,%al
 1c0:	31 2e                	xor    %ebp,(%esi)
 1c2:	32 20                	xor    (%eax),%ah
 1c4:	32 30                	xor    (%eax),%dh
 1c6:	30 38                	xor    %bh,(%eax)
 1c8:	30 37                	xor    %dh,(%edi)
 1ca:	30 34 20             	xor    %dh,(%eax)
 1cd:	28 52 65             	sub    %dl,0x65(%edx)
 1d0:	64 20 48 61          	and    %cl,%fs:0x61(%eax)
 1d4:	74 20                	je     1f6 <DA_CCOR+0x158>
 1d6:	34 2e                	xor    $0x2e,%al
 1d8:	31 2e                	xor    %ebp,(%esi)
 1da:	32 2d 34 38 29 00    	xor    0x293834,%ch
 1e0:	00 47 43             	add    %al,0x43(%edi)
 1e3:	43                   	inc    %ebx
 1e4:	3a 20                	cmp    (%eax),%ah
 1e6:	28 47 4e             	sub    %al,0x4e(%edi)
 1e9:	55                   	push   %ebp
 1ea:	29 20                	sub    %esp,(%eax)
 1ec:	34 2e                	xor    $0x2e,%al
 1ee:	31 2e                	xor    %ebp,(%esi)
 1f0:	32 20                	xor    (%eax),%ah
 1f2:	32 30                	xor    (%eax),%dh
 1f4:	30 38                	xor    %bh,(%eax)
 1f6:	30 37                	xor    %dh,(%edi)
 1f8:	30 34 20             	xor    %dh,(%eax)
 1fb:	28 52 65             	sub    %dl,0x65(%edx)
 1fe:	64 20 48 61          	and    %cl,%fs:0x61(%eax)
 202:	74 20                	je     224 <DA_CCOR+0x186>
 204:	34 2e                	xor    $0x2e,%al
 206:	31 2e                	xor    %ebp,(%esi)
 208:	32 2d 34 38 29 00    	xor    0x293834,%ch
 20e:	00 47 43             	add    %al,0x43(%edi)
 211:	43                   	inc    %ebx
 212:	3a 20                	cmp    (%eax),%ah
 214:	28 47 4e             	sub    %al,0x4e(%edi)
 217:	55                   	push   %ebp
 218:	29 20                	sub    %esp,(%eax)
 21a:	34 2e                	xor    $0x2e,%al
 21c:	31 2e                	xor    %ebp,(%esi)
 21e:	32 20                	xor    (%eax),%ah
 220:	32 30                	xor    (%eax),%dh
 222:	30 38                	xor    %bh,(%eax)
 224:	30 37                	xor    %dh,(%edi)
 226:	30 34 20             	xor    %dh,(%eax)
 229:	28 52 65             	sub    %dl,0x65(%edx)
 22c:	64 20 48 61          	and    %cl,%fs:0x61(%eax)
 230:	74 20                	je     252 <DA_CCOR+0x1b4>
 232:	34 2e                	xor    $0x2e,%al
 234:	31 2e                	xor    %ebp,(%esi)
 236:	32 2d 34 38 29 00    	xor    0x293834,%ch
 23c:	00 47 43             	add    %al,0x43(%edi)
 23f:	43                   	inc    %ebx
 240:	3a 20                	cmp    (%eax),%ah
 242:	28 47 4e             	sub    %al,0x4e(%edi)
 245:	55                   	push   %ebp
 246:	29 20                	sub    %esp,(%eax)
 248:	34 2e                	xor    $0x2e,%al
 24a:	31 2e                	xor    %ebp,(%esi)
 24c:	32 20                	xor    (%eax),%ah
 24e:	32 30                	xor    (%eax),%dh
 250:	30 38                	xor    %bh,(%eax)
 252:	30 37                	xor    %dh,(%edi)
 254:	30 34 20             	xor    %dh,(%eax)
 257:	28 52 65             	sub    %dl,0x65(%edx)
 25a:	64 20 48 61          	and    %cl,%fs:0x61(%eax)
 25e:	74 20                	je     280 <DA_CCOR+0x1e2>
 260:	34 2e                	xor    $0x2e,%al
 262:	31 2e                	xor    %ebp,(%esi)
 264:	32 2d 34 38 29 00    	xor    0x293834,%ch
 26a:	00 54 68 65          	add    %dl,0x65(%eax,%ebp,2)
 26e:	20 4e 65             	and    %cl,0x65(%esi)
 271:	74 77                	je     2ea <DA_CCOR+0x24c>
 273:	69 64 65 20 41 73 73 	imul   $0x65737341,0x20(%ebp),%esp
 27a:	65 
 27b:	6d                   	insl   (%dx),%es:(%edi)
 27c:	62 6c 65 72          	bound  %ebp,0x72(%ebp)
 280:	20 32                	and    %dh,(%edx)
 282:	2e 30 34 00          	xor    %dh,%cs:(%eax,%eax,1)
 286:	00 47 43             	add    %al,0x43(%edi)
 289:	43                   	inc    %ebx
 28a:	3a 20                	cmp    (%eax),%ah
 28c:	28 47 4e             	sub    %al,0x4e(%edi)
 28f:	55                   	push   %ebp
 290:	29 20                	sub    %esp,(%eax)
 292:	34 2e                	xor    $0x2e,%al
 294:	31 2e                	xor    %ebp,(%esi)
 296:	32 20                	xor    (%eax),%ah
 298:	32 30                	xor    (%eax),%dh
 29a:	30 38                	xor    %bh,(%eax)
 29c:	30 37                	xor    %dh,(%edi)
 29e:	30 34 20             	xor    %dh,(%eax)
 2a1:	28 52 65             	sub    %dl,0x65(%edx)
 2a4:	64 20 48 61          	and    %cl,%fs:0x61(%eax)
 2a8:	74 20                	je     2ca <DA_CCOR+0x22c>
 2aa:	34 2e                	xor    $0x2e,%al
 2ac:	31 2e                	xor    %ebp,(%esi)
 2ae:	32 2d 34 38 29 00    	xor    0x293834,%ch
 2b4:	00 47 43             	add    %al,0x43(%edi)
 2b7:	43                   	inc    %ebx
 2b8:	3a 20                	cmp    (%eax),%ah
 2ba:	28 47 4e             	sub    %al,0x4e(%edi)
 2bd:	55                   	push   %ebp
 2be:	29 20                	sub    %esp,(%eax)
 2c0:	34 2e                	xor    $0x2e,%al
 2c2:	31 2e                	xor    %ebp,(%esi)
 2c4:	32 20                	xor    (%eax),%ah
 2c6:	32 30                	xor    (%eax),%dh
 2c8:	30 38                	xor    %bh,(%eax)
 2ca:	30 37                	xor    %dh,(%edi)
 2cc:	30 34 20             	xor    %dh,(%eax)
 2cf:	28 52 65             	sub    %dl,0x65(%edx)
 2d2:	64 20 48 61          	and    %cl,%fs:0x61(%eax)
 2d6:	74 20                	je     2f8 <DA_CCOR+0x25a>
 2d8:	34 2e                	xor    $0x2e,%al
 2da:	31 2e                	xor    %ebp,(%esi)
 2dc:	32 2d 34 38 29 00    	xor    0x293834,%ch
 2e2:	00 54 68 65          	add    %dl,0x65(%eax,%ebp,2)
 2e6:	20 4e 65             	and    %cl,0x65(%esi)
 2e9:	74 77                	je     362 <DA_CCOR+0x2c4>
 2eb:	69 64 65 20 41 73 73 	imul   $0x65737341,0x20(%ebp),%esp
 2f2:	65 
 2f3:	6d                   	insl   (%dx),%es:(%edi)
 2f4:	62 6c 65 72          	bound  %ebp,0x72(%ebp)
 2f8:	20 32                	and    %dh,(%edx)
 2fa:	2e 30 34 00          	xor    %dh,%cs:(%eax,%eax,1)
 2fe:	00 47 43             	add    %al,0x43(%edi)
 301:	43                   	inc    %ebx
 302:	3a 20                	cmp    (%eax),%ah
 304:	28 47 4e             	sub    %al,0x4e(%edi)
 307:	55                   	push   %ebp
 308:	29 20                	sub    %esp,(%eax)
 30a:	34 2e                	xor    $0x2e,%al
 30c:	31 2e                	xor    %ebp,(%esi)
 30e:	32 20                	xor    (%eax),%ah
 310:	32 30                	xor    (%eax),%dh
 312:	30 38                	xor    %bh,(%eax)
 314:	30 37                	xor    %dh,(%edi)
 316:	30 34 20             	xor    %dh,(%eax)
 319:	28 52 65             	sub    %dl,0x65(%edx)
 31c:	64 20 48 61          	and    %cl,%fs:0x61(%eax)
 320:	74 20                	je     342 <DA_CCOR+0x2a4>
 322:	34 2e                	xor    $0x2e,%al
 324:	31 2e                	xor    %ebp,(%esi)
 326:	32 2d 34 38 29 00    	xor    0x293834,%ch
 32c:	00 47 43             	add    %al,0x43(%edi)
 32f:	43                   	inc    %ebx
 330:	3a 20                	cmp    (%eax),%ah
 332:	28 47 4e             	sub    %al,0x4e(%edi)
 335:	55                   	push   %ebp
 336:	29 20                	sub    %esp,(%eax)
 338:	34 2e                	xor    $0x2e,%al
 33a:	31 2e                	xor    %ebp,(%esi)
 33c:	32 20                	xor    (%eax),%ah
 33e:	32 30                	xor    (%eax),%dh
 340:	30 38                	xor    %bh,(%eax)
 342:	30 37                	xor    %dh,(%edi)
 344:	30 34 20             	xor    %dh,(%eax)
 347:	28 52 65             	sub    %dl,0x65(%edx)
 34a:	64 20 48 61          	and    %cl,%fs:0x61(%eax)
 34e:	74 20                	je     370 <DA_CCOR+0x2d2>
 350:	34 2e                	xor    $0x2e,%al
 352:	31 2e                	xor    %ebp,(%esi)
 354:	32 2d 34 38 29 00    	xor    0x293834,%ch
 35a:	00 47 43             	add    %al,0x43(%edi)
 35d:	43                   	inc    %ebx
 35e:	3a 20                	cmp    (%eax),%ah
 360:	28 47 4e             	sub    %al,0x4e(%edi)
 363:	55                   	push   %ebp
 364:	29 20                	sub    %esp,(%eax)
 366:	34 2e                	xor    $0x2e,%al
 368:	31 2e                	xor    %ebp,(%esi)
 36a:	32 20                	xor    (%eax),%ah
 36c:	32 30                	xor    (%eax),%dh
 36e:	30 38                	xor    %bh,(%eax)
 370:	30 37                	xor    %dh,(%edi)
 372:	30 34 20             	xor    %dh,(%eax)
 375:	28 52 65             	sub    %dl,0x65(%edx)
 378:	64 20 48 61          	and    %cl,%fs:0x61(%eax)
 37c:	74 20                	je     39e <DA_CCOR+0x300>
 37e:	34 2e                	xor    $0x2e,%al
 380:	31 2e                	xor    %ebp,(%esi)
 382:	32 2d 34 38 29 00    	xor    0x293834,%ch
 388:	00 47 43             	add    %al,0x43(%edi)
 38b:	43                   	inc    %ebx
 38c:	3a 20                	cmp    (%eax),%ah
 38e:	28 47 4e             	sub    %al,0x4e(%edi)
 391:	55                   	push   %ebp
 392:	29 20                	sub    %esp,(%eax)
 394:	34 2e                	xor    $0x2e,%al
 396:	31 2e                	xor    %ebp,(%esi)
 398:	32 20                	xor    (%eax),%ah
 39a:	32 30                	xor    (%eax),%dh
 39c:	30 38                	xor    %bh,(%eax)
 39e:	30 37                	xor    %dh,(%edi)
 3a0:	30 34 20             	xor    %dh,(%eax)
 3a3:	28 52 65             	sub    %dl,0x65(%edx)
 3a6:	64 20 48 61          	and    %cl,%fs:0x61(%eax)
 3aa:	74 20                	je     3cc <DA_CCOR+0x32e>
 3ac:	34 2e                	xor    $0x2e,%al
 3ae:	31 2e                	xor    %ebp,(%esi)
 3b0:	32 2d 34 38 29 00    	xor    0x293834,%ch
 3b6:	00 47 43             	add    %al,0x43(%edi)
 3b9:	43                   	inc    %ebx
 3ba:	3a 20                	cmp    (%eax),%ah
 3bc:	28 47 4e             	sub    %al,0x4e(%edi)
 3bf:	55                   	push   %ebp
 3c0:	29 20                	sub    %esp,(%eax)
 3c2:	34 2e                	xor    $0x2e,%al
 3c4:	31 2e                	xor    %ebp,(%esi)
 3c6:	32 20                	xor    (%eax),%ah
 3c8:	32 30                	xor    (%eax),%dh
 3ca:	30 38                	xor    %bh,(%eax)
 3cc:	30 37                	xor    %dh,(%edi)
 3ce:	30 34 20             	xor    %dh,(%eax)
 3d1:	28 52 65             	sub    %dl,0x65(%edx)
 3d4:	64 20 48 61          	and    %cl,%fs:0x61(%eax)
 3d8:	74 20                	je     3fa <P1_STACK_SIZE+0x12>
 3da:	34 2e                	xor    $0x2e,%al
 3dc:	31 2e                	xor    %ebp,(%esi)
 3de:	32 2d 34 38 29 00    	xor    0x293834,%ch
 3e4:	00 47 43             	add    %al,0x43(%edi)
 3e7:	43                   	inc    %ebx
 3e8:	3a 20                	cmp    (%eax),%ah
 3ea:	28 47 4e             	sub    %al,0x4e(%edi)
 3ed:	55                   	push   %ebp
 3ee:	29 20                	sub    %esp,(%eax)
 3f0:	34 2e                	xor    $0x2e,%al
 3f2:	31 2e                	xor    %ebp,(%esi)
 3f4:	32 20                	xor    (%eax),%ah
 3f6:	32 30                	xor    (%eax),%dh
 3f8:	30 38                	xor    %bh,(%eax)
 3fa:	30 37                	xor    %dh,(%edi)
 3fc:	30 34 20             	xor    %dh,(%eax)
 3ff:	28 52 65             	sub    %dl,0x65(%edx)
 402:	64 20 48 61          	and    %cl,%fs:0x61(%eax)
 406:	74 20                	je     428 <P1_STACK_SIZE+0x40>
 408:	34 2e                	xor    $0x2e,%al
 40a:	31 2e                	xor    %ebp,(%esi)
 40c:	32 2d 34 38 29 00    	xor    0x293834,%ch
 412:	00 47 43             	add    %al,0x43(%edi)
 415:	43                   	inc    %ebx
 416:	3a 20                	cmp    (%eax),%ah
 418:	28 47 4e             	sub    %al,0x4e(%edi)
 41b:	55                   	push   %ebp
 41c:	29 20                	sub    %esp,(%eax)
 41e:	34 2e                	xor    $0x2e,%al
 420:	31 2e                	xor    %ebp,(%esi)
 422:	32 20                	xor    (%eax),%ah
 424:	32 30                	xor    (%eax),%dh
 426:	30 38                	xor    %bh,(%eax)
 428:	30 37                	xor    %dh,(%edi)
 42a:	30 34 20             	xor    %dh,(%eax)
 42d:	28 52 65             	sub    %dl,0x65(%edx)
 430:	64 20 48 61          	and    %cl,%fs:0x61(%eax)
 434:	74 20                	je     456 <P1_STACK_SIZE+0x6e>
 436:	34 2e                	xor    $0x2e,%al
 438:	31 2e                	xor    %ebp,(%esi)
 43a:	32 2d 34 38 29 00    	xor    0x293834,%ch
 440:	00 47 43             	add    %al,0x43(%edi)
 443:	43                   	inc    %ebx
 444:	3a 20                	cmp    (%eax),%ah
 446:	28 47 4e             	sub    %al,0x4e(%edi)
 449:	55                   	push   %ebp
 44a:	29 20                	sub    %esp,(%eax)
 44c:	34 2e                	xor    $0x2e,%al
 44e:	31 2e                	xor    %ebp,(%esi)
 450:	32 20                	xor    (%eax),%ah
 452:	32 30                	xor    (%eax),%dh
 454:	30 38                	xor    %bh,(%eax)
 456:	30 37                	xor    %dh,(%edi)
 458:	30 34 20             	xor    %dh,(%eax)
 45b:	28 52 65             	sub    %dl,0x65(%edx)
 45e:	64 20 48 61          	and    %cl,%fs:0x61(%eax)
 462:	74 20                	je     484 <P1_STACK_SIZE+0x9c>
 464:	34 2e                	xor    $0x2e,%al
 466:	31 2e                	xor    %ebp,(%esi)
 468:	32 2d 34 38 29 00    	xor    0x293834,%ch
 46e:	00 47 43             	add    %al,0x43(%edi)
 471:	43                   	inc    %ebx
 472:	3a 20                	cmp    (%eax),%ah
 474:	28 47 4e             	sub    %al,0x4e(%edi)
 477:	55                   	push   %ebp
 478:	29 20                	sub    %esp,(%eax)
 47a:	34 2e                	xor    $0x2e,%al
 47c:	31 2e                	xor    %ebp,(%esi)
 47e:	32 20                	xor    (%eax),%ah
 480:	32 30                	xor    (%eax),%dh
 482:	30 38                	xor    %bh,(%eax)
 484:	30 37                	xor    %dh,(%edi)
 486:	30 34 20             	xor    %dh,(%eax)
 489:	28 52 65             	sub    %dl,0x65(%edx)
 48c:	64 20 48 61          	and    %cl,%fs:0x61(%eax)
 490:	74 20                	je     4b2 <P1_STACK_SIZE+0xca>
 492:	34 2e                	xor    $0x2e,%al
 494:	31 2e                	xor    %ebp,(%esi)
 496:	32 2d 34 38 29 00    	xor    0x293834,%ch
 49c:	00 47 43             	add    %al,0x43(%edi)
 49f:	43                   	inc    %ebx
 4a0:	3a 20                	cmp    (%eax),%ah
 4a2:	28 47 4e             	sub    %al,0x4e(%edi)
 4a5:	55                   	push   %ebp
 4a6:	29 20                	sub    %esp,(%eax)
 4a8:	34 2e                	xor    $0x2e,%al
 4aa:	31 2e                	xor    %ebp,(%esi)
 4ac:	32 20                	xor    (%eax),%ah
 4ae:	32 30                	xor    (%eax),%dh
 4b0:	30 38                	xor    %bh,(%eax)
 4b2:	30 37                	xor    %dh,(%edi)
 4b4:	30 34 20             	xor    %dh,(%eax)
 4b7:	28 52 65             	sub    %dl,0x65(%edx)
 4ba:	64 20 48 61          	and    %cl,%fs:0x61(%eax)
 4be:	74 20                	je     4e0 <P1_STACK_SIZE+0xf8>
 4c0:	34 2e                	xor    $0x2e,%al
 4c2:	31 2e                	xor    %ebp,(%esi)
 4c4:	32 2d 34 38 29 00    	xor    0x293834,%ch
 4ca:	00 47 43             	add    %al,0x43(%edi)
 4cd:	43                   	inc    %ebx
 4ce:	3a 20                	cmp    (%eax),%ah
 4d0:	28 47 4e             	sub    %al,0x4e(%edi)
 4d3:	55                   	push   %ebp
 4d4:	29 20                	sub    %esp,(%eax)
 4d6:	34 2e                	xor    $0x2e,%al
 4d8:	31 2e                	xor    %ebp,(%esi)
 4da:	32 20                	xor    (%eax),%ah
 4dc:	32 30                	xor    (%eax),%dh
 4de:	30 38                	xor    %bh,(%eax)
 4e0:	30 37                	xor    %dh,(%edi)
 4e2:	30 34 20             	xor    %dh,(%eax)
 4e5:	28 52 65             	sub    %dl,0x65(%edx)
 4e8:	64 20 48 61          	and    %cl,%fs:0x61(%eax)
 4ec:	74 20                	je     50e <P1_STACK_SIZE+0x126>
 4ee:	34 2e                	xor    $0x2e,%al
 4f0:	31 2e                	xor    %ebp,(%esi)
 4f2:	32 2d 34 38 29 00    	xor    0x293834,%ch
 4f8:	00 47 43             	add    %al,0x43(%edi)
 4fb:	43                   	inc    %ebx
 4fc:	3a 20                	cmp    (%eax),%ah
 4fe:	28 47 4e             	sub    %al,0x4e(%edi)
 501:	55                   	push   %ebp
 502:	29 20                	sub    %esp,(%eax)
 504:	34 2e                	xor    $0x2e,%al
 506:	31 2e                	xor    %ebp,(%esi)
 508:	32 20                	xor    (%eax),%ah
 50a:	32 30                	xor    (%eax),%dh
 50c:	30 38                	xor    %bh,(%eax)
 50e:	30 37                	xor    %dh,(%edi)
 510:	30 34 20             	xor    %dh,(%eax)
 513:	28 52 65             	sub    %dl,0x65(%edx)
 516:	64 20 48 61          	and    %cl,%fs:0x61(%eax)
 51a:	74 20                	je     53c <P1_STACK_SIZE+0x154>
 51c:	34 2e                	xor    $0x2e,%al
 51e:	31 2e                	xor    %ebp,(%esi)
 520:	32 2d 34 38 29 00    	xor    0x293834,%ch
