
kernel/kernel.bin:     file format elf32-i386

Disassembly of section .text:

00030500 <_start>:
   30500:	bc 20 76 03 00       	mov    $0x37620,%esp
   30505:	0f 01 05 e0 81 03 00 	sgdtl  0x381e0
   3050c:	e8 ab 1d 00 00       	call   322bc <init_Gdt_Idt>
   30511:	0f 01 15 e0 81 03 00 	lgdtl  0x381e0
   30518:	0f 01 1d e0 7c 03 00 	lidtl  0x37ce0
   3051f:	ea 26 05 03 00 08 00 	ljmp   $0x8,$0x30526

00030526 <csinit>:
   30526:	e8 91 1e 00 00       	call   323bc <sys_init>
   3052b:	66 b8 20 00          	mov    $0x20,%ax
   3052f:	0f 00 d8             	ltr    %ax
   30532:	31 c0                	xor    %eax,%eax
   30534:	66 8c d0             	movw   %ss,%ax
   30537:	a3 28 81 03 00       	mov    %eax,0x38128
   3053c:	c7 05 00 81 03 00 15 	movl   $0x15,0x38100
   30543:	00 00 00 
   30546:	ff 35 00 81 03 00    	pushl  0x38100
   3054c:	e8 7b 00 00 00       	call   305cc <setTssEspReady>
   30551:	81 c4 04 00 00 00    	add    $0x4,%esp
   30557:	66 b8 43 00          	mov    $0x43,%ax
   3055b:	0f 00 d0             	lldt   %ax
   3055e:	c7 05 84 f1 09 00 00 	movl   $0x0,0x9f184
   30565:	00 00 00 
   30568:	b6 0f                	mov    $0xf,%dh
   3056a:	b2 41                	mov    $0x41,%dl
   3056c:	65 66 89 15 1a 02 00 	mov    %dx,%gs:0x21a
   30573:	00 
   30574:	65 66 89 15 1c 02 00 	mov    %dx,%gs:0x21c
   3057b:	00 
   3057c:	65 66 89 15 1e 02 00 	mov    %dx,%gs:0x21e
   30583:	00 
   30584:	65 66 89 15 20 02 00 	mov    %dx,%gs:0x220
   3058b:	00 
   3058c:	65 66 89 15 26 02 00 	mov    %dx,%gs:0x226
   30593:	00 
   30594:	c7 05 e8 7c 03 00 00 	movl   $0x0,0x37ce8
   3059b:	00 00 00 
   3059e:	b8 0f 00 00 00       	mov    $0xf,%eax
   305a3:	50                   	push   %eax
   305a4:	b8 e7 03 00 00       	mov    $0x3e7,%eax
   305a9:	50                   	push   %eax
   305aa:	b8 07 00 00 00       	mov    $0x7,%eax
   305af:	50                   	push   %eax
   305b0:	b8 90 41 03 00       	mov    $0x34190,%eax
   305b5:	50                   	push   %eax
   305b6:	66 b8 1f 00          	mov    $0x1f,%ax
   305ba:	8e d8                	movl   %eax,%ds
   305bc:	66 b8 17 00          	mov    $0x17,%ax
   305c0:	8e c0                	movl   %eax,%es
   305c2:	fb                   	sti    
   305c3:	cb                   	lret   
   305c4:	e9 fb ff ff ff       	jmp    305c4 <csinit+0x9e>
   305c9:	90                   	nop    
   305ca:	90                   	nop    
   305cb:	90                   	nop    

000305cc <setTssEspReady>:
   305cc:	55                   	push   %ebp
   305cd:	89 e5                	mov    %esp,%ebp
   305cf:	8b 45 08             	mov    0x8(%ebp),%eax
   305d2:	69 d0 fc 28 00 00    	imul   $0x28fc,%eax,%edx
   305d8:	a1 e8 49 03 00       	mov    0x349e8,%eax
   305dd:	01 c2                	add    %eax,%edx
   305df:	b8 20 8a 03 00       	mov    $0x38a20,%eax
   305e4:	2d fc 28 00 00       	sub    $0x28fc,%eax
   305e9:	8d 04 02             	lea    (%edx,%eax,1),%eax
   305ec:	a3 24 81 03 00       	mov    %eax,0x38124
   305f1:	5d                   	pop    %ebp
   305f2:	c3                   	ret    

000305f3 <getProRegTop>:
   305f3:	55                   	push   %ebp
   305f4:	89 e5                	mov    %esp,%ebp
   305f6:	8b 45 08             	mov    0x8(%ebp),%eax
   305f9:	69 d0 fc 28 00 00    	imul   $0x28fc,%eax,%edx
   305ff:	a1 ec 49 03 00       	mov    0x349ec,%eax
   30604:	01 c2                	add    %eax,%edx
   30606:	b8 20 8a 03 00       	mov    $0x38a20,%eax
   3060b:	2d fc 28 00 00       	sub    $0x28fc,%eax
   30610:	8d 04 02             	lea    (%edx,%eax,1),%eax
   30613:	a3 20 78 03 00       	mov    %eax,0x37820
   30618:	5d                   	pop    %ebp
   30619:	c3                   	ret    
   3061a:	90                   	nop    
   3061b:	90                   	nop    
   3061c:	90                   	nop    
   3061d:	90                   	nop    
   3061e:	90                   	nop    
   3061f:	90                   	nop    

00030620 <myprintf>:
   30620:	55                   	push   %ebp
   30621:	89 e5                	mov    %esp,%ebp
   30623:	81 ec 40 00 00 00    	sub    $0x40,%esp
   30629:	8b 45 08             	mov    0x8(%ebp),%eax
   3062c:	50                   	push   %eax
   3062d:	89 e8                	mov    %ebp,%eax
   3062f:	05 0c 00 00 00       	add    $0xc,%eax
   30634:	50                   	push   %eax
   30635:	89 e8                	mov    %ebp,%eax
   30637:	2d 40 00 00 00       	sub    $0x40,%eax
   3063c:	50                   	push   %eax
   3063d:	e8 8d 19 00 00       	call   31fcf <vsprintf>
   30642:	81 c4 0c 00 00 00    	add    $0xc,%esp
   30648:	50                   	push   %eax
   30649:	89 e8                	mov    %ebp,%eax
   3064b:	2d 40 00 00 00       	sub    $0x40,%eax
   30650:	50                   	push   %eax
   30651:	e8 74 12 00 00       	call   318ca <printx>
   30656:	81 c4 08 00 00 00    	add    $0x8,%esp
   3065c:	81 c4 40 00 00 00    	add    $0x40,%esp
   30662:	89 ec                	mov    %ebp,%esp
   30664:	5d                   	pop    %ebp
   30665:	c3                   	ret    
   30666:	90                   	nop    
   30667:	90                   	nop    

00030668 <msg_send>:
   30668:	55                   	push   %ebp
   30669:	89 e5                	mov    %esp,%ebp
   3066b:	53                   	push   %ebx
   3066c:	83 ec 24             	sub    $0x24,%esp
   3066f:	83 7d 08 00          	cmpl   $0x0,0x8(%ebp)
   30673:	74 08                	je     3067d <msg_send+0x15>
   30675:	83 7d 08 00          	cmpl   $0x0,0x8(%ebp)
   30679:	78 02                	js     3067d <msg_send+0x15>
   3067b:	eb 24                	jmp    306a1 <msg_send+0x39>
   3067d:	c7 44 24 0c 1a 00 00 	movl   $0x1a,0xc(%esp)
   30684:	00 
   30685:	c7 44 24 08 b0 46 03 	movl   $0x346b0,0x8(%esp)
   3068c:	00 
   3068d:	c7 44 24 04 b0 46 03 	movl   $0x346b0,0x4(%esp)
   30694:	00 
   30695:	c7 04 24 bd 46 03 00 	movl   $0x346bd,(%esp)
   3069c:	e8 98 24 00 00       	call   32b39 <assertion_failure_kernel>
   306a1:	83 7d 0c 00          	cmpl   $0x0,0xc(%ebp)
   306a5:	74 08                	je     306af <msg_send+0x47>
   306a7:	83 7d 0c 00          	cmpl   $0x0,0xc(%ebp)
   306ab:	78 02                	js     306af <msg_send+0x47>
   306ad:	eb 24                	jmp    306d3 <msg_send+0x6b>
   306af:	c7 44 24 0c 1b 00 00 	movl   $0x1b,0xc(%esp)
   306b6:	00 
   306b7:	c7 44 24 08 b0 46 03 	movl   $0x346b0,0x8(%esp)
   306be:	00 
   306bf:	c7 44 24 04 b0 46 03 	movl   $0x346b0,0x4(%esp)
   306c6:	00 
   306c7:	c7 04 24 d6 46 03 00 	movl   $0x346d6,(%esp)
   306ce:	e8 66 24 00 00       	call   32b39 <assertion_failure_kernel>
   306d3:	8b 45 08             	mov    0x8(%ebp),%eax
   306d6:	3b 45 0c             	cmp    0xc(%ebp),%eax
   306d9:	75 24                	jne    306ff <msg_send+0x97>
   306db:	c7 44 24 0c 1c 00 00 	movl   $0x1c,0xc(%esp)
   306e2:	00 
   306e3:	c7 44 24 08 b0 46 03 	movl   $0x346b0,0x8(%esp)
   306ea:	00 
   306eb:	c7 44 24 04 b0 46 03 	movl   $0x346b0,0x4(%esp)
   306f2:	00 
   306f3:	c7 04 24 f1 46 03 00 	movl   $0x346f1,(%esp)
   306fa:	e8 3a 24 00 00       	call   32b39 <assertion_failure_kernel>
   306ff:	83 7d 10 00          	cmpl   $0x0,0x10(%ebp)
   30703:	75 24                	jne    30729 <msg_send+0xc1>
   30705:	c7 44 24 0c 1d 00 00 	movl   $0x1d,0xc(%esp)
   3070c:	00 
   3070d:	c7 44 24 08 b0 46 03 	movl   $0x346b0,0x8(%esp)
   30714:	00 
   30715:	c7 44 24 04 b0 46 03 	movl   $0x346b0,0x4(%esp)
   3071c:	00 
   3071d:	c7 04 24 fb 46 03 00 	movl   $0x346fb,(%esp)
   30724:	e8 10 24 00 00       	call   32b39 <assertion_failure_kernel>
   30729:	8b 45 08             	mov    0x8(%ebp),%eax
   3072c:	89 04 24             	mov    %eax,(%esp)
   3072f:	e8 01 16 00 00       	call   31d35 <pid2proc>
   30734:	89 45 f0             	mov    %eax,0xfffffff0(%ebp)
   30737:	8b 45 0c             	mov    0xc(%ebp),%eax
   3073a:	89 04 24             	mov    %eax,(%esp)
   3073d:	e8 f3 15 00 00       	call   31d35 <pid2proc>
   30742:	89 45 f4             	mov    %eax,0xfffffff4(%ebp)
   30745:	8b 45 f4             	mov    0xfffffff4(%ebp),%eax
   30748:	8b 80 e0 28 00 00    	mov    0x28e0(%eax),%eax
   3074e:	83 e0 01             	and    $0x1,%eax
   30751:	83 f0 01             	xor    $0x1,%eax
   30754:	84 c0                	test   %al,%al
   30756:	0f 85 06 01 00 00    	jne    30862 <msg_send+0x1fa>
   3075c:	8b 45 f4             	mov    0xfffffff4(%ebp),%eax
   3075f:	8b 90 f4 28 00 00    	mov    0x28f4(%eax),%edx
   30765:	8b 45 08             	mov    0x8(%ebp),%eax
   30768:	39 c2                	cmp    %eax,%edx
   3076a:	74 14                	je     30780 <msg_send+0x118>
   3076c:	8b 45 f4             	mov    0xfffffff4(%ebp),%eax
   3076f:	8b 80 f4 28 00 00    	mov    0x28f4(%eax),%eax
   30775:	3d 0f 27 00 00       	cmp    $0x270f,%eax
   3077a:	0f 85 e2 00 00 00    	jne    30862 <msg_send+0x1fa>
   30780:	8b 45 f4             	mov    0xfffffff4(%ebp),%eax
   30783:	8b 80 e8 28 00 00    	mov    0x28e8(%eax),%eax
   30789:	85 c0                	test   %eax,%eax
   3078b:	75 24                	jne    307b1 <msg_send+0x149>
   3078d:	c7 44 24 0c 2d 00 00 	movl   $0x2d,0xc(%esp)
   30794:	00 
   30795:	c7 44 24 08 b0 46 03 	movl   $0x346b0,0x8(%esp)
   3079c:	00 
   3079d:	c7 44 24 04 b0 46 03 	movl   $0x346b0,0x4(%esp)
   307a4:	00 
   307a5:	c7 04 24 fd 46 03 00 	movl   $0x346fd,(%esp)
   307ac:	e8 88 23 00 00       	call   32b39 <assertion_failure_kernel>
   307b1:	8b 45 10             	mov    0x10(%ebp),%eax
   307b4:	89 44 24 04          	mov    %eax,0x4(%esp)
   307b8:	8b 45 08             	mov    0x8(%ebp),%eax
   307bb:	89 04 24             	mov    %eax,(%esp)
   307be:	e8 98 16 00 00       	call   31e5b <va2la>
   307c3:	89 c3                	mov    %eax,%ebx
   307c5:	8b 45 f4             	mov    0xfffffff4(%ebp),%eax
   307c8:	8b 80 e8 28 00 00    	mov    0x28e8(%eax),%eax
   307ce:	89 44 24 04          	mov    %eax,0x4(%esp)
   307d2:	8b 45 0c             	mov    0xc(%ebp),%eax
   307d5:	89 04 24             	mov    %eax,(%esp)
   307d8:	e8 7e 16 00 00       	call   31e5b <va2la>
   307dd:	c7 44 24 08 30 00 00 	movl   $0x30,0x8(%esp)
   307e4:	00 
   307e5:	89 5c 24 04          	mov    %ebx,0x4(%esp)
   307e9:	89 04 24             	mov    %eax,(%esp)
   307ec:	e8 e7 21 00 00       	call   329d8 <memcpy>
   307f1:	8b 45 f4             	mov    0xfffffff4(%ebp),%eax
   307f4:	c7 80 e8 28 00 00 00 	movl   $0x0,0x28e8(%eax)
   307fb:	00 00 00 
   307fe:	8b 45 f4             	mov    0xfffffff4(%ebp),%eax
   30801:	8b 80 e0 28 00 00    	mov    0x28e0(%eax),%eax
   30807:	89 c2                	mov    %eax,%edx
   30809:	83 e2 fb             	and    $0xfffffffb,%edx
   3080c:	8b 45 f4             	mov    0xfffffff4(%ebp),%eax
   3080f:	89 90 e0 28 00 00    	mov    %edx,0x28e0(%eax)
   30815:	8b 45 f4             	mov    0xfffffff4(%ebp),%eax
   30818:	c7 80 f4 28 00 00 8c 	movl   $0x8c,0x28f4(%eax)
   3081f:	00 00 00 
   30822:	a1 00 50 03 00       	mov    0x35000,%eax
   30827:	83 f8 01             	cmp    $0x1,%eax
   3082a:	75 26                	jne    30852 <msg_send+0x1ea>
   3082c:	83 7d 08 01          	cmpl   $0x1,0x8(%ebp)
   30830:	74 06                	je     30838 <msg_send+0x1d0>
   30832:	83 7d 0c 01          	cmpl   $0x1,0xc(%ebp)
   30836:	75 1a                	jne    30852 <msg_send+0x1ea>
   30838:	8b 45 0c             	mov    0xc(%ebp),%eax
   3083b:	89 44 24 08          	mov    %eax,0x8(%esp)
   3083f:	8b 45 08             	mov    0x8(%ebp),%eax
   30842:	89 44 24 04          	mov    %eax,0x4(%esp)
   30846:	c7 04 24 0b 47 03 00 	movl   $0x3470b,(%esp)
   3084d:	e8 8e 18 00 00       	call   320e0 <printf_kernel>
   30852:	8b 45 f4             	mov    0xfffffff4(%ebp),%eax
   30855:	89 04 24             	mov    %eax,(%esp)
   30858:	e8 36 15 00 00       	call   31d93 <unblock>
   3085d:	e9 f8 00 00 00       	jmp    3095a <msg_send+0x2f2>
   30862:	a1 00 50 03 00       	mov    0x35000,%eax
   30867:	83 f8 01             	cmp    $0x1,%eax
   3086a:	75 26                	jne    30892 <msg_send+0x22a>
   3086c:	83 7d 08 01          	cmpl   $0x1,0x8(%ebp)
   30870:	74 06                	je     30878 <msg_send+0x210>
   30872:	83 7d 0c 01          	cmpl   $0x1,0xc(%ebp)
   30876:	75 1a                	jne    30892 <msg_send+0x22a>
   30878:	8b 45 0c             	mov    0xc(%ebp),%eax
   3087b:	89 44 24 08          	mov    %eax,0x8(%esp)
   3087f:	8b 45 08             	mov    0x8(%ebp),%eax
   30882:	89 44 24 04          	mov    %eax,0x4(%esp)
   30886:	c7 04 24 23 47 03 00 	movl   $0x34723,(%esp)
   3088d:	e8 4e 18 00 00       	call   320e0 <printf_kernel>
   30892:	8b 45 f4             	mov    0xfffffff4(%ebp),%eax
   30895:	8b 80 f0 28 00 00    	mov    0x28f0(%eax),%eax
   3089b:	89 45 f8             	mov    %eax,0xfffffff8(%ebp)
   3089e:	83 7d f8 00          	cmpl   $0x0,0xfffffff8(%ebp)
   308a2:	75 1a                	jne    308be <msg_send+0x256>
   308a4:	8b 55 f4             	mov    0xfffffff4(%ebp),%edx
   308a7:	8b 45 f0             	mov    0xfffffff0(%ebp),%eax
   308aa:	89 82 f0 28 00 00    	mov    %eax,0x28f0(%edx)
   308b0:	eb 25                	jmp    308d7 <msg_send+0x26f>
   308b2:	8b 45 f8             	mov    0xfffffff8(%ebp),%eax
   308b5:	8b 80 ec 28 00 00    	mov    0x28ec(%eax),%eax
   308bb:	89 45 f8             	mov    %eax,0xfffffff8(%ebp)
   308be:	8b 45 f8             	mov    0xfffffff8(%ebp),%eax
   308c1:	8b 80 ec 28 00 00    	mov    0x28ec(%eax),%eax
   308c7:	85 c0                	test   %eax,%eax
   308c9:	75 e7                	jne    308b2 <msg_send+0x24a>
   308cb:	8b 55 f8             	mov    0xfffffff8(%ebp),%edx
   308ce:	8b 45 f0             	mov    0xfffffff0(%ebp),%eax
   308d1:	89 82 ec 28 00 00    	mov    %eax,0x28ec(%edx)
   308d7:	8b 55 f0             	mov    0xfffffff0(%ebp),%edx
   308da:	8b 45 10             	mov    0x10(%ebp),%eax
   308dd:	89 82 e8 28 00 00    	mov    %eax,0x28e8(%edx)
   308e3:	8b 55 10             	mov    0x10(%ebp),%edx
   308e6:	8b 45 08             	mov    0x8(%ebp),%eax
   308e9:	89 02                	mov    %eax,(%edx)
   308eb:	8b 55 0c             	mov    0xc(%ebp),%edx
   308ee:	8b 45 f0             	mov    0xfffffff0(%ebp),%eax
   308f1:	89 90 e4 28 00 00    	mov    %edx,0x28e4(%eax)
   308f7:	8b 45 f0             	mov    0xfffffff0(%ebp),%eax
   308fa:	c7 80 ec 28 00 00 00 	movl   $0x0,0x28ec(%eax)
   30901:	00 00 00 
   30904:	8b 45 f0             	mov    0xfffffff0(%ebp),%eax
   30907:	8b 80 e0 28 00 00    	mov    0x28e0(%eax),%eax
   3090d:	89 c2                	mov    %eax,%edx
   3090f:	83 ca 02             	or     $0x2,%edx
   30912:	8b 45 f0             	mov    0xfffffff0(%ebp),%eax
   30915:	89 90 e0 28 00 00    	mov    %edx,0x28e0(%eax)
   3091b:	8b 45 f0             	mov    0xfffffff0(%ebp),%eax
   3091e:	8b 80 e0 28 00 00    	mov    0x28e0(%eax),%eax
   30924:	83 e0 02             	and    $0x2,%eax
   30927:	85 c0                	test   %eax,%eax
   30929:	75 24                	jne    3094f <msg_send+0x2e7>
   3092b:	c7 44 24 0c 54 00 00 	movl   $0x54,0xc(%esp)
   30932:	00 
   30933:	c7 44 24 08 b0 46 03 	movl   $0x346b0,0x8(%esp)
   3093a:	00 
   3093b:	c7 44 24 04 b0 46 03 	movl   $0x346b0,0x4(%esp)
   30942:	00 
   30943:	c7 04 24 40 47 03 00 	movl   $0x34740,(%esp)
   3094a:	e8 ea 21 00 00       	call   32b39 <assertion_failure_kernel>
   3094f:	8b 45 f0             	mov    0xfffffff0(%ebp),%eax
   30952:	89 04 24             	mov    %eax,(%esp)
   30955:	e8 97 14 00 00       	call   31df1 <block>
   3095a:	83 c4 24             	add    $0x24,%esp
   3095d:	5b                   	pop    %ebx
   3095e:	5d                   	pop    %ebp
   3095f:	c3                   	ret    

00030960 <msg_receive>:
   30960:	55                   	push   %ebp
   30961:	89 e5                	mov    %esp,%ebp
   30963:	53                   	push   %ebx
   30964:	83 ec 24             	sub    $0x24,%esp
   30967:	8b 45 08             	mov    0x8(%ebp),%eax
   3096a:	3b 45 0c             	cmp    0xc(%ebp),%eax
   3096d:	75 24                	jne    30993 <msg_receive+0x33>
   3096f:	c7 44 24 0c 6a 00 00 	movl   $0x6a,0xc(%esp)
   30976:	00 
   30977:	c7 44 24 08 b0 46 03 	movl   $0x346b0,0x8(%esp)
   3097e:	00 
   3097f:	c7 44 24 04 b0 46 03 	movl   $0x346b0,0x4(%esp)
   30986:	00 
   30987:	c7 04 24 60 47 03 00 	movl   $0x34760,(%esp)
   3098e:	e8 a6 21 00 00       	call   32b39 <assertion_failure_kernel>
   30993:	83 7d 08 00          	cmpl   $0x0,0x8(%ebp)
   30997:	7e 08                	jle    309a1 <msg_receive+0x41>
   30999:	83 7d 08 00          	cmpl   $0x0,0x8(%ebp)
   3099d:	78 02                	js     309a1 <msg_receive+0x41>
   3099f:	eb 24                	jmp    309c5 <msg_receive+0x65>
   309a1:	c7 44 24 0c 6b 00 00 	movl   $0x6b,0xc(%esp)
   309a8:	00 
   309a9:	c7 44 24 08 b0 46 03 	movl   $0x346b0,0x8(%esp)
   309b0:	00 
   309b1:	c7 44 24 04 b0 46 03 	movl   $0x346b0,0x4(%esp)
   309b8:	00 
   309b9:	c7 04 24 6a 47 03 00 	movl   $0x3476a,(%esp)
   309c0:	e8 74 21 00 00       	call   32b39 <assertion_failure_kernel>
   309c5:	83 7d 0c 00          	cmpl   $0x0,0xc(%ebp)
   309c9:	78 08                	js     309d3 <msg_receive+0x73>
   309cb:	83 7d 0c 00          	cmpl   $0x0,0xc(%ebp)
   309cf:	78 02                	js     309d3 <msg_receive+0x73>
   309d1:	eb 24                	jmp    309f7 <msg_receive+0x97>
   309d3:	c7 44 24 0c 6c 00 00 	movl   $0x6c,0xc(%esp)
   309da:	00 
   309db:	c7 44 24 08 b0 46 03 	movl   $0x346b0,0x8(%esp)
   309e2:	00 
   309e3:	c7 44 24 04 b0 46 03 	movl   $0x346b0,0x4(%esp)
   309ea:	00 
   309eb:	c7 04 24 84 47 03 00 	movl   $0x34784,(%esp)
   309f2:	e8 42 21 00 00       	call   32b39 <assertion_failure_kernel>
   309f7:	83 7d 10 00          	cmpl   $0x0,0x10(%ebp)
   309fb:	75 24                	jne    30a21 <msg_receive+0xc1>
   309fd:	c7 44 24 0c 6d 00 00 	movl   $0x6d,0xc(%esp)
   30a04:	00 
   30a05:	c7 44 24 08 b0 46 03 	movl   $0x346b0,0x8(%esp)
   30a0c:	00 
   30a0d:	c7 44 24 04 b0 46 03 	movl   $0x346b0,0x4(%esp)
   30a14:	00 
   30a15:	c7 04 24 fb 46 03 00 	movl   $0x346fb,(%esp)
   30a1c:	e8 18 21 00 00       	call   32b39 <assertion_failure_kernel>
   30a21:	c7 45 f0 00 00 00 00 	movl   $0x0,0xfffffff0(%ebp)
   30a28:	8b 45 08             	mov    0x8(%ebp),%eax
   30a2b:	89 04 24             	mov    %eax,(%esp)
   30a2e:	e8 02 13 00 00       	call   31d35 <pid2proc>
   30a33:	89 45 f4             	mov    %eax,0xfffffff4(%ebp)
   30a36:	c7 45 f8 00 00 00 00 	movl   $0x0,0xfffffff8(%ebp)
   30a3d:	83 7d 0c 00          	cmpl   $0x0,0xc(%ebp)
   30a41:	75 20                	jne    30a63 <msg_receive+0x103>
   30a43:	8b 45 f4             	mov    0xfffffff4(%ebp),%eax
   30a46:	8b 80 f8 28 00 00    	mov    0x28f8(%eax),%eax
   30a4c:	83 f8 01             	cmp    $0x1,%eax
   30a4f:	75 12                	jne    30a63 <msg_receive+0x103>
   30a51:	8b 45 f4             	mov    0xfffffff4(%ebp),%eax
   30a54:	c7 80 f8 28 00 00 00 	movl   $0x0,0x28f8(%eax)
   30a5b:	00 00 00 
   30a5e:	e9 f5 02 00 00       	jmp    30d58 <msg_receive+0x3f8>
   30a63:	81 7d 0c 0f 27 00 00 	cmpl   $0x270f,0xc(%ebp)
   30a6a:	0f 85 e2 00 00 00    	jne    30b52 <msg_receive+0x1f2>
   30a70:	8b 45 f4             	mov    0xfffffff4(%ebp),%eax
   30a73:	8b 80 f0 28 00 00    	mov    0x28f0(%eax),%eax
   30a79:	85 c0                	test   %eax,%eax
   30a7b:	0f 84 df 00 00 00    	je     30b60 <msg_receive+0x200>
   30a81:	8b 45 f4             	mov    0xfffffff4(%ebp),%eax
   30a84:	8b 80 f0 28 00 00    	mov    0x28f0(%eax),%eax
   30a8a:	89 45 f0             	mov    %eax,0xfffffff0(%ebp)
   30a8d:	83 7d f0 00          	cmpl   $0x0,0xfffffff0(%ebp)
   30a91:	75 24                	jne    30ab7 <msg_receive+0x157>
   30a93:	c7 44 24 0c 7a 00 00 	movl   $0x7a,0xc(%esp)
   30a9a:	00 
   30a9b:	c7 44 24 08 b0 46 03 	movl   $0x346b0,0x8(%esp)
   30aa2:	00 
   30aa3:	c7 44 24 04 b0 46 03 	movl   $0x346b0,0x4(%esp)
   30aaa:	00 
   30aab:	c7 04 24 9d 47 03 00 	movl   $0x3479d,(%esp)
   30ab2:	e8 82 20 00 00       	call   32b39 <assertion_failure_kernel>
   30ab7:	8b 45 f0             	mov    0xfffffff0(%ebp),%eax
   30aba:	8b 80 e0 28 00 00    	mov    0x28e0(%eax),%eax
   30ac0:	83 e0 02             	and    $0x2,%eax
   30ac3:	85 c0                	test   %eax,%eax
   30ac5:	75 24                	jne    30aeb <msg_receive+0x18b>
   30ac7:	c7 44 24 0c 7b 00 00 	movl   $0x7b,0xc(%esp)
   30ace:	00 
   30acf:	c7 44 24 08 b0 46 03 	movl   $0x346b0,0x8(%esp)
   30ad6:	00 
   30ad7:	c7 44 24 04 b0 46 03 	movl   $0x346b0,0x4(%esp)
   30ade:	00 
   30adf:	c7 04 24 a4 47 03 00 	movl   $0x347a4,(%esp)
   30ae6:	e8 4e 20 00 00       	call   32b39 <assertion_failure_kernel>
   30aeb:	8b 45 f0             	mov    0xfffffff0(%ebp),%eax
   30aee:	8b 90 e4 28 00 00    	mov    0x28e4(%eax),%edx
   30af4:	8b 45 08             	mov    0x8(%ebp),%eax
   30af7:	39 c2                	cmp    %eax,%edx
   30af9:	74 24                	je     30b1f <msg_receive+0x1bf>
   30afb:	c7 44 24 0c 7c 00 00 	movl   $0x7c,0xc(%esp)
   30b02:	00 
   30b03:	c7 44 24 08 b0 46 03 	movl   $0x346b0,0x8(%esp)
   30b0a:	00 
   30b0b:	c7 44 24 04 b0 46 03 	movl   $0x346b0,0x4(%esp)
   30b12:	00 
   30b13:	c7 04 24 c1 47 03 00 	movl   $0x347c1,(%esp)
   30b1a:	e8 1a 20 00 00       	call   32b39 <assertion_failure_kernel>
   30b1f:	8b 45 f0             	mov    0xfffffff0(%ebp),%eax
   30b22:	89 04 24             	mov    %eax,(%esp)
   30b25:	e8 92 11 00 00       	call   31cbc <proc2pid>
   30b2a:	89 45 0c             	mov    %eax,0xc(%ebp)
   30b2d:	a1 00 50 03 00       	mov    0x35000,%eax
   30b32:	83 f8 01             	cmp    $0x1,%eax
   30b35:	75 29                	jne    30b60 <msg_receive+0x200>
   30b37:	83 7d 0c 01          	cmpl   $0x1,0xc(%ebp)
   30b3b:	75 23                	jne    30b60 <msg_receive+0x200>
   30b3d:	8b 45 0c             	mov    0xc(%ebp),%eax
   30b40:	89 44 24 04          	mov    %eax,0x4(%esp)
   30b44:	c7 04 24 d8 47 03 00 	movl   $0x347d8,(%esp)
   30b4b:	e8 90 15 00 00       	call   320e0 <printf_kernel>
   30b50:	eb 0e                	jmp    30b60 <msg_receive+0x200>
   30b52:	8b 45 0c             	mov    0xc(%ebp),%eax
   30b55:	89 04 24             	mov    %eax,(%esp)
   30b58:	e8 d8 11 00 00       	call   31d35 <pid2proc>
   30b5d:	89 45 f0             	mov    %eax,0xfffffff0(%ebp)
   30b60:	83 7d f0 00          	cmpl   $0x0,0xfffffff0(%ebp)
   30b64:	0f 84 84 01 00 00    	je     30cee <msg_receive+0x38e>
   30b6a:	8b 45 f0             	mov    0xfffffff0(%ebp),%eax
   30b6d:	8b 80 e0 28 00 00    	mov    0x28e0(%eax),%eax
   30b73:	83 e0 02             	and    $0x2,%eax
   30b76:	85 c0                	test   %eax,%eax
   30b78:	0f 84 70 01 00 00    	je     30cee <msg_receive+0x38e>
   30b7e:	8b 45 f0             	mov    0xfffffff0(%ebp),%eax
   30b81:	8b 90 e4 28 00 00    	mov    0x28e4(%eax),%edx
   30b87:	8b 45 08             	mov    0x8(%ebp),%eax
   30b8a:	39 c2                	cmp    %eax,%edx
   30b8c:	0f 85 5c 01 00 00    	jne    30cee <msg_receive+0x38e>
   30b92:	8b 45 f0             	mov    0xfffffff0(%ebp),%eax
   30b95:	8b 80 e8 28 00 00    	mov    0x28e8(%eax),%eax
   30b9b:	89 44 24 04          	mov    %eax,0x4(%esp)
   30b9f:	8b 45 0c             	mov    0xc(%ebp),%eax
   30ba2:	89 04 24             	mov    %eax,(%esp)
   30ba5:	e8 b1 12 00 00       	call   31e5b <va2la>
   30baa:	89 c3                	mov    %eax,%ebx
   30bac:	8b 45 10             	mov    0x10(%ebp),%eax
   30baf:	89 44 24 04          	mov    %eax,0x4(%esp)
   30bb3:	8b 45 08             	mov    0x8(%ebp),%eax
   30bb6:	89 04 24             	mov    %eax,(%esp)
   30bb9:	e8 9d 12 00 00       	call   31e5b <va2la>
   30bbe:	c7 44 24 08 30 00 00 	movl   $0x30,0x8(%esp)
   30bc5:	00 
   30bc6:	89 5c 24 04          	mov    %ebx,0x4(%esp)
   30bca:	89 04 24             	mov    %eax,(%esp)
   30bcd:	e8 06 1e 00 00       	call   329d8 <memcpy>
   30bd2:	8b 45 f0             	mov    0xfffffff0(%ebp),%eax
   30bd5:	c7 80 e8 28 00 00 00 	movl   $0x0,0x28e8(%eax)
   30bdc:	00 00 00 
   30bdf:	8b 45 f0             	mov    0xfffffff0(%ebp),%eax
   30be2:	c7 80 e4 28 00 00 8c 	movl   $0x8c,0x28e4(%eax)
   30be9:	00 00 00 
   30bec:	8b 45 f0             	mov    0xfffffff0(%ebp),%eax
   30bef:	8b 80 e0 28 00 00    	mov    0x28e0(%eax),%eax
   30bf5:	89 c2                	mov    %eax,%edx
   30bf7:	83 e2 fd             	and    $0xfffffffd,%edx
   30bfa:	8b 45 f0             	mov    0xfffffff0(%ebp),%eax
   30bfd:	89 90 e0 28 00 00    	mov    %edx,0x28e0(%eax)
   30c03:	a1 00 50 03 00       	mov    0x35000,%eax
   30c08:	83 f8 01             	cmp    $0x1,%eax
   30c0b:	75 26                	jne    30c33 <msg_receive+0x2d3>
   30c0d:	83 7d 0c 01          	cmpl   $0x1,0xc(%ebp)
   30c11:	74 06                	je     30c19 <msg_receive+0x2b9>
   30c13:	83 7d 08 01          	cmpl   $0x1,0x8(%ebp)
   30c17:	75 1a                	jne    30c33 <msg_receive+0x2d3>
   30c19:	8b 45 0c             	mov    0xc(%ebp),%eax
   30c1c:	89 44 24 08          	mov    %eax,0x8(%esp)
   30c20:	8b 45 08             	mov    0x8(%ebp),%eax
   30c23:	89 44 24 04          	mov    %eax,0x4(%esp)
   30c27:	c7 04 24 fc 47 03 00 	movl   $0x347fc,(%esp)
   30c2e:	e8 ad 14 00 00       	call   320e0 <printf_kernel>
   30c33:	8b 45 f0             	mov    0xfffffff0(%ebp),%eax
   30c36:	89 04 24             	mov    %eax,(%esp)
   30c39:	e8 55 11 00 00       	call   31d93 <unblock>
   30c3e:	8b 45 f4             	mov    0xfffffff4(%ebp),%eax
   30c41:	8b 80 f0 28 00 00    	mov    0x28f0(%eax),%eax
   30c47:	3b 45 f0             	cmp    0xfffffff0(%ebp),%eax
   30c4a:	75 17                	jne    30c63 <msg_receive+0x303>
   30c4c:	8b 45 f0             	mov    0xfffffff0(%ebp),%eax
   30c4f:	8b 90 ec 28 00 00    	mov    0x28ec(%eax),%edx
   30c55:	8b 45 f4             	mov    0xfffffff4(%ebp),%eax
   30c58:	89 90 f0 28 00 00    	mov    %edx,0x28f0(%eax)
   30c5e:	e9 f5 00 00 00       	jmp    30d58 <msg_receive+0x3f8>
   30c63:	8b 45 f4             	mov    0xfffffff4(%ebp),%eax
   30c66:	8b 90 f0 28 00 00    	mov    0x28f0(%eax),%edx
   30c6c:	8b 45 f0             	mov    0xfffffff0(%ebp),%eax
   30c6f:	89 44 24 04          	mov    %eax,0x4(%esp)
   30c73:	89 14 24             	mov    %edx,(%esp)
   30c76:	e8 e3 00 00 00       	call   30d5e <inSendingQueue>
   30c7b:	89 45 f8             	mov    %eax,0xfffffff8(%ebp)
   30c7e:	83 7d f8 00          	cmpl   $0x0,0xfffffff8(%ebp)
   30c82:	75 24                	jne    30ca8 <msg_receive+0x348>
   30c84:	c7 44 24 0c 9b 00 00 	movl   $0x9b,0xc(%esp)
   30c8b:	00 
   30c8c:	c7 44 24 08 b0 46 03 	movl   $0x346b0,0x8(%esp)
   30c93:	00 
   30c94:	c7 44 24 04 b0 46 03 	movl   $0x346b0,0x4(%esp)
   30c9b:	00 
   30c9c:	c7 04 24 1a 48 03 00 	movl   $0x3481a,(%esp)
   30ca3:	e8 91 1e 00 00       	call   32b39 <assertion_failure_kernel>
   30ca8:	8b 45 f8             	mov    0xfffffff8(%ebp),%eax
   30cab:	8b 80 ec 28 00 00    	mov    0x28ec(%eax),%eax
   30cb1:	3b 45 f0             	cmp    0xfffffff0(%ebp),%eax
   30cb4:	74 24                	je     30cda <msg_receive+0x37a>
   30cb6:	c7 44 24 0c 9c 00 00 	movl   $0x9c,0xc(%esp)
   30cbd:	00 
   30cbe:	c7 44 24 08 b0 46 03 	movl   $0x346b0,0x8(%esp)
   30cc5:	00 
   30cc6:	c7 44 24 04 b0 46 03 	movl   $0x346b0,0x4(%esp)
   30ccd:	00 
   30cce:	c7 04 24 1e 48 03 00 	movl   $0x3481e,(%esp)
   30cd5:	e8 5f 1e 00 00       	call   32b39 <assertion_failure_kernel>
   30cda:	8b 45 f0             	mov    0xfffffff0(%ebp),%eax
   30cdd:	8b 90 ec 28 00 00    	mov    0x28ec(%eax),%edx
   30ce3:	8b 45 f8             	mov    0xfffffff8(%ebp),%eax
   30ce6:	89 90 ec 28 00 00    	mov    %edx,0x28ec(%eax)
   30cec:	eb 6a                	jmp    30d58 <msg_receive+0x3f8>
   30cee:	8b 45 f4             	mov    0xfffffff4(%ebp),%eax
   30cf1:	8b 80 e0 28 00 00    	mov    0x28e0(%eax),%eax
   30cf7:	89 c2                	mov    %eax,%edx
   30cf9:	83 ca 04             	or     $0x4,%edx
   30cfc:	8b 45 f4             	mov    0xfffffff4(%ebp),%eax
   30cff:	89 90 e0 28 00 00    	mov    %edx,0x28e0(%eax)
   30d05:	8b 55 0c             	mov    0xc(%ebp),%edx
   30d08:	8b 45 f4             	mov    0xfffffff4(%ebp),%eax
   30d0b:	89 90 f4 28 00 00    	mov    %edx,0x28f4(%eax)
   30d11:	8b 55 f4             	mov    0xfffffff4(%ebp),%edx
   30d14:	8b 45 10             	mov    0x10(%ebp),%eax
   30d17:	89 82 e8 28 00 00    	mov    %eax,0x28e8(%edx)
   30d1d:	a1 00 50 03 00       	mov    0x35000,%eax
   30d22:	83 f8 01             	cmp    $0x1,%eax
   30d25:	75 26                	jne    30d4d <msg_receive+0x3ed>
   30d27:	83 7d 0c 01          	cmpl   $0x1,0xc(%ebp)
   30d2b:	74 06                	je     30d33 <msg_receive+0x3d3>
   30d2d:	83 7d 08 01          	cmpl   $0x1,0x8(%ebp)
   30d31:	75 1a                	jne    30d4d <msg_receive+0x3ed>
   30d33:	8b 45 0c             	mov    0xc(%ebp),%eax
   30d36:	89 44 24 08          	mov    %eax,0x8(%esp)
   30d3a:	8b 45 08             	mov    0x8(%ebp),%eax
   30d3d:	89 44 24 04          	mov    %eax,0x4(%esp)
   30d41:	c7 04 24 3c 48 03 00 	movl   $0x3483c,(%esp)
   30d48:	e8 93 13 00 00       	call   320e0 <printf_kernel>
   30d4d:	8b 45 f4             	mov    0xfffffff4(%ebp),%eax
   30d50:	89 04 24             	mov    %eax,(%esp)
   30d53:	e8 99 10 00 00       	call   31df1 <block>
   30d58:	83 c4 24             	add    $0x24,%esp
   30d5b:	5b                   	pop    %ebx
   30d5c:	5d                   	pop    %ebp
   30d5d:	c3                   	ret    

00030d5e <inSendingQueue>:
   30d5e:	55                   	push   %ebp
   30d5f:	89 e5                	mov    %esp,%ebp
   30d61:	83 ec 04             	sub    $0x4,%esp
   30d64:	eb 22                	jmp    30d88 <inSendingQueue+0x2a>
   30d66:	8b 45 08             	mov    0x8(%ebp),%eax
   30d69:	8b 80 ec 28 00 00    	mov    0x28ec(%eax),%eax
   30d6f:	3b 45 0c             	cmp    0xc(%ebp),%eax
   30d72:	75 08                	jne    30d7c <inSendingQueue+0x1e>
   30d74:	8b 45 08             	mov    0x8(%ebp),%eax
   30d77:	89 45 fc             	mov    %eax,0xfffffffc(%ebp)
   30d7a:	eb 20                	jmp    30d9c <inSendingQueue+0x3e>
   30d7c:	8b 45 08             	mov    0x8(%ebp),%eax
   30d7f:	8b 80 ec 28 00 00    	mov    0x28ec(%eax),%eax
   30d85:	89 45 08             	mov    %eax,0x8(%ebp)
   30d88:	8b 45 08             	mov    0x8(%ebp),%eax
   30d8b:	8b 80 ec 28 00 00    	mov    0x28ec(%eax),%eax
   30d91:	85 c0                	test   %eax,%eax
   30d93:	75 d1                	jne    30d66 <inSendingQueue+0x8>
   30d95:	c7 45 fc 00 00 00 00 	movl   $0x0,0xfffffffc(%ebp)
   30d9c:	8b 45 fc             	mov    0xfffffffc(%ebp),%eax
   30d9f:	c9                   	leave  
   30da0:	c3                   	ret    

00030da1 <inform_int>:
   30da1:	55                   	push   %ebp
   30da2:	89 e5                	mov    %esp,%ebp
   30da4:	83 ec 28             	sub    $0x28,%esp
   30da7:	8b 45 08             	mov    0x8(%ebp),%eax
   30daa:	89 04 24             	mov    %eax,(%esp)
   30dad:	e8 83 0f 00 00       	call   31d35 <pid2proc>
   30db2:	89 45 fc             	mov    %eax,0xfffffffc(%ebp)
   30db5:	83 7d fc 00          	cmpl   $0x0,0xfffffffc(%ebp)
   30db9:	75 24                	jne    30ddf <inform_int+0x3e>
   30dbb:	c7 44 24 0c ca 00 00 	movl   $0xca,0xc(%esp)
   30dc2:	00 
   30dc3:	c7 44 24 08 b0 46 03 	movl   $0x346b0,0x8(%esp)
   30dca:	00 
   30dcb:	c7 44 24 04 b0 46 03 	movl   $0x346b0,0x4(%esp)
   30dd2:	00 
   30dd3:	c7 04 24 5b 48 03 00 	movl   $0x3485b,(%esp)
   30dda:	e8 5a 1d 00 00       	call   32b39 <assertion_failure_kernel>
   30ddf:	8b 45 fc             	mov    0xfffffffc(%ebp),%eax
   30de2:	8b 80 e0 28 00 00    	mov    0x28e0(%eax),%eax
   30de8:	83 e0 04             	and    $0x4,%eax
   30deb:	85 c0                	test   %eax,%eax
   30ded:	74 4e                	je     30e3d <inform_int+0x9c>
   30def:	8b 45 fc             	mov    0xfffffffc(%ebp),%eax
   30df2:	8b 80 f4 28 00 00    	mov    0x28f4(%eax),%eax
   30df8:	3d 0f 27 00 00       	cmp    $0x270f,%eax
   30dfd:	74 0d                	je     30e0c <inform_int+0x6b>
   30dff:	8b 45 fc             	mov    0xfffffffc(%ebp),%eax
   30e02:	8b 80 f4 28 00 00    	mov    0x28f4(%eax),%eax
   30e08:	85 c0                	test   %eax,%eax
   30e0a:	75 31                	jne    30e3d <inform_int+0x9c>
   30e0c:	8b 45 fc             	mov    0xfffffffc(%ebp),%eax
   30e0f:	c7 80 f8 28 00 00 01 	movl   $0x1,0x28f8(%eax)
   30e16:	00 00 00 
   30e19:	8b 45 fc             	mov    0xfffffffc(%ebp),%eax
   30e1c:	8b 80 e0 28 00 00    	mov    0x28e0(%eax),%eax
   30e22:	89 c2                	mov    %eax,%edx
   30e24:	83 e2 fb             	and    $0xfffffffb,%edx
   30e27:	8b 45 fc             	mov    0xfffffffc(%ebp),%eax
   30e2a:	89 90 e0 28 00 00    	mov    %edx,0x28e0(%eax)
   30e30:	8b 45 fc             	mov    0xfffffffc(%ebp),%eax
   30e33:	89 04 24             	mov    %eax,(%esp)
   30e36:	e8 58 0f 00 00       	call   31d93 <unblock>
   30e3b:	eb 0d                	jmp    30e4a <inform_int+0xa9>
   30e3d:	8b 45 fc             	mov    0xfffffffc(%ebp),%eax
   30e40:	c7 80 f8 28 00 00 01 	movl   $0x1,0x28f8(%eax)
   30e47:	00 00 00 
   30e4a:	c9                   	leave  
   30e4b:	c3                   	ret    

00030e4c <setLDTEntry>:
   30e4c:	55                   	push   %ebp
   30e4d:	89 e5                	mov    %esp,%ebp
   30e4f:	83 ec 04             	sub    $0x4,%esp
   30e52:	8b 45 18             	mov    0x18(%ebp),%eax
   30e55:	66 89 45 fc          	mov    %ax,0xfffffffc(%ebp)
   30e59:	8b 45 0c             	mov    0xc(%ebp),%eax
   30e5c:	c1 e0 03             	shl    $0x3,%eax
   30e5f:	89 c2                	mov    %eax,%edx
   30e61:	03 55 08             	add    0x8(%ebp),%edx
   30e64:	8b 45 14             	mov    0x14(%ebp),%eax
   30e67:	66 89 02             	mov    %ax,(%edx)
   30e6a:	8b 45 0c             	mov    0xc(%ebp),%eax
   30e6d:	c1 e0 03             	shl    $0x3,%eax
   30e70:	89 c2                	mov    %eax,%edx
   30e72:	03 55 08             	add    0x8(%ebp),%edx
   30e75:	8b 45 10             	mov    0x10(%ebp),%eax
   30e78:	66 89 42 02          	mov    %ax,0x2(%edx)
   30e7c:	8b 45 0c             	mov    0xc(%ebp),%eax
   30e7f:	c1 e0 03             	shl    $0x3,%eax
   30e82:	89 c2                	mov    %eax,%edx
   30e84:	03 55 08             	add    0x8(%ebp),%edx
   30e87:	8b 45 10             	mov    0x10(%ebp),%eax
   30e8a:	c1 e8 10             	shr    $0x10,%eax
   30e8d:	88 42 04             	mov    %al,0x4(%edx)
   30e90:	8b 45 0c             	mov    0xc(%ebp),%eax
   30e93:	c1 e0 03             	shl    $0x3,%eax
   30e96:	89 c1                	mov    %eax,%ecx
   30e98:	03 4d 08             	add    0x8(%ebp),%ecx
   30e9b:	0f b7 45 fc          	movzwl 0xfffffffc(%ebp),%eax
   30e9f:	89 c2                	mov    %eax,%edx
   30ea1:	b8 ff ff ff ff       	mov    $0xffffffff,%eax
   30ea6:	21 d0                	and    %edx,%eax
   30ea8:	88 41 05             	mov    %al,0x5(%ecx)
   30eab:	8b 45 0c             	mov    0xc(%ebp),%eax
   30eae:	c1 e0 03             	shl    $0x3,%eax
   30eb1:	89 c1                	mov    %eax,%ecx
   30eb3:	03 4d 08             	add    0x8(%ebp),%ecx
   30eb6:	0f b7 45 fc          	movzwl 0xfffffffc(%ebp),%eax
   30eba:	66 c1 e8 08          	shr    $0x8,%ax
   30ebe:	89 c2                	mov    %eax,%edx
   30ec0:	83 e2 f0             	and    $0xfffffff0,%edx
   30ec3:	8b 45 14             	mov    0x14(%ebp),%eax
   30ec6:	c1 e8 10             	shr    $0x10,%eax
   30ec9:	83 e0 0f             	and    $0xf,%eax
   30ecc:	09 d0                	or     %edx,%eax
   30ece:	88 41 06             	mov    %al,0x6(%ecx)
   30ed1:	8b 45 0c             	mov    0xc(%ebp),%eax
   30ed4:	c1 e0 03             	shl    $0x3,%eax
   30ed7:	89 c2                	mov    %eax,%edx
   30ed9:	03 55 08             	add    0x8(%ebp),%edx
   30edc:	8b 45 10             	mov    0x10(%ebp),%eax
   30edf:	c1 e8 18             	shr    $0x18,%eax
   30ee2:	88 42 07             	mov    %al,0x7(%edx)
   30ee5:	c9                   	leave  
   30ee6:	c3                   	ret    

00030ee7 <set_process_regs>:
   30ee7:	55                   	push   %ebp
   30ee8:	89 e5                	mov    %esp,%ebp
   30eea:	83 7d 08 00          	cmpl   $0x0,0x8(%ebp)
   30eee:	0f 84 98 00 00 00    	je     30f8c <set_process_regs+0xa5>
   30ef4:	8b 55 0c             	mov    0xc(%ebp),%edx
   30ef7:	8b 45 08             	mov    0x8(%ebp),%eax
   30efa:	89 50 34             	mov    %edx,0x34(%eax)
   30efd:	8b 55 10             	mov    0x10(%ebp),%edx
   30f00:	8b 45 08             	mov    0x8(%ebp),%eax
   30f03:	89 50 38             	mov    %edx,0x38(%eax)
   30f06:	8b 45 08             	mov    0x8(%ebp),%eax
   30f09:	c7 40 2c 00 00 00 00 	movl   $0x0,0x2c(%eax)
   30f10:	8b 45 08             	mov    0x8(%ebp),%eax
   30f13:	c7 40 20 00 00 00 00 	movl   $0x0,0x20(%eax)
   30f1a:	8b 45 08             	mov    0x8(%ebp),%eax
   30f1d:	c7 40 28 00 00 00 00 	movl   $0x0,0x28(%eax)
   30f24:	8b 45 08             	mov    0x8(%ebp),%eax
   30f27:	c7 40 24 00 00 00 00 	movl   $0x0,0x24(%eax)
   30f2e:	8b 45 08             	mov    0x8(%ebp),%eax
   30f31:	c7 40 10 00 00 00 00 	movl   $0x0,0x10(%eax)
   30f38:	8b 45 08             	mov    0x8(%ebp),%eax
   30f3b:	c7 40 14 00 00 00 00 	movl   $0x0,0x14(%eax)
   30f42:	8b 45 08             	mov    0x8(%ebp),%eax
   30f45:	c7 40 18 00 00 00 00 	movl   $0x0,0x18(%eax)
   30f4c:	8b 55 18             	mov    0x18(%ebp),%edx
   30f4f:	8b 45 08             	mov    0x8(%ebp),%eax
   30f52:	89 50 40             	mov    %edx,0x40(%eax)
   30f55:	8b 55 1c             	mov    0x1c(%ebp),%edx
   30f58:	8b 45 08             	mov    0x8(%ebp),%eax
   30f5b:	89 50 44             	mov    %edx,0x44(%eax)
   30f5e:	8b 55 20             	mov    0x20(%ebp),%edx
   30f61:	8b 45 08             	mov    0x8(%ebp),%eax
   30f64:	89 50 0c             	mov    %edx,0xc(%eax)
   30f67:	8b 55 24             	mov    0x24(%ebp),%edx
   30f6a:	8b 45 08             	mov    0x8(%ebp),%eax
   30f6d:	89 50 08             	mov    %edx,0x8(%eax)
   30f70:	8b 45 08             	mov    0x8(%ebp),%eax
   30f73:	c7 40 04 00 00 00 00 	movl   $0x0,0x4(%eax)
   30f7a:	8b 45 08             	mov    0x8(%ebp),%eax
   30f7d:	c7 00 1b 00 00 00    	movl   $0x1b,(%eax)
   30f83:	8b 55 14             	mov    0x14(%ebp),%edx
   30f86:	8b 45 08             	mov    0x8(%ebp),%eax
   30f89:	89 50 3c             	mov    %edx,0x3c(%eax)
   30f8c:	5d                   	pop    %ebp
   30f8d:	c3                   	ret    

00030f8e <initProcess>:
   30f8e:	55                   	push   %ebp
   30f8f:	89 e5                	mov    %esp,%ebp
   30f91:	8b 55 0c             	mov    0xc(%ebp),%edx
   30f94:	8b 45 08             	mov    0x8(%ebp),%eax
   30f97:	89 50 4c             	mov    %edx,0x4c(%eax)
   30f9a:	8b 55 10             	mov    0x10(%ebp),%edx
   30f9d:	8b 45 08             	mov    0x8(%ebp),%eax
   30fa0:	89 50 50             	mov    %edx,0x50(%eax)
   30fa3:	8b 55 14             	mov    0x14(%ebp),%edx
   30fa6:	8b 45 08             	mov    0x8(%ebp),%eax
   30fa9:	89 90 d4 28 00 00    	mov    %edx,0x28d4(%eax)
   30faf:	8b 55 18             	mov    0x18(%ebp),%edx
   30fb2:	8b 45 08             	mov    0x8(%ebp),%eax
   30fb5:	89 90 d8 28 00 00    	mov    %edx,0x28d8(%eax)
   30fbb:	8b 45 08             	mov    0x8(%ebp),%eax
   30fbe:	c7 80 dc 28 00 00 00 	movl   $0x0,0x28dc(%eax)
   30fc5:	00 00 00 
   30fc8:	8b 45 08             	mov    0x8(%ebp),%eax
   30fcb:	c7 80 e0 28 00 00 00 	movl   $0x0,0x28e0(%eax)
   30fd2:	00 00 00 
   30fd5:	8b 45 08             	mov    0x8(%ebp),%eax
   30fd8:	c7 80 e8 28 00 00 00 	movl   $0x0,0x28e8(%eax)
   30fdf:	00 00 00 
   30fe2:	8b 45 08             	mov    0x8(%ebp),%eax
   30fe5:	c7 80 ec 28 00 00 00 	movl   $0x0,0x28ec(%eax)
   30fec:	00 00 00 
   30fef:	8b 45 08             	mov    0x8(%ebp),%eax
   30ff2:	c7 80 f0 28 00 00 00 	movl   $0x0,0x28f0(%eax)
   30ff9:	00 00 00 
   30ffc:	8b 45 08             	mov    0x8(%ebp),%eax
   30fff:	c7 80 f4 28 00 00 8c 	movl   $0x8c,0x28f4(%eax)
   31006:	00 00 00 
   31009:	8b 45 08             	mov    0x8(%ebp),%eax
   3100c:	c7 80 e4 28 00 00 8c 	movl   $0x8c,0x28e4(%eax)
   31013:	00 00 00 
   31016:	8b 45 08             	mov    0x8(%ebp),%eax
   31019:	c7 80 f8 28 00 00 00 	movl   $0x0,0x28f8(%eax)
   31020:	00 00 00 
   31023:	5d                   	pop    %ebp
   31024:	c3                   	ret    

00031025 <init_process_table>:
   31025:	55                   	push   %ebp
   31026:	89 e5                	mov    %esp,%ebp
   31028:	83 ec 18             	sub    $0x18,%esp
   3102b:	c7 45 fc 00 00 00 00 	movl   $0x0,0xfffffffc(%ebp)
   31032:	c7 45 fc 00 00 00 00 	movl   $0x0,0xfffffffc(%ebp)
   31039:	eb 17                	jmp    31052 <init_process_table+0x2d>
   3103b:	8b 45 fc             	mov    0xfffffffc(%ebp),%eax
   3103e:	69 c0 fc 28 00 00    	imul   $0x28fc,%eax,%eax
   31044:	c7 80 fc b2 03 00 01 	movl   $0x1,0x3b2fc(%eax)
   3104b:	00 00 00 
   3104e:	83 45 fc 01          	addl   $0x1,0xfffffffc(%ebp)
   31052:	83 7d fc 27          	cmpl   $0x27,0xfffffffc(%ebp)
   31056:	7e e3                	jle    3103b <init_process_table+0x16>
   31058:	e8 bd 31 00 00       	call   3421a <init_normal_process>
   3105d:	c7 05 24 78 03 00 00 	movl   $0x0,0x37824
   31064:	00 00 00 
   31067:	c7 05 2c 78 03 00 0b 	movl   $0xb,0x3782c
   3106e:	00 00 00 
   31071:	e8 7a 1c 00 00       	call   32cf0 <init_tasks>
   31076:	c9                   	leave  
   31077:	c3                   	ret    

00031078 <getProPointer>:
   31078:	55                   	push   %ebp
   31079:	89 e5                	mov    %esp,%ebp
   3107b:	8b 45 08             	mov    0x8(%ebp),%eax
   3107e:	69 c0 fc 28 00 00    	imul   $0x28fc,%eax,%eax
   31084:	89 c2                	mov    %eax,%edx
   31086:	b8 20 8a 03 00       	mov    $0x38a20,%eax
   3108b:	2d fc 28 00 00       	sub    $0x28fc,%eax
   31090:	8d 04 02             	lea    (%edx,%eax,1),%eax
   31093:	5d                   	pop    %ebp
   31094:	c3                   	ret    

00031095 <add_system_task>:
   31095:	55                   	push   %ebp
   31096:	89 e5                	mov    %esp,%ebp
   31098:	83 ec 38             	sub    $0x38,%esp
   3109b:	a1 24 78 03 00       	mov    0x37824,%eax
   310a0:	69 c0 fc 28 00 00    	imul   $0x28fc,%eax,%eax
   310a6:	05 20 8a 03 00       	add    $0x38a20,%eax
   310ab:	89 45 f8             	mov    %eax,0xfffffff8(%ebp)
   310ae:	a1 24 78 03 00       	mov    0x37824,%eax
   310b3:	83 c0 01             	add    $0x1,%eax
   310b6:	a3 24 78 03 00       	mov    %eax,0x37824
   310bb:	c7 45 fc 02 12 00 00 	movl   $0x1202,0xfffffffc(%ebp)
   310c2:	8b 45 f8             	mov    0xfffffff8(%ebp),%eax
   310c5:	05 d4 00 00 00       	add    $0xd4,%eax
   310ca:	05 ff 27 00 00       	add    $0x27ff,%eax
   310cf:	c7 44 24 1c 15 00 00 	movl   $0x15,0x1c(%esp)
   310d6:	00 
   310d7:	c7 44 24 18 0d 00 00 	movl   $0xd,0x18(%esp)
   310de:	00 
   310df:	c7 44 24 14 1d 00 00 	movl   $0x1d,0x14(%esp)
   310e6:	00 
   310e7:	89 44 24 10          	mov    %eax,0x10(%esp)
   310eb:	8b 45 fc             	mov    0xfffffffc(%ebp),%eax
   310ee:	89 44 24 0c          	mov    %eax,0xc(%esp)
   310f2:	c7 44 24 08 05 00 00 	movl   $0x5,0x8(%esp)
   310f9:	00 
   310fa:	8b 45 08             	mov    0x8(%ebp),%eax
   310fd:	89 44 24 04          	mov    %eax,0x4(%esp)
   31101:	8b 45 f8             	mov    0xfffffff8(%ebp),%eax
   31104:	89 04 24             	mov    %eax,(%esp)
   31107:	e8 db fd ff ff       	call   30ee7 <set_process_regs>
   3110c:	c7 44 24 10 00 00 00 	movl   $0x0,0x10(%esp)
   31113:	00 
   31114:	c7 44 24 0c 01 00 00 	movl   $0x1,0xc(%esp)
   3111b:	00 
   3111c:	c7 44 24 08 1e 00 00 	movl   $0x1e,0x8(%esp)
   31123:	00 
   31124:	c7 44 24 04 1e 00 00 	movl   $0x1e,0x4(%esp)
   3112b:	00 
   3112c:	8b 45 f8             	mov    0xfffffff8(%ebp),%eax
   3112f:	89 04 24             	mov    %eax,(%esp)
   31132:	e8 57 fe ff ff       	call   30f8e <initProcess>
   31137:	8b 45 f8             	mov    0xfffffff8(%ebp),%eax
   3113a:	83 c0 54             	add    $0x54,%eax
   3113d:	89 c2                	mov    %eax,%edx
   3113f:	a1 2c 78 03 00       	mov    0x3782c,%eax
   31144:	c7 44 24 0c a2 40 00 	movl   $0x40a2,0xc(%esp)
   3114b:	00 
   3114c:	c7 44 24 08 7f 00 00 	movl   $0x7f,0x8(%esp)
   31153:	00 
   31154:	89 54 24 04          	mov    %edx,0x4(%esp)
   31158:	89 04 24             	mov    %eax,(%esp)
   3115b:	e8 14 13 00 00       	call   32474 <setGDTEntry>
   31160:	a1 2c 78 03 00       	mov    0x3782c,%eax
   31165:	c1 e0 03             	shl    $0x3,%eax
   31168:	83 c0 01             	add    $0x1,%eax
   3116b:	89 c2                	mov    %eax,%edx
   3116d:	8b 45 f8             	mov    0xfffffff8(%ebp),%eax
   31170:	89 50 48             	mov    %edx,0x48(%eax)
   31173:	a1 2c 78 03 00       	mov    0x3782c,%eax
   31178:	83 c0 01             	add    $0x1,%eax
   3117b:	a3 2c 78 03 00       	mov    %eax,0x3782c
   31180:	8b 45 f8             	mov    0xfffffff8(%ebp),%eax
   31183:	83 c0 54             	add    $0x54,%eax
   31186:	c7 44 24 10 ba c0 00 	movl   $0xc0ba,0x10(%esp)
   3118d:	00 
   3118e:	c7 44 24 0c ff ff 00 	movl   $0xffff,0xc(%esp)
   31195:	00 
   31196:	c7 44 24 08 00 00 00 	movl   $0x0,0x8(%esp)
   3119d:	00 
   3119e:	c7 44 24 04 00 00 00 	movl   $0x0,0x4(%esp)
   311a5:	00 
   311a6:	89 04 24             	mov    %eax,(%esp)
   311a9:	e8 9e fc ff ff       	call   30e4c <setLDTEntry>
   311ae:	8b 45 f8             	mov    0xfffffff8(%ebp),%eax
   311b1:	83 c0 54             	add    $0x54,%eax
   311b4:	c7 44 24 10 b2 c0 00 	movl   $0xc0b2,0x10(%esp)
   311bb:	00 
   311bc:	c7 44 24 0c ff ff 00 	movl   $0xffff,0xc(%esp)
   311c3:	00 
   311c4:	c7 44 24 08 00 00 00 	movl   $0x0,0x8(%esp)
   311cb:	00 
   311cc:	c7 44 24 04 01 00 00 	movl   $0x1,0x4(%esp)
   311d3:	00 
   311d4:	89 04 24             	mov    %eax,(%esp)
   311d7:	e8 70 fc ff ff       	call   30e4c <setLDTEntry>
   311dc:	8b 45 f8             	mov    0xfffffff8(%ebp),%eax
   311df:	83 c0 54             	add    $0x54,%eax
   311e2:	c7 44 24 10 b2 c0 00 	movl   $0xc0b2,0x10(%esp)
   311e9:	00 
   311ea:	c7 44 24 0c ff ff 00 	movl   $0xffff,0xc(%esp)
   311f1:	00 
   311f2:	c7 44 24 08 00 00 00 	movl   $0x0,0x8(%esp)
   311f9:	00 
   311fa:	c7 44 24 04 02 00 00 	movl   $0x2,0x4(%esp)
   31201:	00 
   31202:	89 04 24             	mov    %eax,(%esp)
   31205:	e8 42 fc ff ff       	call   30e4c <setLDTEntry>
   3120a:	8b 45 f8             	mov    0xfffffff8(%ebp),%eax
   3120d:	05 d4 00 00 00       	add    $0xd4,%eax
   31212:	05 ff 27 00 00       	add    $0x27ff,%eax
   31217:	8b 55 f8             	mov    0xfffffff8(%ebp),%edx
   3121a:	83 c2 54             	add    $0x54,%edx
   3121d:	c7 44 24 10 b2 40 00 	movl   $0x40b2,0x10(%esp)
   31224:	00 
   31225:	89 44 24 0c          	mov    %eax,0xc(%esp)
   31229:	c7 44 24 08 00 00 00 	movl   $0x0,0x8(%esp)
   31230:	00 
   31231:	c7 44 24 04 03 00 00 	movl   $0x3,0x4(%esp)
   31238:	00 
   31239:	89 14 24             	mov    %edx,(%esp)
   3123c:	e8 0b fc ff ff       	call   30e4c <setLDTEntry>
   31241:	c9                   	leave  
   31242:	c3                   	ret    
   31243:	90                   	nop    

00031244 <schedule>:
   31244:	55                   	push   %ebp
   31245:	89 e5                	mov    %esp,%ebp
   31247:	83 ec 28             	sub    $0x28,%esp
   3124a:	c7 45 f0 00 00 00 00 	movl   $0x0,0xfffffff0(%ebp)
   31251:	c7 45 f4 ff ff ff ff 	movl   $0xffffffff,0xfffffff4(%ebp)
   31258:	c7 45 f8 00 00 00 00 	movl   $0x0,0xfffffff8(%ebp)
   3125f:	a1 00 81 03 00       	mov    0x38100,%eax
   31264:	89 45 fc             	mov    %eax,0xfffffffc(%ebp)
   31267:	a1 00 b3 03 00       	mov    0x3b300,%eax
   3126c:	85 c0                	test   %eax,%eax
   3126e:	74 0e                	je     3127e <schedule+0x3a>
   31270:	c7 04 24 60 48 03 00 	movl   $0x34860,(%esp)
   31277:	e8 64 0e 00 00       	call   320e0 <printf_kernel>
   3127c:	fa                   	cli    
   3127d:	f4                   	hlt    
   3127e:	a1 00 81 03 00       	mov    0x38100,%eax
   31283:	89 45 ec             	mov    %eax,0xffffffec(%ebp)
   31286:	eb 32                	jmp    312ba <schedule+0x76>
   31288:	8b 45 ec             	mov    0xffffffec(%ebp),%eax
   3128b:	69 c0 fc 28 00 00    	imul   $0x28fc,%eax,%eax
   31291:	8b 80 fc b2 03 00    	mov    0x3b2fc(%eax),%eax
   31297:	85 c0                	test   %eax,%eax
   31299:	75 1b                	jne    312b6 <schedule+0x72>
   3129b:	8b 45 ec             	mov    0xffffffec(%ebp),%eax
   3129e:	69 c0 fc 28 00 00    	imul   $0x28fc,%eax,%eax
   312a4:	8b 80 00 b3 03 00    	mov    0x3b300(%eax),%eax
   312aa:	85 c0                	test   %eax,%eax
   312ac:	75 08                	jne    312b6 <schedule+0x72>
   312ae:	8b 45 ec             	mov    0xffffffec(%ebp),%eax
   312b1:	89 45 f4             	mov    %eax,0xfffffff4(%ebp)
   312b4:	eb 0a                	jmp    312c0 <schedule+0x7c>
   312b6:	83 45 ec 01          	addl   $0x1,0xffffffec(%ebp)
   312ba:	83 7d ec 27          	cmpl   $0x27,0xffffffec(%ebp)
   312be:	7e c8                	jle    31288 <schedule+0x44>
   312c0:	83 7d f4 ff          	cmpl   $0xffffffff,0xfffffff4(%ebp)
   312c4:	75 4b                	jne    31311 <schedule+0xcd>
   312c6:	c7 45 ec 00 00 00 00 	movl   $0x0,0xffffffec(%ebp)
   312cd:	eb 32                	jmp    31301 <schedule+0xbd>
   312cf:	8b 45 ec             	mov    0xffffffec(%ebp),%eax
   312d2:	69 c0 fc 28 00 00    	imul   $0x28fc,%eax,%eax
   312d8:	8b 80 fc b2 03 00    	mov    0x3b2fc(%eax),%eax
   312de:	85 c0                	test   %eax,%eax
   312e0:	75 1b                	jne    312fd <schedule+0xb9>
   312e2:	8b 45 ec             	mov    0xffffffec(%ebp),%eax
   312e5:	69 c0 fc 28 00 00    	imul   $0x28fc,%eax,%eax
   312eb:	8b 80 00 b3 03 00    	mov    0x3b300(%eax),%eax
   312f1:	85 c0                	test   %eax,%eax
   312f3:	75 08                	jne    312fd <schedule+0xb9>
   312f5:	8b 45 ec             	mov    0xffffffec(%ebp),%eax
   312f8:	89 45 f4             	mov    %eax,0xfffffff4(%ebp)
   312fb:	eb 14                	jmp    31311 <schedule+0xcd>
   312fd:	83 45 ec 01          	addl   $0x1,0xffffffec(%ebp)
   31301:	8b 45 ec             	mov    0xffffffec(%ebp),%eax
   31304:	8b 15 00 81 03 00    	mov    0x38100,%edx
   3130a:	83 ea 01             	sub    $0x1,%edx
   3130d:	39 d0                	cmp    %edx,%eax
   3130f:	72 be                	jb     312cf <schedule+0x8b>
   31311:	83 7d f4 ff          	cmpl   $0xffffffff,0xfffffff4(%ebp)
   31315:	75 28                	jne    3133f <schedule+0xfb>
   31317:	a1 00 81 03 00       	mov    0x38100,%eax
   3131c:	83 e8 01             	sub    $0x1,%eax
   3131f:	69 c0 fc 28 00 00    	imul   $0x28fc,%eax,%eax
   31325:	8b 80 00 b3 03 00    	mov    0x3b300(%eax),%eax
   3132b:	85 c0                	test   %eax,%eax
   3132d:	74 1b                	je     3134a <schedule+0x106>
   3132f:	c7 04 24 78 48 03 00 	movl   $0x34878,(%esp)
   31336:	e8 a5 0d 00 00       	call   320e0 <printf_kernel>
   3133b:	fa                   	cli    
   3133c:	f4                   	hlt    
   3133d:	eb 0b                	jmp    3134a <schedule+0x106>
   3133f:	8b 45 f4             	mov    0xfffffff4(%ebp),%eax
   31342:	83 c0 01             	add    $0x1,%eax
   31345:	a3 00 81 03 00       	mov    %eax,0x38100
   3134a:	c9                   	leave  
   3134b:	c3                   	ret    

0003134c <init_idt_desc>:
   3134c:	55                   	push   %ebp
   3134d:	89 e5                	mov    %esp,%ebp
   3134f:	83 ec 1c             	sub    $0x1c,%esp
   31352:	8b 45 08             	mov    0x8(%ebp),%eax
   31355:	8b 55 0c             	mov    0xc(%ebp),%edx
   31358:	8b 4d 14             	mov    0x14(%ebp),%ecx
   3135b:	88 45 ec             	mov    %al,0xffffffec(%ebp)
   3135e:	88 55 e8             	mov    %dl,0xffffffe8(%ebp)
   31361:	88 4d e4             	mov    %cl,0xffffffe4(%ebp)
   31364:	0f b6 45 ec          	movzbl 0xffffffec(%ebp),%eax
   31368:	c1 e0 03             	shl    $0x3,%eax
   3136b:	05 00 82 03 00       	add    $0x38200,%eax
   31370:	89 45 f8             	mov    %eax,0xfffffff8(%ebp)
   31373:	8b 45 10             	mov    0x10(%ebp),%eax
   31376:	89 45 fc             	mov    %eax,0xfffffffc(%ebp)
   31379:	8b 45 fc             	mov    0xfffffffc(%ebp),%eax
   3137c:	89 c2                	mov    %eax,%edx
   3137e:	8b 45 f8             	mov    0xfffffff8(%ebp),%eax
   31381:	66 89 10             	mov    %dx,(%eax)
   31384:	8b 45 fc             	mov    0xfffffffc(%ebp),%eax
   31387:	c1 e8 10             	shr    $0x10,%eax
   3138a:	89 c2                	mov    %eax,%edx
   3138c:	8b 45 f8             	mov    0xfffffff8(%ebp),%eax
   3138f:	66 89 50 06          	mov    %dx,0x6(%eax)
   31393:	8b 45 f8             	mov    0xfffffff8(%ebp),%eax
   31396:	66 c7 40 02 08 00    	movw   $0x8,0x2(%eax)
   3139c:	0f b6 45 e4          	movzbl 0xffffffe4(%ebp),%eax
   313a0:	c1 e0 05             	shl    $0x5,%eax
   313a3:	89 c2                	mov    %eax,%edx
   313a5:	0f b6 45 e8          	movzbl 0xffffffe8(%ebp),%eax
   313a9:	09 d0                	or     %edx,%eax
   313ab:	89 c2                	mov    %eax,%edx
   313ad:	8b 45 f8             	mov    0xfffffff8(%ebp),%eax
   313b0:	88 50 05             	mov    %dl,0x5(%eax)
   313b3:	8b 45 f8             	mov    0xfffffff8(%ebp),%eax
   313b6:	c6 40 04 00          	movb   $0x0,0x4(%eax)
   313ba:	c9                   	leave  
   313bb:	c3                   	ret    

000313bc <init_prot>:
   313bc:	55                   	push   %ebp
   313bd:	89 e5                	mov    %esp,%ebp
   313bf:	83 ec 18             	sub    $0x18,%esp
   313c2:	e8 39 06 00 00       	call   31a00 <init_8259A>
   313c7:	c7 44 24 0c 00 00 00 	movl   $0x0,0xc(%esp)
   313ce:	00 
   313cf:	c7 44 24 08 00 19 03 	movl   $0x31900,0x8(%esp)
   313d6:	00 
   313d7:	c7 44 24 04 8e 00 00 	movl   $0x8e,0x4(%esp)
   313de:	00 
   313df:	c7 04 24 00 00 00 00 	movl   $0x0,(%esp)
   313e6:	e8 61 ff ff ff       	call   3134c <init_idt_desc>
   313eb:	c7 44 24 0c 00 00 00 	movl   $0x0,0xc(%esp)
   313f2:	00 
   313f3:	c7 44 24 08 0f 19 03 	movl   $0x3190f,0x8(%esp)
   313fa:	00 
   313fb:	c7 44 24 04 8e 00 00 	movl   $0x8e,0x4(%esp)
   31402:	00 
   31403:	c7 04 24 01 00 00 00 	movl   $0x1,(%esp)
   3140a:	e8 3d ff ff ff       	call   3134c <init_idt_desc>
   3140f:	c7 44 24 0c 00 00 00 	movl   $0x0,0xc(%esp)
   31416:	00 
   31417:	c7 44 24 08 1e 19 03 	movl   $0x3191e,0x8(%esp)
   3141e:	00 
   3141f:	c7 44 24 04 8e 00 00 	movl   $0x8e,0x4(%esp)
   31426:	00 
   31427:	c7 04 24 02 00 00 00 	movl   $0x2,(%esp)
   3142e:	e8 19 ff ff ff       	call   3134c <init_idt_desc>
   31433:	c7 44 24 0c 03 00 00 	movl   $0x3,0xc(%esp)
   3143a:	00 
   3143b:	c7 44 24 08 2d 19 03 	movl   $0x3192d,0x8(%esp)
   31442:	00 
   31443:	c7 44 24 04 8e 00 00 	movl   $0x8e,0x4(%esp)
   3144a:	00 
   3144b:	c7 04 24 03 00 00 00 	movl   $0x3,(%esp)
   31452:	e8 f5 fe ff ff       	call   3134c <init_idt_desc>
   31457:	c7 44 24 0c 00 00 00 	movl   $0x0,0xc(%esp)
   3145e:	00 
   3145f:	c7 44 24 08 3c 19 03 	movl   $0x3193c,0x8(%esp)
   31466:	00 
   31467:	c7 44 24 04 8e 00 00 	movl   $0x8e,0x4(%esp)
   3146e:	00 
   3146f:	c7 04 24 04 00 00 00 	movl   $0x4,(%esp)
   31476:	e8 d1 fe ff ff       	call   3134c <init_idt_desc>
   3147b:	c7 44 24 0c 00 00 00 	movl   $0x0,0xc(%esp)
   31482:	00 
   31483:	c7 44 24 08 4b 19 03 	movl   $0x3194b,0x8(%esp)
   3148a:	00 
   3148b:	c7 44 24 04 8e 00 00 	movl   $0x8e,0x4(%esp)
   31492:	00 
   31493:	c7 04 24 05 00 00 00 	movl   $0x5,(%esp)
   3149a:	e8 ad fe ff ff       	call   3134c <init_idt_desc>
   3149f:	c7 44 24 0c 00 00 00 	movl   $0x0,0xc(%esp)
   314a6:	00 
   314a7:	c7 44 24 08 5a 19 03 	movl   $0x3195a,0x8(%esp)
   314ae:	00 
   314af:	c7 44 24 04 8e 00 00 	movl   $0x8e,0x4(%esp)
   314b6:	00 
   314b7:	c7 04 24 06 00 00 00 	movl   $0x6,(%esp)
   314be:	e8 89 fe ff ff       	call   3134c <init_idt_desc>
   314c3:	c7 44 24 0c 00 00 00 	movl   $0x0,0xc(%esp)
   314ca:	00 
   314cb:	c7 44 24 08 69 19 03 	movl   $0x31969,0x8(%esp)
   314d2:	00 
   314d3:	c7 44 24 04 8e 00 00 	movl   $0x8e,0x4(%esp)
   314da:	00 
   314db:	c7 04 24 07 00 00 00 	movl   $0x7,(%esp)
   314e2:	e8 65 fe ff ff       	call   3134c <init_idt_desc>
   314e7:	c7 44 24 0c 00 00 00 	movl   $0x0,0xc(%esp)
   314ee:	00 
   314ef:	c7 44 24 08 78 19 03 	movl   $0x31978,0x8(%esp)
   314f6:	00 
   314f7:	c7 44 24 04 8e 00 00 	movl   $0x8e,0x4(%esp)
   314fe:	00 
   314ff:	c7 04 24 08 00 00 00 	movl   $0x8,(%esp)
   31506:	e8 41 fe ff ff       	call   3134c <init_idt_desc>
   3150b:	c7 44 24 0c 00 00 00 	movl   $0x0,0xc(%esp)
   31512:	00 
   31513:	c7 44 24 08 82 19 03 	movl   $0x31982,0x8(%esp)
   3151a:	00 
   3151b:	c7 44 24 04 8e 00 00 	movl   $0x8e,0x4(%esp)
   31522:	00 
   31523:	c7 04 24 09 00 00 00 	movl   $0x9,(%esp)
   3152a:	e8 1d fe ff ff       	call   3134c <init_idt_desc>
   3152f:	c7 44 24 0c 00 00 00 	movl   $0x0,0xc(%esp)
   31536:	00 
   31537:	c7 44 24 08 91 19 03 	movl   $0x31991,0x8(%esp)
   3153e:	00 
   3153f:	c7 44 24 04 8e 00 00 	movl   $0x8e,0x4(%esp)
   31546:	00 
   31547:	c7 04 24 0a 00 00 00 	movl   $0xa,(%esp)
   3154e:	e8 f9 fd ff ff       	call   3134c <init_idt_desc>
   31553:	c7 44 24 0c 00 00 00 	movl   $0x0,0xc(%esp)
   3155a:	00 
   3155b:	c7 44 24 08 9b 19 03 	movl   $0x3199b,0x8(%esp)
   31562:	00 
   31563:	c7 44 24 04 8e 00 00 	movl   $0x8e,0x4(%esp)
   3156a:	00 
   3156b:	c7 04 24 0b 00 00 00 	movl   $0xb,(%esp)
   31572:	e8 d5 fd ff ff       	call   3134c <init_idt_desc>
   31577:	c7 44 24 0c 00 00 00 	movl   $0x0,0xc(%esp)
   3157e:	00 
   3157f:	c7 44 24 08 a5 19 03 	movl   $0x319a5,0x8(%esp)
   31586:	00 
   31587:	c7 44 24 04 8e 00 00 	movl   $0x8e,0x4(%esp)
   3158e:	00 
   3158f:	c7 04 24 0c 00 00 00 	movl   $0xc,(%esp)
   31596:	e8 b1 fd ff ff       	call   3134c <init_idt_desc>
   3159b:	c7 44 24 0c 00 00 00 	movl   $0x0,0xc(%esp)
   315a2:	00 
   315a3:	c7 44 24 08 af 19 03 	movl   $0x319af,0x8(%esp)
   315aa:	00 
   315ab:	c7 44 24 04 8e 00 00 	movl   $0x8e,0x4(%esp)
   315b2:	00 
   315b3:	c7 04 24 0d 00 00 00 	movl   $0xd,(%esp)
   315ba:	e8 8d fd ff ff       	call   3134c <init_idt_desc>
   315bf:	c7 44 24 0c 00 00 00 	movl   $0x0,0xc(%esp)
   315c6:	00 
   315c7:	c7 44 24 08 b9 19 03 	movl   $0x319b9,0x8(%esp)
   315ce:	00 
   315cf:	c7 44 24 04 8e 00 00 	movl   $0x8e,0x4(%esp)
   315d6:	00 
   315d7:	c7 04 24 0e 00 00 00 	movl   $0xe,(%esp)
   315de:	e8 69 fd ff ff       	call   3134c <init_idt_desc>
   315e3:	c7 44 24 0c 00 00 00 	movl   $0x0,0xc(%esp)
   315ea:	00 
   315eb:	c7 44 24 08 c3 19 03 	movl   $0x319c3,0x8(%esp)
   315f2:	00 
   315f3:	c7 44 24 04 8e 00 00 	movl   $0x8e,0x4(%esp)
   315fa:	00 
   315fb:	c7 04 24 10 00 00 00 	movl   $0x10,(%esp)
   31602:	e8 45 fd ff ff       	call   3134c <init_idt_desc>
   31607:	c7 44 24 0c 00 00 00 	movl   $0x0,0xc(%esp)
   3160e:	00 
   3160f:	c7 44 24 08 d2 19 03 	movl   $0x319d2,0x8(%esp)
   31616:	00 
   31617:	c7 44 24 04 8e 00 00 	movl   $0x8e,0x4(%esp)
   3161e:	00 
   3161f:	c7 04 24 11 00 00 00 	movl   $0x11,(%esp)
   31626:	e8 21 fd ff ff       	call   3134c <init_idt_desc>
   3162b:	c7 44 24 0c 00 00 00 	movl   $0x0,0xc(%esp)
   31632:	00 
   31633:	c7 44 24 08 dc 19 03 	movl   $0x319dc,0x8(%esp)
   3163a:	00 
   3163b:	c7 44 24 04 8e 00 00 	movl   $0x8e,0x4(%esp)
   31642:	00 
   31643:	c7 04 24 12 00 00 00 	movl   $0x12,(%esp)
   3164a:	e8 fd fc ff ff       	call   3134c <init_idt_desc>
   3164f:	c7 44 24 0c 00 00 00 	movl   $0x0,0xc(%esp)
   31656:	00 
   31657:	c7 44 24 08 eb 19 03 	movl   $0x319eb,0x8(%esp)
   3165e:	00 
   3165f:	c7 44 24 04 8e 00 00 	movl   $0x8e,0x4(%esp)
   31666:	00 
   31667:	c7 04 24 13 00 00 00 	movl   $0x13,(%esp)
   3166e:	e8 d9 fc ff ff       	call   3134c <init_idt_desc>
   31673:	c7 44 24 0c 00 00 00 	movl   $0x0,0xc(%esp)
   3167a:	00 
   3167b:	c7 44 24 08 30 25 03 	movl   $0x32530,0x8(%esp)
   31682:	00 
   31683:	c7 44 24 04 8e 00 00 	movl   $0x8e,0x4(%esp)
   3168a:	00 
   3168b:	c7 04 24 20 00 00 00 	movl   $0x20,(%esp)
   31692:	e8 b5 fc ff ff       	call   3134c <init_idt_desc>
   31697:	c7 44 24 0c 00 00 00 	movl   $0x0,0xc(%esp)
   3169e:	00 
   3169f:	c7 44 24 08 6f 25 03 	movl   $0x3256f,0x8(%esp)
   316a6:	00 
   316a7:	c7 44 24 04 8e 00 00 	movl   $0x8e,0x4(%esp)
   316ae:	00 
   316af:	c7 04 24 21 00 00 00 	movl   $0x21,(%esp)
   316b6:	e8 91 fc ff ff       	call   3134c <init_idt_desc>
   316bb:	c7 44 24 0c 03 00 00 	movl   $0x3,0xc(%esp)
   316c2:	00 
   316c3:	c7 44 24 08 84 18 03 	movl   $0x31884,0x8(%esp)
   316ca:	00 
   316cb:	c7 44 24 04 8e 00 00 	movl   $0x8e,0x4(%esp)
   316d2:	00 
   316d3:	c7 04 24 90 00 00 00 	movl   $0x90,(%esp)
   316da:	e8 6d fc ff ff       	call   3134c <init_idt_desc>
   316df:	c9                   	leave  
   316e0:	c3                   	ret    

000316e1 <set_hd_handler>:
   316e1:	55                   	push   %ebp
   316e2:	89 e5                	mov    %esp,%ebp
   316e4:	83 ec 10             	sub    $0x10,%esp
   316e7:	c7 44 24 0c 00 00 00 	movl   $0x0,0xc(%esp)
   316ee:	00 
   316ef:	8b 45 08             	mov    0x8(%ebp),%eax
   316f2:	89 44 24 08          	mov    %eax,0x8(%esp)
   316f6:	c7 44 24 04 8e 00 00 	movl   $0x8e,0x4(%esp)
   316fd:	00 
   316fe:	c7 04 24 2e 00 00 00 	movl   $0x2e,(%esp)
   31705:	e8 42 fc ff ff       	call   3134c <init_idt_desc>
   3170a:	c9                   	leave  
   3170b:	c3                   	ret    

0003170c <exception_handler>:
   3170c:	55                   	push   %ebp
   3170d:	89 e5                	mov    %esp,%ebp
   3170f:	83 ec 18             	sub    $0x18,%esp
   31712:	c7 45 f8 74 00 00 00 	movl   $0x74,0xfffffff8(%ebp)
   31719:	a1 00 81 03 00       	mov    0x38100,%eax
   3171e:	89 04 24             	mov    %eax,(%esp)
   31721:	e8 0f 06 00 00       	call   31d35 <pid2proc>
   31726:	89 45 fc             	mov    %eax,0xfffffffc(%ebp)
   31729:	8b 45 08             	mov    0x8(%ebp),%eax
   3172c:	89 44 24 04          	mov    %eax,0x4(%esp)
   31730:	c7 04 24 9c 48 03 00 	movl   $0x3489c,(%esp)
   31737:	e8 a4 09 00 00       	call   320e0 <printf_kernel>
   3173c:	8b 45 0c             	mov    0xc(%ebp),%eax
   3173f:	89 44 24 04          	mov    %eax,0x4(%esp)
   31743:	c7 04 24 bf 48 03 00 	movl   $0x348bf,(%esp)
   3174a:	e8 91 09 00 00       	call   320e0 <printf_kernel>
   3174f:	a1 00 81 03 00       	mov    0x38100,%eax
   31754:	89 44 24 04          	mov    %eax,0x4(%esp)
   31758:	c7 04 24 ce 48 03 00 	movl   $0x348ce,(%esp)
   3175f:	e8 7c 09 00 00       	call   320e0 <printf_kernel>
   31764:	8b 45 14             	mov    0x14(%ebp),%eax
   31767:	89 44 24 04          	mov    %eax,0x4(%esp)
   3176b:	c7 04 24 dd 48 03 00 	movl   $0x348dd,(%esp)
   31772:	e8 69 09 00 00       	call   320e0 <printf_kernel>
   31777:	8b 45 10             	mov    0x10(%ebp),%eax
   3177a:	89 44 24 04          	mov    %eax,0x4(%esp)
   3177e:	c7 04 24 ed 48 03 00 	movl   $0x348ed,(%esp)
   31785:	e8 56 09 00 00       	call   320e0 <printf_kernel>
   3178a:	a1 34 78 03 00       	mov    0x37834,%eax
   3178f:	89 44 24 04          	mov    %eax,0x4(%esp)
   31793:	c7 04 24 fe 48 03 00 	movl   $0x348fe,(%esp)
   3179a:	e8 41 09 00 00       	call   320e0 <printf_kernel>
   3179f:	a1 e8 7c 03 00       	mov    0x37ce8,%eax
   317a4:	89 44 24 04          	mov    %eax,0x4(%esp)
   317a8:	c7 04 24 16 49 03 00 	movl   $0x34916,(%esp)
   317af:	e8 2c 09 00 00       	call   320e0 <printf_kernel>
   317b4:	8b 45 fc             	mov    0xfffffffc(%ebp),%eax
   317b7:	8b 40 38             	mov    0x38(%eax),%eax
   317ba:	89 44 24 04          	mov    %eax,0x4(%esp)
   317be:	c7 04 24 24 49 03 00 	movl   $0x34924,(%esp)
   317c5:	e8 16 09 00 00       	call   320e0 <printf_kernel>
   317ca:	8b 45 fc             	mov    0xfffffffc(%ebp),%eax
   317cd:	8b 40 34             	mov    0x34(%eax),%eax
   317d0:	89 44 24 04          	mov    %eax,0x4(%esp)
   317d4:	c7 04 24 36 49 03 00 	movl   $0x34936,(%esp)
   317db:	e8 00 09 00 00       	call   320e0 <printf_kernel>
   317e0:	e8 e9 06 00 00       	call   31ece <printIPC>
   317e5:	c9                   	leave  
   317e6:	c3                   	ret    

000317e7 <debug>:
   317e7:	55                   	push   %ebp
   317e8:	89 e5                	mov    %esp,%ebp
   317ea:	83 ec 18             	sub    $0x18,%esp
   317ed:	8d 45 08             	lea    0x8(%ebp),%eax
   317f0:	83 e8 04             	sub    $0x4,%eax
   317f3:	89 45 fc             	mov    %eax,0xfffffffc(%ebp)
   317f6:	83 45 fc 08          	addl   $0x8,0xfffffffc(%ebp)
   317fa:	8b 45 fc             	mov    0xfffffffc(%ebp),%eax
   317fd:	8b 00                	mov    (%eax),%eax
   317ff:	89 44 24 04          	mov    %eax,0x4(%esp)
   31803:	c7 04 24 49 49 03 00 	movl   $0x34949,(%esp)
   3180a:	e8 d1 08 00 00       	call   320e0 <printf_kernel>
   3180f:	c9                   	leave  
   31810:	c3                   	ret    

00031811 <jumpout>:
   31811:	55                   	push   %ebp
   31812:	89 e5                	mov    %esp,%ebp
   31814:	83 ec 18             	sub    $0x18,%esp
   31817:	8d 45 08             	lea    0x8(%ebp),%eax
   3181a:	83 e8 04             	sub    $0x4,%eax
   3181d:	89 45 fc             	mov    %eax,0xfffffffc(%ebp)
   31820:	83 45 fc 08          	addl   $0x8,0xfffffffc(%ebp)
   31824:	8b 45 fc             	mov    0xfffffffc(%ebp),%eax
   31827:	8b 00                	mov    (%eax),%eax
   31829:	89 44 24 04          	mov    %eax,0x4(%esp)
   3182d:	c7 04 24 61 49 03 00 	movl   $0x34961,(%esp)
   31834:	e8 a7 08 00 00       	call   320e0 <printf_kernel>
   31839:	c9                   	leave  
   3183a:	c3                   	ret    

0003183b <printInterrupted>:
   3183b:	55                   	push   %ebp
   3183c:	89 e5                	mov    %esp,%ebp
   3183e:	83 ec 18             	sub    $0x18,%esp
   31841:	a1 00 81 03 00       	mov    0x38100,%eax
   31846:	89 04 24             	mov    %eax,(%esp)
   31849:	e8 e7 04 00 00       	call   31d35 <pid2proc>
   3184e:	89 45 fc             	mov    %eax,0xfffffffc(%ebp)
   31851:	c7 04 24 7a 49 03 00 	movl   $0x3497a,(%esp)
   31858:	e8 83 08 00 00       	call   320e0 <printf_kernel>
   3185d:	8b 45 fc             	mov    0xfffffffc(%ebp),%eax
   31860:	8b 40 34             	mov    0x34(%eax),%eax
   31863:	89 44 24 04          	mov    %eax,0x4(%esp)
   31867:	c7 04 24 86 49 03 00 	movl   $0x34986,(%esp)
   3186e:	e8 6d 08 00 00       	call   320e0 <printf_kernel>
   31873:	c9                   	leave  
   31874:	c3                   	ret    
   31875:	90                   	nop    
   31876:	90                   	nop    
   31877:	90                   	nop    
   31878:	90                   	nop    
   31879:	90                   	nop    
   3187a:	90                   	nop    
   3187b:	90                   	nop    
   3187c:	90                   	nop    
   3187d:	90                   	nop    
   3187e:	90                   	nop    
   3187f:	90                   	nop    

00031880 <__sys_call_local>:
   31880:	00 00                	add    %al,(%eax)
	...

00031884 <sys_call>:
   31884:	c7 05 38 78 03 00 01 	movl   $0x1,0x37838
   3188b:	00 00 00 
   3188e:	e8 10 0d 00 00       	call   325a3 <Save>
   31893:	fb                   	sti    
   31894:	52                   	push   %edx
   31895:	8b 15 00 81 03 00    	mov    0x38100,%edx
   3189b:	89 15 80 18 03 00    	mov    %edx,0x31880
   318a1:	5a                   	pop    %edx
   318a2:	55                   	push   %ebp
   318a3:	89 e5                	mov    %esp,%ebp
   318a5:	52                   	push   %edx
   318a6:	51                   	push   %ecx
   318a7:	53                   	push   %ebx
   318a8:	ff 35 80 18 03 00    	pushl  0x31880
   318ae:	ff 14 85 a0 81 03 00 	call   *0x381a0(,%eax,4)
   318b5:	81 c4 10 00 00 00    	add    $0x10,%esp
   318bb:	89 ec                	mov    %ebp,%esp
   318bd:	5d                   	pop    %ebp
   318be:	fa                   	cli    
   318bf:	c7 05 38 78 03 00 00 	movl   $0x0,0x37838
   318c6:	00 00 00 
   318c9:	c3                   	ret    

000318ca <printx>:
   318ca:	55                   	push   %ebp
   318cb:	89 e5                	mov    %esp,%ebp
   318cd:	8b 5d 08             	mov    0x8(%ebp),%ebx
   318d0:	8b 4d 0c             	mov    0xc(%ebp),%ecx
   318d3:	b8 01 00 00 00       	mov    $0x1,%eax
   318d8:	cd 90                	int    $0x90
   318da:	89 ec                	mov    %ebp,%esp
   318dc:	5d                   	pop    %ebp
   318dd:	c3                   	ret    

000318de <sendrec>:
   318de:	55                   	push   %ebp
   318df:	89 e5                	mov    %esp,%ebp
   318e1:	8b 5d 08             	mov    0x8(%ebp),%ebx
   318e4:	8b 4d 0c             	mov    0xc(%ebp),%ecx
   318e7:	8b 55 10             	mov    0x10(%ebp),%edx
   318ea:	b8 02 00 00 00       	mov    $0x2,%eax
   318ef:	cd 90                	int    $0x90
   318f1:	89 ec                	mov    %ebp,%esp
   318f3:	5d                   	pop    %ebp
   318f4:	c3                   	ret    
   318f5:	90                   	nop    
   318f6:	90                   	nop    
   318f7:	90                   	nop    
   318f8:	90                   	nop    
   318f9:	90                   	nop    
   318fa:	90                   	nop    
   318fb:	90                   	nop    
   318fc:	90                   	nop    
   318fd:	90                   	nop    
   318fe:	90                   	nop    
   318ff:	90                   	nop    

00031900 <divide_error>:
   31900:	68 ff ff ff ff       	push   $0xffffffff
   31905:	68 00 00 00 00       	push   $0x0
   3190a:	e9 eb 00 00 00       	jmp    319fa <exception>

0003190f <single_step_exception>:
   3190f:	68 ff ff ff ff       	push   $0xffffffff
   31914:	68 01 00 00 00       	push   $0x1
   31919:	e9 dc 00 00 00       	jmp    319fa <exception>

0003191e <nmi>:
   3191e:	68 ff ff ff ff       	push   $0xffffffff
   31923:	68 02 00 00 00       	push   $0x2
   31928:	e9 cd 00 00 00       	jmp    319fa <exception>

0003192d <breakpoint_exception>:
   3192d:	68 ff ff ff ff       	push   $0xffffffff
   31932:	68 03 00 00 00       	push   $0x3
   31937:	e9 be 00 00 00       	jmp    319fa <exception>

0003193c <overflow>:
   3193c:	68 ff ff ff ff       	push   $0xffffffff
   31941:	68 04 00 00 00       	push   $0x4
   31946:	e9 af 00 00 00       	jmp    319fa <exception>

0003194b <bounds_check>:
   3194b:	68 ff ff ff ff       	push   $0xffffffff
   31950:	68 05 00 00 00       	push   $0x5
   31955:	e9 a0 00 00 00       	jmp    319fa <exception>

0003195a <inval_opcode>:
   3195a:	68 ff ff ff ff       	push   $0xffffffff
   3195f:	68 06 00 00 00       	push   $0x6
   31964:	e9 91 00 00 00       	jmp    319fa <exception>

00031969 <copr_not_available>:
   31969:	68 ff ff ff ff       	push   $0xffffffff
   3196e:	68 07 00 00 00       	push   $0x7
   31973:	e9 82 00 00 00       	jmp    319fa <exception>

00031978 <double_fault>:
   31978:	68 08 00 00 00       	push   $0x8
   3197d:	e9 78 00 00 00       	jmp    319fa <exception>

00031982 <copr_seg_overrun>:
   31982:	68 ff ff ff ff       	push   $0xffffffff
   31987:	68 09 00 00 00       	push   $0x9
   3198c:	e9 69 00 00 00       	jmp    319fa <exception>

00031991 <inval_tss>:
   31991:	68 0a 00 00 00       	push   $0xa
   31996:	e9 5f 00 00 00       	jmp    319fa <exception>

0003199b <segment_not_present>:
   3199b:	68 0b 00 00 00       	push   $0xb
   319a0:	e9 55 00 00 00       	jmp    319fa <exception>

000319a5 <stack_exception>:
   319a5:	68 0c 00 00 00       	push   $0xc
   319aa:	e9 4b 00 00 00       	jmp    319fa <exception>

000319af <general_protection>:
   319af:	68 0d 00 00 00       	push   $0xd
   319b4:	e9 41 00 00 00       	jmp    319fa <exception>

000319b9 <page_fault>:
   319b9:	68 0e 00 00 00       	push   $0xe
   319be:	e9 37 00 00 00       	jmp    319fa <exception>

000319c3 <copr_error>:
   319c3:	68 ff ff ff ff       	push   $0xffffffff
   319c8:	68 10 00 00 00       	push   $0x10
   319cd:	e9 28 00 00 00       	jmp    319fa <exception>

000319d2 <align_error>:
   319d2:	68 11 00 00 00       	push   $0x11
   319d7:	e9 1e 00 00 00       	jmp    319fa <exception>

000319dc <machine_error>:
   319dc:	68 ff ff ff ff       	push   $0xffffffff
   319e1:	68 12 00 00 00       	push   $0x12
   319e6:	e9 0f 00 00 00       	jmp    319fa <exception>

000319eb <simd_error>:
   319eb:	68 ff ff ff ff       	push   $0xffffffff
   319f0:	68 13 00 00 00       	push   $0x13
   319f5:	e9 00 00 00 00       	jmp    319fa <exception>

000319fa <exception>:
   319fa:	e8 0d fd ff ff       	call   3170c <exception_handler>
   319ff:	f4                   	hlt    

00031a00 <init_8259A>:
   31a00:	55                   	push   %ebp
   31a01:	89 e5                	mov    %esp,%ebp
   31a03:	83 ec 08             	sub    $0x8,%esp
   31a06:	c7 44 24 04 11 00 00 	movl   $0x11,0x4(%esp)
   31a0d:	00 
   31a0e:	c7 04 24 20 00 00 00 	movl   $0x20,(%esp)
   31a15:	e8 8c 0f 00 00       	call   329a6 <out_byte>
   31a1a:	c7 44 24 04 20 00 00 	movl   $0x20,0x4(%esp)
   31a21:	00 
   31a22:	c7 04 24 21 00 00 00 	movl   $0x21,(%esp)
   31a29:	e8 78 0f 00 00       	call   329a6 <out_byte>
   31a2e:	c7 44 24 04 04 00 00 	movl   $0x4,0x4(%esp)
   31a35:	00 
   31a36:	c7 04 24 21 00 00 00 	movl   $0x21,(%esp)
   31a3d:	e8 64 0f 00 00       	call   329a6 <out_byte>
   31a42:	c7 44 24 04 01 00 00 	movl   $0x1,0x4(%esp)
   31a49:	00 
   31a4a:	c7 04 24 21 00 00 00 	movl   $0x21,(%esp)
   31a51:	e8 50 0f 00 00       	call   329a6 <out_byte>
   31a56:	c7 44 24 04 fc 00 00 	movl   $0xfc,0x4(%esp)
   31a5d:	00 
   31a5e:	c7 04 24 21 00 00 00 	movl   $0x21,(%esp)
   31a65:	e8 3c 0f 00 00       	call   329a6 <out_byte>
   31a6a:	c7 44 24 04 11 00 00 	movl   $0x11,0x4(%esp)
   31a71:	00 
   31a72:	c7 04 24 a0 00 00 00 	movl   $0xa0,(%esp)
   31a79:	e8 28 0f 00 00       	call   329a6 <out_byte>
   31a7e:	c7 44 24 04 28 00 00 	movl   $0x28,0x4(%esp)
   31a85:	00 
   31a86:	c7 04 24 a1 00 00 00 	movl   $0xa1,(%esp)
   31a8d:	e8 14 0f 00 00       	call   329a6 <out_byte>
   31a92:	c7 44 24 04 02 00 00 	movl   $0x2,0x4(%esp)
   31a99:	00 
   31a9a:	c7 04 24 a1 00 00 00 	movl   $0xa1,(%esp)
   31aa1:	e8 00 0f 00 00       	call   329a6 <out_byte>
   31aa6:	c7 44 24 04 01 00 00 	movl   $0x1,0x4(%esp)
   31aad:	00 
   31aae:	c7 04 24 a1 00 00 00 	movl   $0xa1,(%esp)
   31ab5:	e8 ec 0e 00 00       	call   329a6 <out_byte>
   31aba:	c7 44 24 04 ff 00 00 	movl   $0xff,0x4(%esp)
   31ac1:	00 
   31ac2:	c7 04 24 a1 00 00 00 	movl   $0xa1,(%esp)
   31ac9:	e8 d8 0e 00 00       	call   329a6 <out_byte>
   31ace:	c9                   	leave  
   31acf:	c3                   	ret    

00031ad0 <enable_slave8259>:
   31ad0:	55                   	push   %ebp
   31ad1:	89 e5                	mov    %esp,%ebp
   31ad3:	83 ec 18             	sub    $0x18,%esp
   31ad6:	c7 04 24 21 00 00 00 	movl   $0x21,(%esp)
   31add:	e8 d4 0e 00 00       	call   329b6 <in_byte>
   31ae2:	0f b6 c0             	movzbl %al,%eax
   31ae5:	89 45 fc             	mov    %eax,0xfffffffc(%ebp)
   31ae8:	81 65 fc fb 00 00 00 	andl   $0xfb,0xfffffffc(%ebp)
   31aef:	8b 45 fc             	mov    0xfffffffc(%ebp),%eax
   31af2:	0f b6 c0             	movzbl %al,%eax
   31af5:	89 44 24 04          	mov    %eax,0x4(%esp)
   31af9:	c7 04 24 21 00 00 00 	movl   $0x21,(%esp)
   31b00:	e8 a1 0e 00 00       	call   329a6 <out_byte>
   31b05:	c9                   	leave  
   31b06:	c3                   	ret    

00031b07 <disable_slave8259>:
   31b07:	55                   	push   %ebp
   31b08:	89 e5                	mov    %esp,%ebp
   31b0a:	83 ec 18             	sub    $0x18,%esp
   31b0d:	c7 04 24 21 00 00 00 	movl   $0x21,(%esp)
   31b14:	e8 9d 0e 00 00       	call   329b6 <in_byte>
   31b19:	0f b6 c0             	movzbl %al,%eax
   31b1c:	89 45 fc             	mov    %eax,0xfffffffc(%ebp)
   31b1f:	83 4d fc 04          	orl    $0x4,0xfffffffc(%ebp)
   31b23:	8b 45 fc             	mov    0xfffffffc(%ebp),%eax
   31b26:	0f b6 c0             	movzbl %al,%eax
   31b29:	89 44 24 04          	mov    %eax,0x4(%esp)
   31b2d:	c7 04 24 21 00 00 00 	movl   $0x21,(%esp)
   31b34:	e8 6d 0e 00 00       	call   329a6 <out_byte>
   31b39:	c9                   	leave  
   31b3a:	c3                   	ret    

00031b3b <enable_disk>:
   31b3b:	55                   	push   %ebp
   31b3c:	89 e5                	mov    %esp,%ebp
   31b3e:	83 ec 18             	sub    $0x18,%esp
   31b41:	e8 8a ff ff ff       	call   31ad0 <enable_slave8259>
   31b46:	c7 04 24 a1 00 00 00 	movl   $0xa1,(%esp)
   31b4d:	e8 64 0e 00 00       	call   329b6 <in_byte>
   31b52:	0f b6 c0             	movzbl %al,%eax
   31b55:	89 45 fc             	mov    %eax,0xfffffffc(%ebp)
   31b58:	81 65 fc bf 00 00 00 	andl   $0xbf,0xfffffffc(%ebp)
   31b5f:	8b 45 fc             	mov    0xfffffffc(%ebp),%eax
   31b62:	0f b6 c0             	movzbl %al,%eax
   31b65:	89 44 24 04          	mov    %eax,0x4(%esp)
   31b69:	c7 04 24 a1 00 00 00 	movl   $0xa1,(%esp)
   31b70:	e8 31 0e 00 00       	call   329a6 <out_byte>
   31b75:	c9                   	leave  
   31b76:	c3                   	ret    

00031b77 <disable_disk>:
   31b77:	55                   	push   %ebp
   31b78:	89 e5                	mov    %esp,%ebp
   31b7a:	83 ec 18             	sub    $0x18,%esp
   31b7d:	c7 04 24 a1 00 00 00 	movl   $0xa1,(%esp)
   31b84:	e8 2d 0e 00 00       	call   329b6 <in_byte>
   31b89:	0f b6 c0             	movzbl %al,%eax
   31b8c:	89 45 fc             	mov    %eax,0xfffffffc(%ebp)
   31b8f:	83 4d fc 40          	orl    $0x40,0xfffffffc(%ebp)
   31b93:	8b 45 fc             	mov    0xfffffffc(%ebp),%eax
   31b96:	0f b6 c0             	movzbl %al,%eax
   31b99:	89 44 24 04          	mov    %eax,0x4(%esp)
   31b9d:	c7 04 24 a1 00 00 00 	movl   $0xa1,(%esp)
   31ba4:	e8 fd 0d 00 00       	call   329a6 <out_byte>
   31ba9:	c9                   	leave  
   31baa:	c3                   	ret    

00031bab <enable_clock>:
   31bab:	55                   	push   %ebp
   31bac:	89 e5                	mov    %esp,%ebp
   31bae:	83 ec 18             	sub    $0x18,%esp
   31bb1:	c7 04 24 21 00 00 00 	movl   $0x21,(%esp)
   31bb8:	e8 f9 0d 00 00       	call   329b6 <in_byte>
   31bbd:	0f b6 c0             	movzbl %al,%eax
   31bc0:	89 45 fc             	mov    %eax,0xfffffffc(%ebp)
   31bc3:	81 65 fc fe 00 00 00 	andl   $0xfe,0xfffffffc(%ebp)
   31bca:	8b 45 fc             	mov    0xfffffffc(%ebp),%eax
   31bcd:	0f b6 c0             	movzbl %al,%eax
   31bd0:	89 44 24 04          	mov    %eax,0x4(%esp)
   31bd4:	c7 04 24 21 00 00 00 	movl   $0x21,(%esp)
   31bdb:	e8 c6 0d 00 00       	call   329a6 <out_byte>
   31be0:	c9                   	leave  
   31be1:	c3                   	ret    

00031be2 <disable_clock>:
   31be2:	55                   	push   %ebp
   31be3:	89 e5                	mov    %esp,%ebp
   31be5:	83 ec 18             	sub    $0x18,%esp
   31be8:	c7 04 24 21 00 00 00 	movl   $0x21,(%esp)
   31bef:	e8 c2 0d 00 00       	call   329b6 <in_byte>
   31bf4:	0f b6 c0             	movzbl %al,%eax
   31bf7:	89 45 fc             	mov    %eax,0xfffffffc(%ebp)
   31bfa:	83 4d fc 01          	orl    $0x1,0xfffffffc(%ebp)
   31bfe:	8b 45 fc             	mov    0xfffffffc(%ebp),%eax
   31c01:	0f b6 c0             	movzbl %al,%eax
   31c04:	89 44 24 04          	mov    %eax,0x4(%esp)
   31c08:	c7 04 24 21 00 00 00 	movl   $0x21,(%esp)
   31c0f:	e8 92 0d 00 00       	call   329a6 <out_byte>
   31c14:	c9                   	leave  
   31c15:	c3                   	ret    

00031c16 <enable_keyboard>:
   31c16:	55                   	push   %ebp
   31c17:	89 e5                	mov    %esp,%ebp
   31c19:	83 ec 18             	sub    $0x18,%esp
   31c1c:	c7 04 24 21 00 00 00 	movl   $0x21,(%esp)
   31c23:	e8 8e 0d 00 00       	call   329b6 <in_byte>
   31c28:	0f b6 c0             	movzbl %al,%eax
   31c2b:	89 45 fc             	mov    %eax,0xfffffffc(%ebp)
   31c2e:	81 65 fc fd 00 00 00 	andl   $0xfd,0xfffffffc(%ebp)
   31c35:	8b 45 fc             	mov    0xfffffffc(%ebp),%eax
   31c38:	0f b6 c0             	movzbl %al,%eax
   31c3b:	89 44 24 04          	mov    %eax,0x4(%esp)
   31c3f:	c7 04 24 21 00 00 00 	movl   $0x21,(%esp)
   31c46:	e8 5b 0d 00 00       	call   329a6 <out_byte>
   31c4b:	c9                   	leave  
   31c4c:	c3                   	ret    

00031c4d <disable_keyboard>:
   31c4d:	55                   	push   %ebp
   31c4e:	89 e5                	mov    %esp,%ebp
   31c50:	83 ec 18             	sub    $0x18,%esp
   31c53:	c7 04 24 21 00 00 00 	movl   $0x21,(%esp)
   31c5a:	e8 57 0d 00 00       	call   329b6 <in_byte>
   31c5f:	0f b6 c0             	movzbl %al,%eax
   31c62:	89 45 fc             	mov    %eax,0xfffffffc(%ebp)
   31c65:	83 4d fc 02          	orl    $0x2,0xfffffffc(%ebp)
   31c69:	8b 45 fc             	mov    0xfffffffc(%ebp),%eax
   31c6c:	0f b6 c0             	movzbl %al,%eax
   31c6f:	89 44 24 04          	mov    %eax,0x4(%esp)
   31c73:	c7 04 24 21 00 00 00 	movl   $0x21,(%esp)
   31c7a:	e8 27 0d 00 00       	call   329a6 <out_byte>
   31c7f:	c9                   	leave  
   31c80:	c3                   	ret    

00031c81 <triggerSlave8259>:
   31c81:	55                   	push   %ebp
   31c82:	89 e5                	mov    %esp,%ebp
   31c84:	83 ec 08             	sub    $0x8,%esp
   31c87:	c7 44 24 04 20 00 00 	movl   $0x20,0x4(%esp)
   31c8e:	00 
   31c8f:	c7 04 24 a0 00 00 00 	movl   $0xa0,(%esp)
   31c96:	e8 0b 0d 00 00       	call   329a6 <out_byte>
   31c9b:	c9                   	leave  
   31c9c:	c3                   	ret    

00031c9d <triggerMaster8259>:
   31c9d:	55                   	push   %ebp
   31c9e:	89 e5                	mov    %esp,%ebp
   31ca0:	83 ec 08             	sub    $0x8,%esp
   31ca3:	c7 44 24 04 20 00 00 	movl   $0x20,0x4(%esp)
   31caa:	00 
   31cab:	c7 04 24 20 00 00 00 	movl   $0x20,(%esp)
   31cb2:	e8 ef 0c 00 00       	call   329a6 <out_byte>
   31cb7:	c9                   	leave  
   31cb8:	c3                   	ret    
   31cb9:	90                   	nop    
   31cba:	90                   	nop    
   31cbb:	90                   	nop    

00031cbc <proc2pid>:
   31cbc:	55                   	push   %ebp
   31cbd:	89 e5                	mov    %esp,%ebp
   31cbf:	83 ec 18             	sub    $0x18,%esp
   31cc2:	83 7d 08 00          	cmpl   $0x0,0x8(%ebp)
   31cc6:	75 24                	jne    31cec <proc2pid+0x30>
   31cc8:	c7 44 24 0c 10 00 00 	movl   $0x10,0xc(%esp)
   31ccf:	00 
   31cd0:	c7 44 24 08 f4 49 03 	movl   $0x349f4,0x8(%esp)
   31cd7:	00 
   31cd8:	c7 44 24 04 f4 49 03 	movl   $0x349f4,0x4(%esp)
   31cdf:	00 
   31ce0:	c7 04 24 07 4a 03 00 	movl   $0x34a07,(%esp)
   31ce7:	e8 4d 0e 00 00       	call   32b39 <assertion_failure_kernel>
   31cec:	81 7d 08 20 8a 03 00 	cmpl   $0x38a20,0x8(%ebp)
   31cf3:	77 24                	ja     31d19 <proc2pid+0x5d>
   31cf5:	c7 44 24 0c 11 00 00 	movl   $0x11,0xc(%esp)
   31cfc:	00 
   31cfd:	c7 44 24 08 f4 49 03 	movl   $0x349f4,0x8(%esp)
   31d04:	00 
   31d05:	c7 44 24 04 f4 49 03 	movl   $0x349f4,0x4(%esp)
   31d0c:	00 
   31d0d:	c7 04 24 0c 4a 03 00 	movl   $0x34a0c,(%esp)
   31d14:	e8 20 0e 00 00       	call   32b39 <assertion_failure_kernel>
   31d19:	8b 55 08             	mov    0x8(%ebp),%edx
   31d1c:	b8 20 8a 03 00       	mov    $0x38a20,%eax
   31d21:	89 d1                	mov    %edx,%ecx
   31d23:	29 c1                	sub    %eax,%ecx
   31d25:	89 c8                	mov    %ecx,%eax
   31d27:	c1 f8 02             	sar    $0x2,%eax
   31d2a:	69 c0 bf e5 b2 69    	imul   $0x69b2e5bf,%eax,%eax
   31d30:	83 c0 01             	add    $0x1,%eax
   31d33:	c9                   	leave  
   31d34:	c3                   	ret    

00031d35 <pid2proc>:
   31d35:	55                   	push   %ebp
   31d36:	89 e5                	mov    %esp,%ebp
   31d38:	83 ec 18             	sub    $0x18,%esp
   31d3b:	83 7d 08 00          	cmpl   $0x0,0x8(%ebp)
   31d3f:	7f 09                	jg     31d4a <pid2proc+0x15>
   31d41:	c7 45 fc 00 00 00 00 	movl   $0x0,0xfffffffc(%ebp)
   31d48:	eb 44                	jmp    31d8e <pid2proc+0x59>
   31d4a:	83 7d 08 00          	cmpl   $0x0,0x8(%ebp)
   31d4e:	7f 24                	jg     31d74 <pid2proc+0x3f>
   31d50:	c7 44 24 0c 1b 00 00 	movl   $0x1b,0xc(%esp)
   31d57:	00 
   31d58:	c7 44 24 08 f4 49 03 	movl   $0x349f4,0x8(%esp)
   31d5f:	00 
   31d60:	c7 44 24 04 f4 49 03 	movl   $0x349f4,0x4(%esp)
   31d67:	00 
   31d68:	c7 04 24 1c 4a 03 00 	movl   $0x34a1c,(%esp)
   31d6f:	e8 c5 0d 00 00       	call   32b39 <assertion_failure_kernel>
   31d74:	8b 45 08             	mov    0x8(%ebp),%eax
   31d77:	69 c0 fc 28 00 00    	imul   $0x28fc,%eax,%eax
   31d7d:	89 c2                	mov    %eax,%edx
   31d7f:	b8 20 8a 03 00       	mov    $0x38a20,%eax
   31d84:	2d fc 28 00 00       	sub    $0x28fc,%eax
   31d89:	01 c2                	add    %eax,%edx
   31d8b:	89 55 fc             	mov    %edx,0xfffffffc(%ebp)
   31d8e:	8b 45 fc             	mov    0xfffffffc(%ebp),%eax
   31d91:	c9                   	leave  
   31d92:	c3                   	ret    

00031d93 <unblock>:
   31d93:	55                   	push   %ebp
   31d94:	89 e5                	mov    %esp,%ebp
   31d96:	83 ec 18             	sub    $0x18,%esp
   31d99:	8b 45 08             	mov    0x8(%ebp),%eax
   31d9c:	8b 80 e0 28 00 00    	mov    0x28e0(%eax),%eax
   31da2:	85 c0                	test   %eax,%eax
   31da4:	74 24                	je     31dca <unblock+0x37>
   31da6:	c7 44 24 0c 27 00 00 	movl   $0x27,0xc(%esp)
   31dad:	00 
   31dae:	c7 44 24 08 f4 49 03 	movl   $0x349f4,0x8(%esp)
   31db5:	00 
   31db6:	c7 44 24 04 f4 49 03 	movl   $0x349f4,0x4(%esp)
   31dbd:	00 
   31dbe:	c7 04 24 22 4a 03 00 	movl   $0x34a22,(%esp)
   31dc5:	e8 6f 0d 00 00       	call   32b39 <assertion_failure_kernel>
   31dca:	a1 30 78 03 00       	mov    0x37830,%eax
   31dcf:	83 f8 01             	cmp    $0x1,%eax
   31dd2:	75 1b                	jne    31def <unblock+0x5c>
   31dd4:	8b 45 08             	mov    0x8(%ebp),%eax
   31dd7:	89 04 24             	mov    %eax,(%esp)
   31dda:	e8 dd fe ff ff       	call   31cbc <proc2pid>
   31ddf:	89 44 24 04          	mov    %eax,0x4(%esp)
   31de3:	c7 04 24 37 4a 03 00 	movl   $0x34a37,(%esp)
   31dea:	e8 f1 02 00 00       	call   320e0 <printf_kernel>
   31def:	c9                   	leave  
   31df0:	c3                   	ret    

00031df1 <block>:
   31df1:	55                   	push   %ebp
   31df2:	89 e5                	mov    %esp,%ebp
   31df4:	83 ec 28             	sub    $0x28,%esp
   31df7:	c7 45 fc 74 00 00 00 	movl   $0x74,0xfffffffc(%ebp)
   31dfe:	8b 45 08             	mov    0x8(%ebp),%eax
   31e01:	8b 80 e0 28 00 00    	mov    0x28e0(%eax),%eax
   31e07:	85 c0                	test   %eax,%eax
   31e09:	75 24                	jne    31e2f <block+0x3e>
   31e0b:	c7 44 24 0c 3c 00 00 	movl   $0x3c,0xc(%esp)
   31e12:	00 
   31e13:	c7 44 24 08 f4 49 03 	movl   $0x349f4,0x8(%esp)
   31e1a:	00 
   31e1b:	c7 44 24 04 f4 49 03 	movl   $0x349f4,0x4(%esp)
   31e22:	00 
   31e23:	c7 04 24 44 4a 03 00 	movl   $0x34a44,(%esp)
   31e2a:	e8 0a 0d 00 00       	call   32b39 <assertion_failure_kernel>
   31e2f:	a1 30 78 03 00       	mov    0x37830,%eax
   31e34:	83 f8 01             	cmp    $0x1,%eax
   31e37:	75 1b                	jne    31e54 <block+0x63>
   31e39:	8b 45 08             	mov    0x8(%ebp),%eax
   31e3c:	89 04 24             	mov    %eax,(%esp)
   31e3f:	e8 78 fe ff ff       	call   31cbc <proc2pid>
   31e44:	89 44 24 04          	mov    %eax,0x4(%esp)
   31e48:	c7 04 24 59 4a 03 00 	movl   $0x34a59,(%esp)
   31e4f:	e8 8c 02 00 00       	call   320e0 <printf_kernel>
   31e54:	e8 eb f3 ff ff       	call   31244 <schedule>
   31e59:	c9                   	leave  
   31e5a:	c3                   	ret    

00031e5b <va2la>:
   31e5b:	55                   	push   %ebp
   31e5c:	89 e5                	mov    %esp,%ebp
   31e5e:	83 ec 20             	sub    $0x20,%esp
   31e61:	8b 45 08             	mov    0x8(%ebp),%eax
   31e64:	69 c0 fc 28 00 00    	imul   $0x28fc,%eax,%eax
   31e6a:	89 c2                	mov    %eax,%edx
   31e6c:	b8 20 8a 03 00       	mov    $0x38a20,%eax
   31e71:	2d fc 28 00 00       	sub    $0x28fc,%eax
   31e76:	8d 04 02             	lea    (%edx,%eax,1),%eax
   31e79:	89 45 f4             	mov    %eax,0xfffffff4(%ebp)
   31e7c:	8b 45 f4             	mov    0xfffffff4(%ebp),%eax
   31e7f:	8b 40 0c             	mov    0xc(%eax),%eax
   31e82:	89 45 f8             	mov    %eax,0xfffffff8(%ebp)
   31e85:	8b 45 f8             	mov    0xfffffff8(%ebp),%eax
   31e88:	83 e0 f0             	and    $0xfffffff0,%eax
   31e8b:	89 c2                	mov    %eax,%edx
   31e8d:	c1 ea 03             	shr    $0x3,%edx
   31e90:	8b 45 f4             	mov    0xfffffff4(%ebp),%eax
   31e93:	8d 54 d0 54          	lea    0x54(%eax,%edx,8),%edx
   31e97:	8b 02                	mov    (%edx),%eax
   31e99:	8b 52 04             	mov    0x4(%edx),%edx
   31e9c:	89 45 ec             	mov    %eax,0xffffffec(%ebp)
   31e9f:	89 55 f0             	mov    %edx,0xfffffff0(%ebp)
   31ea2:	0f b7 45 ee          	movzwl 0xffffffee(%ebp),%eax
   31ea6:	0f b7 d0             	movzwl %ax,%edx
   31ea9:	0f b6 45 f0          	movzbl 0xfffffff0(%ebp),%eax
   31ead:	0f b6 c0             	movzbl %al,%eax
   31eb0:	01 c2                	add    %eax,%edx
   31eb2:	0f b6 45 f3          	movzbl 0xfffffff3(%ebp),%eax
   31eb6:	0f b6 c0             	movzbl %al,%eax
   31eb9:	8d 48 10             	lea    0x10(%eax),%ecx
   31ebc:	89 d0                	mov    %edx,%eax
   31ebe:	d3 e0                	shl    %cl,%eax
   31ec0:	c1 e0 18             	shl    $0x18,%eax
   31ec3:	89 45 fc             	mov    %eax,0xfffffffc(%ebp)
   31ec6:	8b 45 0c             	mov    0xc(%ebp),%eax
   31ec9:	03 45 fc             	add    0xfffffffc(%ebp),%eax
   31ecc:	c9                   	leave  
   31ecd:	c3                   	ret    

00031ece <printIPC>:
   31ece:	55                   	push   %ebp
   31ecf:	89 e5                	mov    %esp,%ebp
   31ed1:	83 ec 18             	sub    $0x18,%esp
   31ed4:	c7 45 f8 00 00 00 00 	movl   $0x0,0xfffffff8(%ebp)
   31edb:	eb 6e                	jmp    31f4b <printIPC+0x7d>
   31edd:	8b 45 f8             	mov    0xfffffff8(%ebp),%eax
   31ee0:	69 c0 fc 28 00 00    	imul   $0x28fc,%eax,%eax
   31ee6:	8b 80 fc b2 03 00    	mov    0x3b2fc(%eax),%eax
   31eec:	85 c0                	test   %eax,%eax
   31eee:	75 57                	jne    31f47 <printIPC+0x79>
   31ef0:	8b 45 f8             	mov    0xfffffff8(%ebp),%eax
   31ef3:	69 c0 fc 28 00 00    	imul   $0x28fc,%eax,%eax
   31ef9:	8b 80 10 b3 03 00    	mov    0x3b310(%eax),%eax
   31eff:	89 45 fc             	mov    %eax,0xfffffffc(%ebp)
   31f02:	8b 45 f8             	mov    0xfffffff8(%ebp),%eax
   31f05:	83 c0 01             	add    $0x1,%eax
   31f08:	89 44 24 04          	mov    %eax,0x4(%esp)
   31f0c:	c7 04 24 64 4a 03 00 	movl   $0x34a64,(%esp)
   31f13:	e8 c8 01 00 00       	call   320e0 <printf_kernel>
   31f18:	eb 27                	jmp    31f41 <printIPC+0x73>
   31f1a:	8b 45 fc             	mov    0xfffffffc(%ebp),%eax
   31f1d:	89 04 24             	mov    %eax,(%esp)
   31f20:	e8 97 fd ff ff       	call   31cbc <proc2pid>
   31f25:	89 44 24 04          	mov    %eax,0x4(%esp)
   31f29:	c7 04 24 75 4a 03 00 	movl   $0x34a75,(%esp)
   31f30:	e8 ab 01 00 00       	call   320e0 <printf_kernel>
   31f35:	8b 45 fc             	mov    0xfffffffc(%ebp),%eax
   31f38:	8b 80 ec 28 00 00    	mov    0x28ec(%eax),%eax
   31f3e:	89 45 fc             	mov    %eax,0xfffffffc(%ebp)
   31f41:	83 7d fc 00          	cmpl   $0x0,0xfffffffc(%ebp)
   31f45:	75 d3                	jne    31f1a <printIPC+0x4c>
   31f47:	83 45 f8 01          	addl   $0x1,0xfffffff8(%ebp)
   31f4b:	83 7d f8 27          	cmpl   $0x27,0xfffffff8(%ebp)
   31f4f:	7e 8c                	jle    31edd <printIPC+0xf>
   31f51:	c7 04 24 79 4a 03 00 	movl   $0x34a79,(%esp)
   31f58:	e8 83 01 00 00       	call   320e0 <printf_kernel>
   31f5d:	c9                   	leave  
   31f5e:	c3                   	ret    

00031f5f <interrupt_wait>:
   31f5f:	55                   	push   %ebp
   31f60:	89 e5                	mov    %esp,%ebp
   31f62:	83 ec 48             	sub    $0x48,%esp
   31f65:	8d 45 d0             	lea    0xffffffd0(%ebp),%eax
   31f68:	89 44 24 08          	mov    %eax,0x8(%esp)
   31f6c:	c7 44 24 04 00 00 00 	movl   $0x0,0x4(%esp)
   31f73:	00 
   31f74:	c7 04 24 02 00 00 00 	movl   $0x2,(%esp)
   31f7b:	e8 5e f9 ff ff       	call   318de <sendrec>
   31f80:	c9                   	leave  
   31f81:	c3                   	ret    
   31f82:	90                   	nop    
   31f83:	90                   	nop    

00031f84 <printf>:
   31f84:	55                   	push   %ebp
   31f85:	89 e5                	mov    %esp,%ebp
   31f87:	81 ec 28 01 00 00    	sub    $0x128,%esp
   31f8d:	8d 45 08             	lea    0x8(%ebp),%eax
   31f90:	83 c0 04             	add    $0x4,%eax
   31f93:	89 45 fc             	mov    %eax,0xfffffffc(%ebp)
   31f96:	8b 45 08             	mov    0x8(%ebp),%eax
   31f99:	89 44 24 08          	mov    %eax,0x8(%esp)
   31f9d:	8b 45 fc             	mov    0xfffffffc(%ebp),%eax
   31fa0:	89 44 24 04          	mov    %eax,0x4(%esp)
   31fa4:	8d 85 f8 fe ff ff    	lea    0xfffffef8(%ebp),%eax
   31faa:	89 04 24             	mov    %eax,(%esp)
   31fad:	e8 1d 00 00 00       	call   31fcf <vsprintf>
   31fb2:	89 45 f8             	mov    %eax,0xfffffff8(%ebp)
   31fb5:	8b 45 f8             	mov    0xfffffff8(%ebp),%eax
   31fb8:	89 44 24 04          	mov    %eax,0x4(%esp)
   31fbc:	8d 85 f8 fe ff ff    	lea    0xfffffef8(%ebp),%eax
   31fc2:	89 04 24             	mov    %eax,(%esp)
   31fc5:	e8 00 f9 ff ff       	call   318ca <printx>
   31fca:	8b 45 f8             	mov    0xfffffff8(%ebp),%eax
   31fcd:	c9                   	leave  
   31fce:	c3                   	ret    

00031fcf <vsprintf>:
   31fcf:	55                   	push   %ebp
   31fd0:	89 e5                	mov    %esp,%ebp
   31fd2:	81 ec 28 01 00 00    	sub    $0x128,%esp
   31fd8:	8b 45 0c             	mov    0xc(%ebp),%eax
   31fdb:	89 45 f8             	mov    %eax,0xfffffff8(%ebp)
   31fde:	8b 45 08             	mov    0x8(%ebp),%eax
   31fe1:	89 45 f4             	mov    %eax,0xfffffff4(%ebp)
   31fe4:	e9 d9 00 00 00       	jmp    320c2 <vsprintf+0xf3>
   31fe9:	8b 45 10             	mov    0x10(%ebp),%eax
   31fec:	0f b6 00             	movzbl (%eax),%eax
   31fef:	3c 25                	cmp    $0x25,%al
   31ff1:	74 14                	je     32007 <vsprintf+0x38>
   31ff3:	8b 45 10             	mov    0x10(%ebp),%eax
   31ff6:	0f b6 10             	movzbl (%eax),%edx
   31ff9:	8b 45 f4             	mov    0xfffffff4(%ebp),%eax
   31ffc:	88 10                	mov    %dl,(%eax)
   31ffe:	83 45 f4 01          	addl   $0x1,0xfffffff4(%ebp)
   32002:	e9 b7 00 00 00       	jmp    320be <vsprintf+0xef>
   32007:	83 45 10 01          	addl   $0x1,0x10(%ebp)
   3200b:	8b 45 10             	mov    0x10(%ebp),%eax
   3200e:	0f b6 00             	movzbl (%eax),%eax
   32011:	0f be c0             	movsbl %al,%eax
   32014:	89 85 ec fe ff ff    	mov    %eax,0xfffffeec(%ebp)
   3201a:	83 bd ec fe ff ff 64 	cmpl   $0x64,0xfffffeec(%ebp)
   32021:	74 17                	je     3203a <vsprintf+0x6b>
   32023:	83 bd ec fe ff ff 73 	cmpl   $0x73,0xfffffeec(%ebp)
   3202a:	74 66                	je     32092 <vsprintf+0xc3>
   3202c:	83 bd ec fe ff ff 63 	cmpl   $0x63,0xfffffeec(%ebp)
   32033:	74 48                	je     3207d <vsprintf+0xae>
   32035:	e9 84 00 00 00       	jmp    320be <vsprintf+0xef>
   3203a:	8b 45 f8             	mov    0xfffffff8(%ebp),%eax
   3203d:	8b 00                	mov    (%eax),%eax
   3203f:	89 44 24 04          	mov    %eax,0x4(%esp)
   32043:	8d 85 f4 fe ff ff    	lea    0xfffffef4(%ebp),%eax
   32049:	89 04 24             	mov    %eax,(%esp)
   3204c:	e8 a9 0b 00 00       	call   32bfa <itoa>
   32051:	8d 85 f4 fe ff ff    	lea    0xfffffef4(%ebp),%eax
   32057:	89 44 24 04          	mov    %eax,0x4(%esp)
   3205b:	8b 45 f4             	mov    0xfffffff4(%ebp),%eax
   3205e:	89 04 24             	mov    %eax,(%esp)
   32061:	e8 30 0c 00 00       	call   32c96 <strcpy>
   32066:	83 45 f8 04          	addl   $0x4,0xfffffff8(%ebp)
   3206a:	8d 85 f4 fe ff ff    	lea    0xfffffef4(%ebp),%eax
   32070:	89 04 24             	mov    %eax,(%esp)
   32073:	e8 53 0c 00 00       	call   32ccb <strlen>
   32078:	01 45 f4             	add    %eax,0xfffffff4(%ebp)
   3207b:	eb 41                	jmp    320be <vsprintf+0xef>
   3207d:	8b 45 f8             	mov    0xfffffff8(%ebp),%eax
   32080:	0f b6 10             	movzbl (%eax),%edx
   32083:	8b 45 f4             	mov    0xfffffff4(%ebp),%eax
   32086:	88 10                	mov    %dl,(%eax)
   32088:	83 45 f8 04          	addl   $0x4,0xfffffff8(%ebp)
   3208c:	83 45 f4 01          	addl   $0x1,0xfffffff4(%ebp)
   32090:	eb 2c                	jmp    320be <vsprintf+0xef>
   32092:	8b 45 f8             	mov    0xfffffff8(%ebp),%eax
   32095:	8b 00                	mov    (%eax),%eax
   32097:	89 45 fc             	mov    %eax,0xfffffffc(%ebp)
   3209a:	8b 45 fc             	mov    0xfffffffc(%ebp),%eax
   3209d:	89 44 24 04          	mov    %eax,0x4(%esp)
   320a1:	8b 45 f4             	mov    0xfffffff4(%ebp),%eax
   320a4:	89 04 24             	mov    %eax,(%esp)
   320a7:	e8 ea 0b 00 00       	call   32c96 <strcpy>
   320ac:	8b 45 fc             	mov    0xfffffffc(%ebp),%eax
   320af:	89 04 24             	mov    %eax,(%esp)
   320b2:	e8 14 0c 00 00       	call   32ccb <strlen>
   320b7:	01 45 f4             	add    %eax,0xfffffff4(%ebp)
   320ba:	83 45 f8 04          	addl   $0x4,0xfffffff8(%ebp)
   320be:	83 45 10 01          	addl   $0x1,0x10(%ebp)
   320c2:	8b 45 10             	mov    0x10(%ebp),%eax
   320c5:	0f b6 00             	movzbl (%eax),%eax
   320c8:	84 c0                	test   %al,%al
   320ca:	0f 85 19 ff ff ff    	jne    31fe9 <vsprintf+0x1a>
   320d0:	8b 55 f4             	mov    0xfffffff4(%ebp),%edx
   320d3:	8b 45 08             	mov    0x8(%ebp),%eax
   320d6:	89 d1                	mov    %edx,%ecx
   320d8:	29 c1                	sub    %eax,%ecx
   320da:	89 c8                	mov    %ecx,%eax
   320dc:	c9                   	leave  
   320dd:	c3                   	ret    
   320de:	90                   	nop    
   320df:	90                   	nop    

000320e0 <printf_kernel>:
   320e0:	55                   	push   %ebp
   320e1:	89 e5                	mov    %esp,%ebp
   320e3:	81 ec 28 01 00 00    	sub    $0x128,%esp
   320e9:	8d 45 08             	lea    0x8(%ebp),%eax
   320ec:	83 c0 04             	add    $0x4,%eax
   320ef:	89 45 fc             	mov    %eax,0xfffffffc(%ebp)
   320f2:	8b 45 08             	mov    0x8(%ebp),%eax
   320f5:	89 44 24 08          	mov    %eax,0x8(%esp)
   320f9:	8b 45 fc             	mov    0xfffffffc(%ebp),%eax
   320fc:	89 44 24 04          	mov    %eax,0x4(%esp)
   32100:	8d 85 f8 fe ff ff    	lea    0xfffffef8(%ebp),%eax
   32106:	89 04 24             	mov    %eax,(%esp)
   32109:	e8 1d 00 00 00       	call   3212b <vsprintf>
   3210e:	89 45 f8             	mov    %eax,0xfffffff8(%ebp)
   32111:	8b 45 f8             	mov    0xfffffff8(%ebp),%eax
   32114:	89 44 24 04          	mov    %eax,0x4(%esp)
   32118:	8d 85 f8 fe ff ff    	lea    0xfffffef8(%ebp),%eax
   3211e:	89 04 24             	mov    %eax,(%esp)
   32121:	e8 14 01 00 00       	call   3223a <kernel_printx>
   32126:	8b 45 f8             	mov    0xfffffff8(%ebp),%eax
   32129:	c9                   	leave  
   3212a:	c3                   	ret    

0003212b <vsprintf>:
   3212b:	55                   	push   %ebp
   3212c:	89 e5                	mov    %esp,%ebp
   3212e:	81 ec 28 01 00 00    	sub    $0x128,%esp
   32134:	8b 45 0c             	mov    0xc(%ebp),%eax
   32137:	89 45 f8             	mov    %eax,0xfffffff8(%ebp)
   3213a:	8b 45 08             	mov    0x8(%ebp),%eax
   3213d:	89 45 f4             	mov    %eax,0xfffffff4(%ebp)
   32140:	e9 d9 00 00 00       	jmp    3221e <vsprintf+0xf3>
   32145:	8b 45 10             	mov    0x10(%ebp),%eax
   32148:	0f b6 00             	movzbl (%eax),%eax
   3214b:	3c 25                	cmp    $0x25,%al
   3214d:	74 14                	je     32163 <vsprintf+0x38>
   3214f:	8b 45 10             	mov    0x10(%ebp),%eax
   32152:	0f b6 10             	movzbl (%eax),%edx
   32155:	8b 45 f4             	mov    0xfffffff4(%ebp),%eax
   32158:	88 10                	mov    %dl,(%eax)
   3215a:	83 45 f4 01          	addl   $0x1,0xfffffff4(%ebp)
   3215e:	e9 b7 00 00 00       	jmp    3221a <vsprintf+0xef>
   32163:	83 45 10 01          	addl   $0x1,0x10(%ebp)
   32167:	8b 45 10             	mov    0x10(%ebp),%eax
   3216a:	0f b6 00             	movzbl (%eax),%eax
   3216d:	0f be c0             	movsbl %al,%eax
   32170:	89 85 ec fe ff ff    	mov    %eax,0xfffffeec(%ebp)
   32176:	83 bd ec fe ff ff 64 	cmpl   $0x64,0xfffffeec(%ebp)
   3217d:	74 17                	je     32196 <vsprintf+0x6b>
   3217f:	83 bd ec fe ff ff 73 	cmpl   $0x73,0xfffffeec(%ebp)
   32186:	74 66                	je     321ee <vsprintf+0xc3>
   32188:	83 bd ec fe ff ff 63 	cmpl   $0x63,0xfffffeec(%ebp)
   3218f:	74 48                	je     321d9 <vsprintf+0xae>
   32191:	e9 84 00 00 00       	jmp    3221a <vsprintf+0xef>
   32196:	8b 45 f8             	mov    0xfffffff8(%ebp),%eax
   32199:	8b 00                	mov    (%eax),%eax
   3219b:	89 44 24 04          	mov    %eax,0x4(%esp)
   3219f:	8d 85 f4 fe ff ff    	lea    0xfffffef4(%ebp),%eax
   321a5:	89 04 24             	mov    %eax,(%esp)
   321a8:	e8 4d 0a 00 00       	call   32bfa <itoa>
   321ad:	8d 85 f4 fe ff ff    	lea    0xfffffef4(%ebp),%eax
   321b3:	89 44 24 04          	mov    %eax,0x4(%esp)
   321b7:	8b 45 f4             	mov    0xfffffff4(%ebp),%eax
   321ba:	89 04 24             	mov    %eax,(%esp)
   321bd:	e8 d4 0a 00 00       	call   32c96 <strcpy>
   321c2:	83 45 f8 04          	addl   $0x4,0xfffffff8(%ebp)
   321c6:	8d 85 f4 fe ff ff    	lea    0xfffffef4(%ebp),%eax
   321cc:	89 04 24             	mov    %eax,(%esp)
   321cf:	e8 f7 0a 00 00       	call   32ccb <strlen>
   321d4:	01 45 f4             	add    %eax,0xfffffff4(%ebp)
   321d7:	eb 41                	jmp    3221a <vsprintf+0xef>
   321d9:	8b 45 f8             	mov    0xfffffff8(%ebp),%eax
   321dc:	0f b6 10             	movzbl (%eax),%edx
   321df:	8b 45 f4             	mov    0xfffffff4(%ebp),%eax
   321e2:	88 10                	mov    %dl,(%eax)
   321e4:	83 45 f8 04          	addl   $0x4,0xfffffff8(%ebp)
   321e8:	83 45 f4 01          	addl   $0x1,0xfffffff4(%ebp)
   321ec:	eb 2c                	jmp    3221a <vsprintf+0xef>
   321ee:	8b 45 f8             	mov    0xfffffff8(%ebp),%eax
   321f1:	8b 00                	mov    (%eax),%eax
   321f3:	89 45 fc             	mov    %eax,0xfffffffc(%ebp)
   321f6:	8b 45 fc             	mov    0xfffffffc(%ebp),%eax
   321f9:	89 44 24 04          	mov    %eax,0x4(%esp)
   321fd:	8b 45 f4             	mov    0xfffffff4(%ebp),%eax
   32200:	89 04 24             	mov    %eax,(%esp)
   32203:	e8 8e 0a 00 00       	call   32c96 <strcpy>
   32208:	8b 45 fc             	mov    0xfffffffc(%ebp),%eax
   3220b:	89 04 24             	mov    %eax,(%esp)
   3220e:	e8 b8 0a 00 00       	call   32ccb <strlen>
   32213:	01 45 f4             	add    %eax,0xfffffff4(%ebp)
   32216:	83 45 f8 04          	addl   $0x4,0xfffffff8(%ebp)
   3221a:	83 45 10 01          	addl   $0x1,0x10(%ebp)
   3221e:	8b 45 10             	mov    0x10(%ebp),%eax
   32221:	0f b6 00             	movzbl (%eax),%eax
   32224:	84 c0                	test   %al,%al
   32226:	0f 85 19 ff ff ff    	jne    32145 <vsprintf+0x1a>
   3222c:	8b 55 f4             	mov    0xfffffff4(%ebp),%edx
   3222f:	8b 45 08             	mov    0x8(%ebp),%eax
   32232:	89 d1                	mov    %edx,%ecx
   32234:	29 c1                	sub    %eax,%ecx
   32236:	89 c8                	mov    %ecx,%eax
   32238:	c9                   	leave  
   32239:	c3                   	ret    

0003223a <kernel_printx>:
   3223a:	55                   	push   %ebp
   3223b:	89 e5                	mov    %esp,%ebp
   3223d:	83 ec 18             	sub    $0x18,%esp
   32240:	c7 45 f4 00 00 00 00 	movl   $0x0,0xfffffff4(%ebp)
   32247:	c7 45 f8 00 00 00 00 	movl   $0x0,0xfffffff8(%ebp)
   3224e:	c7 45 fc 00 00 00 00 	movl   $0x0,0xfffffffc(%ebp)
   32255:	c7 45 f4 00 00 00 00 	movl   $0x0,0xfffffff4(%ebp)
   3225c:	eb 41                	jmp    3229f <kernel_printx+0x65>
   3225e:	8b 45 f4             	mov    0xfffffff4(%ebp),%eax
   32261:	03 45 08             	add    0x8(%ebp),%eax
   32264:	0f b6 00             	movzbl (%eax),%eax
   32267:	3c 02                	cmp    $0x2,%al
   32269:	74 30                	je     3229b <kernel_printx+0x61>
   3226b:	8b 45 f4             	mov    0xfffffff4(%ebp),%eax
   3226e:	03 45 08             	add    0x8(%ebp),%eax
   32271:	0f b6 00             	movzbl (%eax),%eax
   32274:	3c 03                	cmp    $0x3,%al
   32276:	74 23                	je     3229b <kernel_printx+0x61>
   32278:	8b 45 f4             	mov    0xfffffff4(%ebp),%eax
   3227b:	03 45 08             	add    0x8(%ebp),%eax
   3227e:	0f b6 00             	movzbl (%eax),%eax
   32281:	0f be c0             	movsbl %al,%eax
   32284:	89 44 24 04          	mov    %eax,0x4(%esp)
   32288:	8b 45 f8             	mov    0xfffffff8(%ebp),%eax
   3228b:	89 04 24             	mov    %eax,(%esp)
   3228e:	e8 1c 1c 00 00       	call   33eaf <printChar>
   32293:	85 c0                	test   %eax,%eax
   32295:	75 04                	jne    3229b <kernel_printx+0x61>
   32297:	83 45 fc 01          	addl   $0x1,0xfffffffc(%ebp)
   3229b:	83 45 f4 01          	addl   $0x1,0xfffffff4(%ebp)
   3229f:	8b 45 f4             	mov    0xfffffff4(%ebp),%eax
   322a2:	3b 45 0c             	cmp    0xc(%ebp),%eax
   322a5:	7d 0d                	jge    322b4 <kernel_printx+0x7a>
   322a7:	8b 45 f4             	mov    0xfffffff4(%ebp),%eax
   322aa:	03 45 08             	add    0x8(%ebp),%eax
   322ad:	0f b6 00             	movzbl (%eax),%eax
   322b0:	84 c0                	test   %al,%al
   322b2:	75 aa                	jne    3225e <kernel_printx+0x24>
   322b4:	8b 45 f4             	mov    0xfffffff4(%ebp),%eax
   322b7:	c9                   	leave  
   322b8:	c3                   	ret    
   322b9:	90                   	nop    
   322ba:	90                   	nop    
   322bb:	90                   	nop    

000322bc <init_Gdt_Idt>:
   322bc:	55                   	push   %ebp
   322bd:	89 e5                	mov    %esp,%ebp
   322bf:	83 ec 38             	sub    $0x38,%esp
   322c2:	c7 04 24 7b 4a 03 00 	movl   $0x34a7b,(%esp)
   322c9:	e8 76 06 00 00       	call   32944 <disp_str>
   322ce:	c7 04 24 82 4a 03 00 	movl   $0x34a82,(%esp)
   322d5:	e8 6a 06 00 00       	call   32944 <disp_str>
   322da:	c7 04 24 8b 4a 03 00 	movl   $0x34a8b,(%esp)
   322e1:	e8 5e 06 00 00       	call   32944 <disp_str>
   322e6:	c7 45 ec 00 00 00 00 	movl   $0x0,0xffffffec(%ebp)
   322ed:	eb 4a                	jmp    32339 <init_Gdt_Idt+0x7d>
   322ef:	8b 45 ec             	mov    0xffffffec(%ebp),%eax
   322f2:	66 c7 04 c5 00 7d 03 	movw   $0x0,0x37d00(,%eax,8)
   322f9:	00 00 00 
   322fc:	8b 45 ec             	mov    0xffffffec(%ebp),%eax
   322ff:	66 c7 04 c5 02 7d 03 	movw   $0x0,0x37d02(,%eax,8)
   32306:	00 00 00 
   32309:	8b 45 ec             	mov    0xffffffec(%ebp),%eax
   3230c:	c6 04 c5 04 7d 03 00 	movb   $0x0,0x37d04(,%eax,8)
   32313:	00 
   32314:	8b 45 ec             	mov    0xffffffec(%ebp),%eax
   32317:	c6 04 c5 05 7d 03 00 	movb   $0x0,0x37d05(,%eax,8)
   3231e:	00 
   3231f:	8b 45 ec             	mov    0xffffffec(%ebp),%eax
   32322:	c6 04 c5 06 7d 03 00 	movb   $0x0,0x37d06(,%eax,8)
   32329:	00 
   3232a:	8b 45 ec             	mov    0xffffffec(%ebp),%eax
   3232d:	c6 04 c5 07 7d 03 00 	movb   $0x0,0x37d07(,%eax,8)
   32334:	00 
   32335:	83 45 ec 01          	addl   $0x1,0xffffffec(%ebp)
   32339:	83 7d ec 7f          	cmpl   $0x7f,0xffffffec(%ebp)
   3233d:	7e b0                	jle    322ef <init_Gdt_Idt+0x33>
   3233f:	b8 e0 81 03 00       	mov    $0x381e0,%eax
   32344:	0f b7 00             	movzwl (%eax),%eax
   32347:	0f b7 c0             	movzwl %ax,%eax
   3234a:	8d 50 01             	lea    0x1(%eax),%edx
   3234d:	b8 e2 81 03 00       	mov    $0x381e2,%eax
   32352:	8b 00                	mov    (%eax),%eax
   32354:	89 54 24 08          	mov    %edx,0x8(%esp)
   32358:	89 44 24 04          	mov    %eax,0x4(%esp)
   3235c:	c7 04 24 00 7d 03 00 	movl   $0x37d00,(%esp)
   32363:	e8 70 06 00 00       	call   329d8 <memcpy>
   32368:	c7 45 f0 e0 81 03 00 	movl   $0x381e0,0xfffffff0(%ebp)
   3236f:	b8 e2 81 03 00       	mov    $0x381e2,%eax
   32374:	89 45 f4             	mov    %eax,0xfffffff4(%ebp)
   32377:	8b 45 f0             	mov    0xfffffff0(%ebp),%eax
   3237a:	66 c7 00 ff 03       	movw   $0x3ff,(%eax)
   3237f:	b8 00 7d 03 00       	mov    $0x37d00,%eax
   32384:	89 c2                	mov    %eax,%edx
   32386:	8b 45 f4             	mov    0xfffffff4(%ebp),%eax
   32389:	89 10                	mov    %edx,(%eax)
   3238b:	c7 04 24 a8 4a 03 00 	movl   $0x34aa8,(%esp)
   32392:	e8 ad 05 00 00       	call   32944 <disp_str>
   32397:	c7 45 f8 e0 7c 03 00 	movl   $0x37ce0,0xfffffff8(%ebp)
   3239e:	b8 e2 7c 03 00       	mov    $0x37ce2,%eax
   323a3:	89 45 fc             	mov    %eax,0xfffffffc(%ebp)
   323a6:	8b 45 f8             	mov    0xfffffff8(%ebp),%eax
   323a9:	66 c7 00 ff 07       	movw   $0x7ff,(%eax)
   323ae:	b8 00 82 03 00       	mov    $0x38200,%eax
   323b3:	89 c2                	mov    %eax,%edx
   323b5:	8b 45 fc             	mov    0xfffffffc(%ebp),%eax
   323b8:	89 10                	mov    %edx,(%eax)
   323ba:	c9                   	leave  
   323bb:	c3                   	ret    

000323bc <sys_init>:
   323bc:	55                   	push   %ebp
   323bd:	89 e5                	mov    %esp,%ebp
   323bf:	83 ec 08             	sub    $0x8,%esp
   323c2:	c7 04 24 c5 4a 03 00 	movl   $0x34ac5,(%esp)
   323c9:	e8 76 05 00 00       	call   32944 <disp_str>
   323ce:	e8 e9 ef ff ff       	call   313bc <init_prot>
   323d3:	c7 04 24 e2 4a 03 00 	movl   $0x34ae2,(%esp)
   323da:	e8 65 05 00 00       	call   32944 <disp_str>
   323df:	e8 3a 05 00 00       	call   3291e <init_sys_call>
   323e4:	c7 05 00 8a 03 00 00 	movl   $0x0,0x38a00
   323eb:	00 00 00 
   323ee:	c7 04 24 ff 4a 03 00 	movl   $0x34aff,(%esp)
   323f5:	e8 4a 05 00 00       	call   32944 <disp_str>
   323fa:	e8 31 00 00 00       	call   32430 <set_timer>
   323ff:	c7 04 24 1c 4b 03 00 	movl   $0x34b1c,(%esp)
   32406:	e8 39 05 00 00       	call   32944 <disp_str>
   3240b:	e8 65 0e 00 00       	call   33275 <init_all_ttys>
   32410:	c7 05 80 f1 09 00 32 	movl   $0x32,0x9f180
   32417:	00 00 00 
   3241a:	c7 05 80 f1 09 00 03 	movl   $0x3,0x9f180
   32421:	00 00 00 
   32424:	e8 fc eb ff ff       	call   31025 <init_process_table>
   32429:	e8 ca 00 00 00       	call   324f8 <init_tss>
   3242e:	c9                   	leave  
   3242f:	c3                   	ret    

00032430 <set_timer>:
   32430:	55                   	push   %ebp
   32431:	89 e5                	mov    %esp,%ebp
   32433:	83 ec 08             	sub    $0x8,%esp
   32436:	c7 44 24 04 34 00 00 	movl   $0x34,0x4(%esp)
   3243d:	00 
   3243e:	c7 04 24 43 00 00 00 	movl   $0x43,(%esp)
   32445:	e8 5c 05 00 00       	call   329a6 <out_byte>
   3244a:	c7 44 24 04 37 00 00 	movl   $0x37,0x4(%esp)
   32451:	00 
   32452:	c7 04 24 40 00 00 00 	movl   $0x40,(%esp)
   32459:	e8 48 05 00 00       	call   329a6 <out_byte>
   3245e:	c7 44 24 04 5d 00 00 	movl   $0x5d,0x4(%esp)
   32465:	00 
   32466:	c7 04 24 40 00 00 00 	movl   $0x40,(%esp)
   3246d:	e8 34 05 00 00       	call   329a6 <out_byte>
   32472:	c9                   	leave  
   32473:	c3                   	ret    

00032474 <setGDTEntry>:
   32474:	55                   	push   %ebp
   32475:	89 e5                	mov    %esp,%ebp
   32477:	83 ec 04             	sub    $0x4,%esp
   3247a:	8b 45 14             	mov    0x14(%ebp),%eax
   3247d:	66 89 45 fc          	mov    %ax,0xfffffffc(%ebp)
   32481:	8b 55 08             	mov    0x8(%ebp),%edx
   32484:	8b 45 10             	mov    0x10(%ebp),%eax
   32487:	66 89 04 d5 00 7d 03 	mov    %ax,0x37d00(,%edx,8)
   3248e:	00 
   3248f:	8b 55 08             	mov    0x8(%ebp),%edx
   32492:	8b 45 0c             	mov    0xc(%ebp),%eax
   32495:	66 89 04 d5 02 7d 03 	mov    %ax,0x37d02(,%edx,8)
   3249c:	00 
   3249d:	8b 55 08             	mov    0x8(%ebp),%edx
   324a0:	8b 45 0c             	mov    0xc(%ebp),%eax
   324a3:	c1 e8 10             	shr    $0x10,%eax
   324a6:	88 04 d5 04 7d 03 00 	mov    %al,0x37d04(,%edx,8)
   324ad:	8b 4d 08             	mov    0x8(%ebp),%ecx
   324b0:	0f b7 45 fc          	movzwl 0xfffffffc(%ebp),%eax
   324b4:	89 c2                	mov    %eax,%edx
   324b6:	b8 ff ff ff ff       	mov    $0xffffffff,%eax
   324bb:	21 d0                	and    %edx,%eax
   324bd:	88 04 cd 05 7d 03 00 	mov    %al,0x37d05(,%ecx,8)
   324c4:	8b 4d 08             	mov    0x8(%ebp),%ecx
   324c7:	0f b7 45 fc          	movzwl 0xfffffffc(%ebp),%eax
   324cb:	66 c1 e8 08          	shr    $0x8,%ax
   324cf:	89 c2                	mov    %eax,%edx
   324d1:	83 e2 f0             	and    $0xfffffff0,%edx
   324d4:	8b 45 10             	mov    0x10(%ebp),%eax
   324d7:	c1 e8 10             	shr    $0x10,%eax
   324da:	83 e0 0f             	and    $0xf,%eax
   324dd:	09 d0                	or     %edx,%eax
   324df:	88 04 cd 06 7d 03 00 	mov    %al,0x37d06(,%ecx,8)
   324e6:	8b 55 08             	mov    0x8(%ebp),%edx
   324e9:	8b 45 0c             	mov    0xc(%ebp),%eax
   324ec:	c1 e8 18             	shr    $0x18,%eax
   324ef:	88 04 d5 07 7d 03 00 	mov    %al,0x37d07(,%edx,8)
   324f6:	c9                   	leave  
   324f7:	c3                   	ret    

000324f8 <init_tss>:
   324f8:	55                   	push   %ebp
   324f9:	89 e5                	mov    %esp,%ebp
   324fb:	83 ec 10             	sub    $0x10,%esp
   324fe:	66 c7 05 88 81 03 00 	movw   $0xff,0x38188
   32505:	ff 00 
   32507:	b8 20 81 03 00       	mov    $0x38120,%eax
   3250c:	c7 44 24 0c 89 40 00 	movl   $0x4089,0xc(%esp)
   32513:	00 
   32514:	c7 44 24 08 6b 00 00 	movl   $0x6b,0x8(%esp)
   3251b:	00 
   3251c:	89 44 24 04          	mov    %eax,0x4(%esp)
   32520:	c7 04 24 04 00 00 00 	movl   $0x4,(%esp)
   32527:	e8 48 ff ff ff       	call   32474 <setGDTEntry>
   3252c:	c9                   	leave  
   3252d:	c3                   	ret    
   3252e:	90                   	nop    
   3252f:	90                   	nop    

00032530 <clock_int>:
   32530:	ff 05 00 8a 03 00    	incl   0x38a00
   32536:	65 fe 05 1a 02 00 00 	incb   %gs:0x21a
   3253d:	e8 61 00 00 00       	call   325a3 <Save>
   32542:	b0 20                	mov    $0x20,%al
   32544:	e6 20                	out    %al,$0x20
   32546:	fb                   	sti    
   32547:	ff 05 84 f1 09 00    	incl   0x9f184
   3254d:	a1 84 f1 09 00       	mov    0x9f184,%eax
   32552:	3b 05 80 f1 09 00    	cmp    0x9f180,%eax
   32558:	0f 86 0f 00 00 00    	jbe    3256d <clock_int.noswitch>
   3255e:	c7 05 84 f1 09 00 00 	movl   $0x0,0x9f184
   32565:	00 00 00 
   32568:	e8 d7 ec ff ff       	call   31244 <schedule>

0003256d <clock_int.noswitch>:
   3256d:	fa                   	cli    
   3256e:	c3                   	ret    

0003256f <key_int>:
   3256f:	65 fe 05 1e 02 00 00 	incb   %gs:0x21e
   32576:	e8 28 00 00 00       	call   325a3 <Save>
   3257b:	b0 20                	mov    $0x20,%al
   3257d:	e6 20                	out    %al,$0x20
   3257f:	fb                   	sti    
   32580:	e8 4b 13 00 00       	call   338d0 <key_interrupt>
   32585:	fa                   	cli    
   32586:	c3                   	ret    

00032587 <disk_int>:
   32587:	65 fe 05 20 02 00 00 	incb   %gs:0x220
   3258e:	e8 10 00 00 00       	call   325a3 <Save>
   32593:	b0 20                	mov    $0x20,%al
   32595:	e6 a0                	out    %al,$0xa0
   32597:	b0 20                	mov    $0x20,%al
   32599:	e6 20                	out    %al,$0x20
   3259b:	fb                   	sti    
   3259c:	e8 c3 07 00 00       	call   32d64 <hd_handler>
   325a1:	fa                   	cli    
   325a2:	c3                   	ret    

000325a3 <Save>:
   325a3:	60                   	pusha  
   325a4:	1e                   	push   %ds
   325a5:	06                   	push   %es
   325a6:	0f a0                	push   %fs
   325a8:	0f a8                	push   %gs
   325aa:	66 8c d7             	movw   %ss,%di
   325ad:	8e df                	movl   %edi,%ds
   325af:	8e c7                	movl   %edi,%es
   325b1:	89 e7                	mov    %esp,%edi
   325b3:	ff 05 e8 7c 03 00    	incl   0x37ce8
   325b9:	81 3d e8 7c 03 00 01 	cmpl   $0x1,0x37ce8
   325c0:	00 00 00 
   325c3:	0f 87 0d 00 00 00    	ja     325d6 <Save.reenter>
   325c9:	bc 20 76 03 00       	mov    $0x37620,%esp
   325ce:	68 e5 25 03 00       	push   $0x325e5
   325d3:	ff 67 30             	jmp    *0x30(%edi)

000325d6 <Save.reenter>:
   325d6:	68 2b 26 03 00       	push   $0x3262b
   325db:	65 fe 05 1c 02 00 00 	incb   %gs:0x21c
   325e2:	ff 67 30             	jmp    *0x30(%edi)

000325e5 <restart>:
   325e5:	ff 35 00 81 03 00    	pushl  0x38100
   325eb:	e8 dc df ff ff       	call   305cc <setTssEspReady>
   325f0:	81 c4 04 00 00 00    	add    $0x4,%esp
   325f6:	ff 35 00 81 03 00    	pushl  0x38100
   325fc:	e8 f2 df ff ff       	call   305f3 <getProRegTop>
   32601:	81 c4 04 00 00 00    	add    $0x4,%esp
   32607:	ff 35 00 81 03 00    	pushl  0x38100
   3260d:	e8 66 ea ff ff       	call   31078 <getProPointer>
   32612:	81 c4 04 00 00 00    	add    $0x4,%esp
   32618:	89 c6                	mov    %eax,%esi
   3261a:	03 35 94 49 03 00    	add    0x34994,%esi
   32620:	8b 06                	mov    (%esi),%eax
   32622:	0f 00 d0             	lldt   %ax
   32625:	8b 25 20 78 03 00    	mov    0x37820,%esp

0003262b <restart_reenter>:
   3262b:	ff 0d e8 7c 03 00    	decl   0x37ce8
   32631:	0f a9                	pop    %gs
   32633:	0f a1                	pop    %fs
   32635:	07                   	pop    %es
   32636:	1f                   	pop    %ds
   32637:	61                   	popa   
   32638:	81 c4 04 00 00 00    	add    $0x4,%esp
   3263e:	cf                   	iret   
   3263f:	90                   	nop    

00032640 <save_sys_call_ret>:
   32640:	55                   	push   %ebp
   32641:	89 e5                	mov    %esp,%ebp
   32643:	8b 45 08             	mov    0x8(%ebp),%eax
   32646:	83 e8 01             	sub    $0x1,%eax
   32649:	8b 55 0c             	mov    0xc(%ebp),%edx
   3264c:	69 c0 fc 28 00 00    	imul   $0x28fc,%eax,%eax
   32652:	89 90 4c 8a 03 00    	mov    %edx,0x38a4c(%eax)
   32658:	5d                   	pop    %ebp
   32659:	c3                   	ret    

0003265a <sys_get_ticks>:
   3265a:	55                   	push   %ebp
   3265b:	89 e5                	mov    %esp,%ebp
   3265d:	a1 00 8a 03 00       	mov    0x38a00,%eax
   32662:	5d                   	pop    %ebp
   32663:	c3                   	ret    

00032664 <sys_printx>:
   32664:	55                   	push   %ebp
   32665:	89 e5                	mov    %esp,%ebp
   32667:	53                   	push   %ebx
   32668:	83 ec 64             	sub    $0x64,%esp
   3266b:	c7 45 e4 00 00 00 00 	movl   $0x0,0xffffffe4(%ebp)
   32672:	a1 3c 4b 03 00       	mov    0x34b3c,%eax
   32677:	89 45 b8             	mov    %eax,0xffffffb8(%ebp)
   3267a:	a1 40 4b 03 00       	mov    0x34b40,%eax
   3267f:	89 45 bc             	mov    %eax,0xffffffbc(%ebp)
   32682:	a1 44 4b 03 00       	mov    0x34b44,%eax
   32687:	89 45 c0             	mov    %eax,0xffffffc0(%ebp)
   3268a:	a1 48 4b 03 00       	mov    0x34b48,%eax
   3268f:	89 45 c4             	mov    %eax,0xffffffc4(%ebp)
   32692:	a1 4c 4b 03 00       	mov    0x34b4c,%eax
   32697:	89 45 c8             	mov    %eax,0xffffffc8(%ebp)
   3269a:	a1 50 4b 03 00       	mov    0x34b50,%eax
   3269f:	89 45 cc             	mov    %eax,0xffffffcc(%ebp)
   326a2:	a1 54 4b 03 00       	mov    0x34b54,%eax
   326a7:	89 45 d0             	mov    %eax,0xffffffd0(%ebp)
   326aa:	a1 58 4b 03 00       	mov    0x34b58,%eax
   326af:	89 45 d4             	mov    %eax,0xffffffd4(%ebp)
   326b2:	a1 5c 4b 03 00       	mov    0x34b5c,%eax
   326b7:	89 45 d8             	mov    %eax,0xffffffd8(%ebp)
   326ba:	a1 60 4b 03 00       	mov    0x34b60,%eax
   326bf:	89 45 dc             	mov    %eax,0xffffffdc(%ebp)
   326c2:	a1 64 4b 03 00       	mov    0x34b64,%eax
   326c7:	89 45 e0             	mov    %eax,0xffffffe0(%ebp)
   326ca:	c6 45 b8 02          	movb   $0x2,0xffffffb8(%ebp)
   326ce:	a1 e8 7c 03 00       	mov    0x37ce8,%eax
   326d3:	85 c0                	test   %eax,%eax
   326d5:	75 17                	jne    326ee <sys_printx+0x8a>
   326d7:	8b 45 0c             	mov    0xc(%ebp),%eax
   326da:	89 44 24 04          	mov    %eax,0x4(%esp)
   326de:	8b 45 08             	mov    0x8(%ebp),%eax
   326e1:	89 04 24             	mov    %eax,(%esp)
   326e4:	e8 72 f7 ff ff       	call   31e5b <va2la>
   326e9:	89 45 e4             	mov    %eax,0xffffffe4(%ebp)
   326ec:	eb 17                	jmp    32705 <sys_printx+0xa1>
   326ee:	a1 e8 7c 03 00       	mov    0x37ce8,%eax
   326f3:	85 c0                	test   %eax,%eax
   326f5:	7e 08                	jle    326ff <sys_printx+0x9b>
   326f7:	8b 45 0c             	mov    0xc(%ebp),%eax
   326fa:	89 45 e4             	mov    %eax,0xffffffe4(%ebp)
   326fd:	eb 06                	jmp    32705 <sys_printx+0xa1>
   326ff:	8d 45 b8             	lea    0xffffffb8(%ebp),%eax
   32702:	89 45 e4             	mov    %eax,0xffffffe4(%ebp)
   32705:	83 7d 08 00          	cmpl   $0x0,0x8(%ebp)
   32709:	75 0b                	jne    32716 <sys_printx+0xb2>
   3270b:	8b 45 0c             	mov    0xc(%ebp),%eax
   3270e:	89 45 e4             	mov    %eax,0xffffffe4(%ebp)
   32711:	e9 c4 00 00 00       	jmp    327da <sys_printx+0x176>
   32716:	8b 45 e4             	mov    0xffffffe4(%ebp),%eax
   32719:	0f b6 00             	movzbl (%eax),%eax
   3271c:	3c 02                	cmp    $0x2,%al
   3271e:	74 18                	je     32738 <sys_printx+0xd4>
   32720:	8b 45 e4             	mov    0xffffffe4(%ebp),%eax
   32723:	0f b6 00             	movzbl (%eax),%eax
   32726:	3c 03                	cmp    $0x3,%al
   32728:	0f 85 ac 00 00 00    	jne    327da <sys_printx+0x176>
   3272e:	83 7d 08 13          	cmpl   $0x13,0x8(%ebp)
   32732:	0f 8f a2 00 00 00    	jg     327da <sys_printx+0x176>
   32738:	e8 03 02 00 00       	call   32940 <disable_int>
   3273d:	c7 45 f4 00 80 0b 00 	movl   $0xb8000,0xfffffff4(%ebp)
   32744:	8b 45 e4             	mov    0xffffffe4(%ebp),%eax
   32747:	83 c0 01             	add    $0x1,%eax
   3274a:	89 45 f8             	mov    %eax,0xfffffff8(%ebp)
   3274d:	eb 7d                	jmp    327cc <sys_printx+0x168>
   3274f:	8b 45 f8             	mov    0xfffffff8(%ebp),%eax
   32752:	0f b6 10             	movzbl (%eax),%edx
   32755:	8b 45 f4             	mov    0xfffffff4(%ebp),%eax
   32758:	88 10                	mov    %dl,(%eax)
   3275a:	83 45 f4 01          	addl   $0x1,0xfffffff4(%ebp)
   3275e:	83 45 f8 01          	addl   $0x1,0xfffffff8(%ebp)
   32762:	8b 45 f4             	mov    0xfffffff4(%ebp),%eax
   32765:	c6 00 1c             	movb   $0x1c,(%eax)
   32768:	83 45 f4 01          	addl   $0x1,0xfffffff4(%ebp)
   3276c:	8b 45 f8             	mov    0xfffffff8(%ebp),%eax
   3276f:	0f b6 00             	movzbl (%eax),%eax
   32772:	84 c0                	test   %al,%al
   32774:	75 56                	jne    327cc <sys_printx+0x168>
   32776:	eb 0e                	jmp    32786 <sys_printx+0x122>
   32778:	83 45 f4 01          	addl   $0x1,0xfffffff4(%ebp)
   3277c:	8b 45 f4             	mov    0xfffffff4(%ebp),%eax
   3277f:	c6 00 08             	movb   $0x8,(%eax)
   32782:	83 45 f4 01          	addl   $0x1,0xfffffff4(%ebp)
   32786:	8b 45 f4             	mov    0xfffffff4(%ebp),%eax
   32789:	8d 88 00 80 f4 ff    	lea    0xfff48000(%eax),%ecx
   3278f:	c7 45 a4 67 66 66 66 	movl   $0x66666667,0xffffffa4(%ebp)
   32796:	8b 45 a4             	mov    0xffffffa4(%ebp),%eax
   32799:	f7 e9                	imul   %ecx
   3279b:	c1 fa 09             	sar    $0x9,%edx
   3279e:	89 c8                	mov    %ecx,%eax
   327a0:	c1 f8 1f             	sar    $0x1f,%eax
   327a3:	89 d3                	mov    %edx,%ebx
   327a5:	29 c3                	sub    %eax,%ebx
   327a7:	89 5d a8             	mov    %ebx,0xffffffa8(%ebp)
   327aa:	8b 45 a8             	mov    0xffffffa8(%ebp),%eax
   327ad:	c1 e0 02             	shl    $0x2,%eax
   327b0:	03 45 a8             	add    0xffffffa8(%ebp),%eax
   327b3:	c1 e0 08             	shl    $0x8,%eax
   327b6:	89 ca                	mov    %ecx,%edx
   327b8:	29 c2                	sub    %eax,%edx
   327ba:	89 55 a8             	mov    %edx,0xffffffa8(%ebp)
   327bd:	83 7d a8 00          	cmpl   $0x0,0xffffffa8(%ebp)
   327c1:	75 b5                	jne    32778 <sys_printx+0x114>
   327c3:	8b 45 e4             	mov    0xffffffe4(%ebp),%eax
   327c6:	83 c0 01             	add    $0x1,%eax
   327c9:	89 45 f8             	mov    %eax,0xfffffff8(%ebp)
   327cc:	81 7d f4 ff ff 0b 00 	cmpl   $0xbffff,0xfffffff4(%ebp)
   327d3:	0f 86 76 ff ff ff    	jbe    3274f <sys_printx+0xeb>
   327d9:	f4                   	hlt    
   327da:	c7 45 e8 00 00 00 00 	movl   $0x0,0xffffffe8(%ebp)
   327e1:	8b 45 08             	mov    0x8(%ebp),%eax
   327e4:	83 e8 01             	sub    $0x1,%eax
   327e7:	69 c0 fc 28 00 00    	imul   $0x28fc,%eax,%eax
   327ed:	8b 80 f8 b2 03 00    	mov    0x3b2f8(%eax),%eax
   327f3:	89 45 ec             	mov    %eax,0xffffffec(%ebp)
   327f6:	c7 45 f0 00 00 00 00 	movl   $0x0,0xfffffff0(%ebp)
   327fd:	c7 45 e8 00 00 00 00 	movl   $0x0,0xffffffe8(%ebp)
   32804:	eb 41                	jmp    32847 <sys_printx+0x1e3>
   32806:	8b 45 e8             	mov    0xffffffe8(%ebp),%eax
   32809:	03 45 0c             	add    0xc(%ebp),%eax
   3280c:	0f b6 00             	movzbl (%eax),%eax
   3280f:	3c 02                	cmp    $0x2,%al
   32811:	74 30                	je     32843 <sys_printx+0x1df>
   32813:	8b 45 e8             	mov    0xffffffe8(%ebp),%eax
   32816:	03 45 0c             	add    0xc(%ebp),%eax
   32819:	0f b6 00             	movzbl (%eax),%eax
   3281c:	3c 03                	cmp    $0x3,%al
   3281e:	74 23                	je     32843 <sys_printx+0x1df>
   32820:	8b 45 e8             	mov    0xffffffe8(%ebp),%eax
   32823:	03 45 0c             	add    0xc(%ebp),%eax
   32826:	0f b6 00             	movzbl (%eax),%eax
   32829:	0f be c0             	movsbl %al,%eax
   3282c:	89 44 24 04          	mov    %eax,0x4(%esp)
   32830:	8b 45 ec             	mov    0xffffffec(%ebp),%eax
   32833:	89 04 24             	mov    %eax,(%esp)
   32836:	e8 74 16 00 00       	call   33eaf <printChar>
   3283b:	85 c0                	test   %eax,%eax
   3283d:	75 04                	jne    32843 <sys_printx+0x1df>
   3283f:	83 45 f0 01          	addl   $0x1,0xfffffff0(%ebp)
   32843:	83 45 e8 01          	addl   $0x1,0xffffffe8(%ebp)
   32847:	8b 45 e8             	mov    0xffffffe8(%ebp),%eax
   3284a:	3b 45 10             	cmp    0x10(%ebp),%eax
   3284d:	7d 0d                	jge    3285c <sys_printx+0x1f8>
   3284f:	8b 45 e8             	mov    0xffffffe8(%ebp),%eax
   32852:	03 45 0c             	add    0xc(%ebp),%eax
   32855:	0f b6 00             	movzbl (%eax),%eax
   32858:	84 c0                	test   %al,%al
   3285a:	75 aa                	jne    32806 <sys_printx+0x1a2>
   3285c:	8b 45 e8             	mov    0xffffffe8(%ebp),%eax
   3285f:	83 c4 64             	add    $0x64,%esp
   32862:	5b                   	pop    %ebx
   32863:	5d                   	pop    %ebp
   32864:	c3                   	ret    

00032865 <sys_sendrec>:
   32865:	55                   	push   %ebp
   32866:	89 e5                	mov    %esp,%ebp
   32868:	83 ec 18             	sub    $0x18,%esp
   3286b:	83 7d 0c 01          	cmpl   $0x1,0xc(%ebp)
   3286f:	75 49                	jne    328ba <sys_sendrec+0x55>
   32871:	8b 55 14             	mov    0x14(%ebp),%edx
   32874:	8b 45 08             	mov    0x8(%ebp),%eax
   32877:	89 02                	mov    %eax,(%edx)
   32879:	8b 45 14             	mov    0x14(%ebp),%eax
   3287c:	89 44 24 08          	mov    %eax,0x8(%esp)
   32880:	8b 45 10             	mov    0x10(%ebp),%eax
   32883:	89 44 24 04          	mov    %eax,0x4(%esp)
   32887:	8b 45 08             	mov    0x8(%ebp),%eax
   3288a:	89 04 24             	mov    %eax,(%esp)
   3288d:	e8 d6 dd ff ff       	call   30668 <msg_send>
   32892:	83 7d 08 01          	cmpl   $0x1,0x8(%ebp)
   32896:	74 06                	je     3289e <sys_sendrec+0x39>
   32898:	83 7d 10 01          	cmpl   $0x1,0x10(%ebp)
   3289c:	75 79                	jne    32917 <sys_sendrec+0xb2>
   3289e:	8b 45 10             	mov    0x10(%ebp),%eax
   328a1:	89 44 24 08          	mov    %eax,0x8(%esp)
   328a5:	8b 45 08             	mov    0x8(%ebp),%eax
   328a8:	89 44 24 04          	mov    %eax,0x4(%esp)
   328ac:	c7 04 24 68 4b 03 00 	movl   $0x34b68,(%esp)
   328b3:	e8 28 f8 ff ff       	call   320e0 <printf_kernel>
   328b8:	eb 5d                	jmp    32917 <sys_sendrec+0xb2>
   328ba:	83 7d 0c 02          	cmpl   $0x2,0xc(%ebp)
   328be:	75 4b                	jne    3290b <sys_sendrec+0xa6>
   328c0:	83 7d 08 01          	cmpl   $0x1,0x8(%ebp)
   328c4:	74 06                	je     328cc <sys_sendrec+0x67>
   328c6:	83 7d 10 01          	cmpl   $0x1,0x10(%ebp)
   328ca:	75 24                	jne    328f0 <sys_sendrec+0x8b>
   328cc:	8b 45 14             	mov    0x14(%ebp),%eax
   328cf:	8b 40 08             	mov    0x8(%eax),%eax
   328d2:	89 44 24 0c          	mov    %eax,0xc(%esp)
   328d6:	8b 45 10             	mov    0x10(%ebp),%eax
   328d9:	89 44 24 08          	mov    %eax,0x8(%esp)
   328dd:	8b 45 08             	mov    0x8(%ebp),%eax
   328e0:	89 44 24 04          	mov    %eax,0x4(%esp)
   328e4:	c7 04 24 7d 4b 03 00 	movl   $0x34b7d,(%esp)
   328eb:	e8 f0 f7 ff ff       	call   320e0 <printf_kernel>
   328f0:	8b 45 14             	mov    0x14(%ebp),%eax
   328f3:	89 44 24 08          	mov    %eax,0x8(%esp)
   328f7:	8b 45 10             	mov    0x10(%ebp),%eax
   328fa:	89 44 24 04          	mov    %eax,0x4(%esp)
   328fe:	8b 45 08             	mov    0x8(%ebp),%eax
   32901:	89 04 24             	mov    %eax,(%esp)
   32904:	e8 57 e0 ff ff       	call   30960 <msg_receive>
   32909:	eb 0c                	jmp    32917 <sys_sendrec+0xb2>
   3290b:	c7 04 24 9c 4b 03 00 	movl   $0x34b9c,(%esp)
   32912:	e8 b4 01 00 00       	call   32acb <panic>
   32917:	b8 01 00 00 00       	mov    $0x1,%eax
   3291c:	c9                   	leave  
   3291d:	c3                   	ret    

0003291e <init_sys_call>:
   3291e:	55                   	push   %ebp
   3291f:	89 e5                	mov    %esp,%ebp
   32921:	c7 05 a4 81 03 00 64 	movl   $0x32664,0x381a4
   32928:	26 03 00 
   3292b:	c7 05 a8 81 03 00 65 	movl   $0x32865,0x381a8
   32932:	28 03 00 
   32935:	5d                   	pop    %ebp
   32936:	c3                   	ret    
   32937:	90                   	nop    
   32938:	90                   	nop    
   32939:	90                   	nop    
   3293a:	90                   	nop    
   3293b:	90                   	nop    
   3293c:	90                   	nop    
   3293d:	90                   	nop    
   3293e:	90                   	nop    
   3293f:	90                   	nop    

00032940 <disable_int>:
   32940:	fa                   	cli    
   32941:	c3                   	ret    

00032942 <enable_int>:
   32942:	fb                   	sti    
   32943:	c3                   	ret    

00032944 <disp_str>:
   32944:	55                   	push   %ebp
   32945:	89 e5                	mov    %esp,%ebp
   32947:	56                   	push   %esi
   32948:	57                   	push   %edi
   32949:	50                   	push   %eax
   3294a:	53                   	push   %ebx
   3294b:	8b 75 08             	mov    0x8(%ebp),%esi
   3294e:	8b 3d 04 50 03 00    	mov    0x35004,%edi
   32954:	b4 0f                	mov    $0xf,%ah
   32956:	fc                   	cld    

00032957 <disp_str.1>:
   32957:	ac                   	lods   %ds:(%esi),%al
   32958:	84 c0                	test   %al,%al
   3295a:	0f 84 38 00 00 00    	je     32998 <disp_str.2>
   32960:	3c 7a                	cmp    $0x7a,%al
   32962:	0f 85 00 00 00 00    	jne    32968 <disp_str.4>

00032968 <disp_str.4>:
   32968:	3c 0a                	cmp    $0xa,%al
   3296a:	0f 85 19 00 00 00    	jne    32989 <disp_str.3>
   32970:	50                   	push   %eax
   32971:	89 f8                	mov    %edi,%eax
   32973:	b3 a0                	mov    $0xa0,%bl
   32975:	f6 f3                	div    %bl
   32977:	25 ff 00 00 00       	and    $0xff,%eax
   3297c:	40                   	inc    %eax
   3297d:	b3 a0                	mov    $0xa0,%bl
   3297f:	f6 e3                	mul    %bl
   32981:	89 c7                	mov    %eax,%edi
   32983:	58                   	pop    %eax
   32984:	e9 ce ff ff ff       	jmp    32957 <disp_str.1>

00032989 <disp_str.3>:
   32989:	65 66 89 07          	mov    %ax,%gs:(%edi)
   3298d:	81 c7 02 00 00 00    	add    $0x2,%edi
   32993:	e9 bf ff ff ff       	jmp    32957 <disp_str.1>

00032998 <disp_str.2>:
   32998:	89 3d 04 50 03 00    	mov    %edi,0x35004
   3299e:	5b                   	pop    %ebx
   3299f:	58                   	pop    %eax
   329a0:	5f                   	pop    %edi
   329a1:	5e                   	pop    %esi
   329a2:	89 ec                	mov    %ebp,%esp
   329a4:	5d                   	pop    %ebp
   329a5:	c3                   	ret    

000329a6 <out_byte>:
   329a6:	55                   	push   %ebp
   329a7:	89 e5                	mov    %esp,%ebp
   329a9:	8b 55 08             	mov    0x8(%ebp),%edx
   329ac:	8a 45 0c             	mov    0xc(%ebp),%al
   329af:	ee                   	out    %al,(%dx)
   329b0:	90                   	nop    
   329b1:	90                   	nop    
   329b2:	89 ec                	mov    %ebp,%esp
   329b4:	5d                   	pop    %ebp
   329b5:	c3                   	ret    

000329b6 <in_byte>:
   329b6:	55                   	push   %ebp
   329b7:	89 e5                	mov    %esp,%ebp
   329b9:	8b 55 08             	mov    0x8(%ebp),%edx
   329bc:	31 c0                	xor    %eax,%eax
   329be:	ec                   	in     (%dx),%al
   329bf:	90                   	nop    
   329c0:	90                   	nop    
   329c1:	89 ec                	mov    %ebp,%esp
   329c3:	5d                   	pop    %ebp
   329c4:	c3                   	ret    

000329c5 <port_read>:
   329c5:	8b 54 24 04          	mov    0x4(%esp),%edx
   329c9:	8b 7c 24 08          	mov    0x8(%esp),%edi
   329cd:	8b 4c 24 0c          	mov    0xc(%esp),%ecx
   329d1:	d1 e9                	shr    %ecx
   329d3:	fc                   	cld    
   329d4:	f3 66 6d             	rep insw (%dx),%es:(%edi)
   329d7:	c3                   	ret    

000329d8 <memcpy>:
   329d8:	55                   	push   %ebp
   329d9:	89 e5                	mov    %esp,%ebp
   329db:	56                   	push   %esi
   329dc:	57                   	push   %edi
   329dd:	51                   	push   %ecx
   329de:	50                   	push   %eax
   329df:	8b 7d 08             	mov    0x8(%ebp),%edi
   329e2:	8b 75 0c             	mov    0xc(%ebp),%esi
   329e5:	8b 4d 10             	mov    0x10(%ebp),%ecx

000329e8 <memcpy.loop>:
   329e8:	3e 8a 06             	mov    %ds:(%esi),%al
   329eb:	26 88 07             	mov    %al,%es:(%edi)
   329ee:	46                   	inc    %esi
   329ef:	47                   	inc    %edi
   329f0:	e2 f6                	loop   329e8 <memcpy.loop>
   329f2:	58                   	pop    %eax
   329f3:	59                   	pop    %ecx
   329f4:	5f                   	pop    %edi
   329f5:	5e                   	pop    %esi
   329f6:	89 ec                	mov    %ebp,%esp
   329f8:	5d                   	pop    %ebp
   329f9:	c3                   	ret    

000329fa <disp_color_str>:
   329fa:	55                   	push   %ebp
   329fb:	89 e5                	mov    %esp,%ebp
   329fd:	8b 75 08             	mov    0x8(%ebp),%esi
   32a00:	8b 3d 04 50 03 00    	mov    0x35004,%edi
   32a06:	8a 65 0c             	mov    0xc(%ebp),%ah

00032a09 <disp_color_str.1>:
   32a09:	ac                   	lods   %ds:(%esi),%al
   32a0a:	84 c0                	test   %al,%al
   32a0c:	0f 84 30 00 00 00    	je     32a42 <disp_color_str.2>
   32a12:	3c 0a                	cmp    $0xa,%al
   32a14:	0f 85 19 00 00 00    	jne    32a33 <disp_color_str.3>
   32a1a:	50                   	push   %eax
   32a1b:	89 f8                	mov    %edi,%eax
   32a1d:	b3 a0                	mov    $0xa0,%bl
   32a1f:	f6 f3                	div    %bl
   32a21:	25 ff 00 00 00       	and    $0xff,%eax
   32a26:	40                   	inc    %eax
   32a27:	b3 a0                	mov    $0xa0,%bl
   32a29:	f6 e3                	mul    %bl
   32a2b:	89 c7                	mov    %eax,%edi
   32a2d:	58                   	pop    %eax
   32a2e:	e9 d6 ff ff ff       	jmp    32a09 <disp_color_str.1>

00032a33 <disp_color_str.3>:
   32a33:	65 66 89 07          	mov    %ax,%gs:(%edi)
   32a37:	81 c7 02 00 00 00    	add    $0x2,%edi
   32a3d:	e9 c7 ff ff ff       	jmp    32a09 <disp_color_str.1>

00032a42 <disp_color_str.2>:
   32a42:	81 ff a0 0f 00 00    	cmp    $0xfa0,%edi
   32a48:	0f 82 05 00 00 00    	jb     32a53 <disp_color_str.4>
   32a4e:	bf 02 00 00 00       	mov    $0x2,%edi

00032a53 <disp_color_str.4>:
   32a53:	89 3d 04 50 03 00    	mov    %edi,0x35004
   32a59:	89 ec                	mov    %ebp,%esp
   32a5b:	5d                   	pop    %ebp
   32a5c:	c3                   	ret    
   32a5d:	90                   	nop    
   32a5e:	90                   	nop    
   32a5f:	90                   	nop    

00032a60 <spin>:
   32a60:	55                   	push   %ebp
   32a61:	89 e5                	mov    %esp,%ebp
   32a63:	83 ec 08             	sub    $0x8,%esp
   32a66:	8b 45 08             	mov    0x8(%ebp),%eax
   32a69:	89 44 24 04          	mov    %eax,0x4(%esp)
   32a6d:	c7 04 24 c8 4b 03 00 	movl   $0x34bc8,(%esp)
   32a74:	e8 0b f5 ff ff       	call   31f84 <printf>
   32a79:	eb fe                	jmp    32a79 <spin+0x19>

00032a7b <assertion_failure>:
   32a7b:	55                   	push   %ebp
   32a7c:	89 e5                	mov    %esp,%ebp
   32a7e:	83 ec 28             	sub    $0x28,%esp
   32a81:	8b 15 00 81 03 00    	mov    0x38100,%edx
   32a87:	8b 45 10             	mov    0x10(%ebp),%eax
   32a8a:	89 44 24 18          	mov    %eax,0x18(%esp)
   32a8e:	8b 45 14             	mov    0x14(%ebp),%eax
   32a91:	89 44 24 14          	mov    %eax,0x14(%esp)
   32a95:	8b 45 0c             	mov    0xc(%ebp),%eax
   32a98:	89 44 24 10          	mov    %eax,0x10(%esp)
   32a9c:	8b 45 08             	mov    0x8(%ebp),%eax
   32a9f:	89 44 24 0c          	mov    %eax,0xc(%esp)
   32aa3:	c7 44 24 08 03 00 00 	movl   $0x3,0x8(%esp)
   32aaa:	00 
   32aab:	89 54 24 04          	mov    %edx,0x4(%esp)
   32aaf:	c7 04 24 dc 4b 03 00 	movl   $0x34bdc,(%esp)
   32ab6:	e8 c9 f4 ff ff       	call   31f84 <printf>
   32abb:	c7 04 24 1c 4c 03 00 	movl   $0x34c1c,(%esp)
   32ac2:	e8 99 ff ff ff       	call   32a60 <spin>
   32ac7:	0f 0b                	ud2a   
   32ac9:	c9                   	leave  
   32aca:	c3                   	ret    

00032acb <panic>:
   32acb:	55                   	push   %ebp
   32acc:	89 e5                	mov    %esp,%ebp
   32ace:	81 ec 28 01 00 00    	sub    $0x128,%esp
   32ad4:	8d 45 08             	lea    0x8(%ebp),%eax
   32ad7:	83 c0 04             	add    $0x4,%eax
   32ada:	89 45 fc             	mov    %eax,0xfffffffc(%ebp)
   32add:	8b 45 08             	mov    0x8(%ebp),%eax
   32ae0:	89 44 24 08          	mov    %eax,0x8(%esp)
   32ae4:	8b 45 fc             	mov    0xfffffffc(%ebp),%eax
   32ae7:	89 44 24 04          	mov    %eax,0x4(%esp)
   32aeb:	8d 85 f8 fe ff ff    	lea    0xfffffef8(%ebp),%eax
   32af1:	89 04 24             	mov    %eax,(%esp)
   32af4:	e8 d6 f4 ff ff       	call   31fcf <vsprintf>
   32af9:	89 45 f8             	mov    %eax,0xfffffff8(%ebp)
   32afc:	8d 85 f8 fe ff ff    	lea    0xfffffef8(%ebp),%eax
   32b02:	89 44 24 08          	mov    %eax,0x8(%esp)
   32b06:	c7 44 24 04 02 00 00 	movl   $0x2,0x4(%esp)
   32b0d:	00 
   32b0e:	c7 04 24 2d 4c 03 00 	movl   $0x34c2d,(%esp)
   32b15:	e8 6a f4 ff ff       	call   31f84 <printf>
   32b1a:	0f 0b                	ud2a   
   32b1c:	c9                   	leave  
   32b1d:	c3                   	ret    

00032b1e <spin_kernel>:
   32b1e:	55                   	push   %ebp
   32b1f:	89 e5                	mov    %esp,%ebp
   32b21:	83 ec 08             	sub    $0x8,%esp
   32b24:	8b 45 08             	mov    0x8(%ebp),%eax
   32b27:	89 44 24 04          	mov    %eax,0x4(%esp)
   32b2b:	c7 04 24 c8 4b 03 00 	movl   $0x34bc8,(%esp)
   32b32:	e8 a9 f5 ff ff       	call   320e0 <printf_kernel>
   32b37:	eb fe                	jmp    32b37 <spin_kernel+0x19>

00032b39 <assertion_failure_kernel>:
   32b39:	55                   	push   %ebp
   32b3a:	89 e5                	mov    %esp,%ebp
   32b3c:	83 ec 28             	sub    $0x28,%esp
   32b3f:	8b 15 00 81 03 00    	mov    0x38100,%edx
   32b45:	8b 45 10             	mov    0x10(%ebp),%eax
   32b48:	89 44 24 18          	mov    %eax,0x18(%esp)
   32b4c:	8b 45 14             	mov    0x14(%ebp),%eax
   32b4f:	89 44 24 14          	mov    %eax,0x14(%esp)
   32b53:	8b 45 0c             	mov    0xc(%ebp),%eax
   32b56:	89 44 24 10          	mov    %eax,0x10(%esp)
   32b5a:	8b 45 08             	mov    0x8(%ebp),%eax
   32b5d:	89 44 24 0c          	mov    %eax,0xc(%esp)
   32b61:	c7 44 24 08 03 00 00 	movl   $0x3,0x8(%esp)
   32b68:	00 
   32b69:	89 54 24 04          	mov    %edx,0x4(%esp)
   32b6d:	c7 04 24 dc 4b 03 00 	movl   $0x34bdc,(%esp)
   32b74:	e8 67 f5 ff ff       	call   320e0 <printf_kernel>
   32b79:	c7 04 24 1c 4c 03 00 	movl   $0x34c1c,(%esp)
   32b80:	e8 99 ff ff ff       	call   32b1e <spin_kernel>
   32b85:	0f 0b                	ud2a   
   32b87:	c9                   	leave  
   32b88:	c3                   	ret    
   32b89:	90                   	nop    
   32b8a:	90                   	nop    
   32b8b:	90                   	nop    

00032b8c <disp_int>:
   32b8c:	55                   	push   %ebp
   32b8d:	89 e5                	mov    %esp,%ebp
   32b8f:	83 ec 18             	sub    $0x18,%esp
   32b92:	8b 45 08             	mov    0x8(%ebp),%eax
   32b95:	89 44 24 04          	mov    %eax,0x4(%esp)
   32b99:	8d 45 f4             	lea    0xfffffff4(%ebp),%eax
   32b9c:	89 04 24             	mov    %eax,(%esp)
   32b9f:	e8 56 00 00 00       	call   32bfa <itoa>
   32ba4:	8d 45 f4             	lea    0xfffffff4(%ebp),%eax
   32ba7:	89 04 24             	mov    %eax,(%esp)
   32baa:	e8 95 fd ff ff       	call   32944 <disp_str>
   32baf:	c7 04 24 3d 4c 03 00 	movl   $0x34c3d,(%esp)
   32bb6:	e8 89 fd ff ff       	call   32944 <disp_str>
   32bbb:	c9                   	leave  
   32bbc:	c3                   	ret    

00032bbd <disp_strPos>:
   32bbd:	55                   	push   %ebp
   32bbe:	89 e5                	mov    %esp,%ebp
   32bc0:	83 ec 18             	sub    $0x18,%esp
   32bc3:	8b 45 0c             	mov    0xc(%ebp),%eax
   32bc6:	83 e0 01             	and    $0x1,%eax
   32bc9:	84 c0                	test   %al,%al
   32bcb:	75 2b                	jne    32bf8 <disp_strPos+0x3b>
   32bcd:	83 7d 0c 00          	cmpl   $0x0,0xc(%ebp)
   32bd1:	79 02                	jns    32bd5 <disp_strPos+0x18>
   32bd3:	eb 23                	jmp    32bf8 <disp_strPos+0x3b>
   32bd5:	a1 04 50 03 00       	mov    0x35004,%eax
   32bda:	89 45 fc             	mov    %eax,0xfffffffc(%ebp)
   32bdd:	8b 45 0c             	mov    0xc(%ebp),%eax
   32be0:	a3 04 50 03 00       	mov    %eax,0x35004
   32be5:	8b 45 08             	mov    0x8(%ebp),%eax
   32be8:	89 04 24             	mov    %eax,(%esp)
   32beb:	e8 54 fd ff ff       	call   32944 <disp_str>
   32bf0:	8b 45 fc             	mov    0xfffffffc(%ebp),%eax
   32bf3:	a3 04 50 03 00       	mov    %eax,0x35004
   32bf8:	c9                   	leave  
   32bf9:	c3                   	ret    

00032bfa <itoa>:
   32bfa:	55                   	push   %ebp
   32bfb:	89 e5                	mov    %esp,%ebp
   32bfd:	83 ec 10             	sub    $0x10,%esp
   32c00:	c7 45 f0 09 00 00 00 	movl   $0x9,0xfffffff0(%ebp)
   32c07:	c7 45 fc 00 00 00 00 	movl   $0x0,0xfffffffc(%ebp)
   32c0e:	eb 0d                	jmp    32c1d <itoa+0x23>
   32c10:	8b 45 fc             	mov    0xfffffffc(%ebp),%eax
   32c13:	03 45 08             	add    0x8(%ebp),%eax
   32c16:	c6 00 30             	movb   $0x30,(%eax)
   32c19:	83 45 fc 01          	addl   $0x1,0xfffffffc(%ebp)
   32c1d:	83 7d fc 0a          	cmpl   $0xa,0xfffffffc(%ebp)
   32c21:	7e ed                	jle    32c10 <itoa+0x16>
   32c23:	8b 45 08             	mov    0x8(%ebp),%eax
   32c26:	c6 00 30             	movb   $0x30,(%eax)
   32c29:	8b 45 08             	mov    0x8(%ebp),%eax
   32c2c:	83 c0 01             	add    $0x1,%eax
   32c2f:	c6 00 78             	movb   $0x78,(%eax)
   32c32:	8b 45 08             	mov    0x8(%ebp),%eax
   32c35:	83 c0 0a             	add    $0xa,%eax
   32c38:	c6 00 00             	movb   $0x0,(%eax)
   32c3b:	eb 48                	jmp    32c85 <itoa+0x8b>
   32c3d:	8b 45 0c             	mov    0xc(%ebp),%eax
   32c40:	c1 e8 04             	shr    $0x4,%eax
   32c43:	89 45 f8             	mov    %eax,0xfffffff8(%ebp)
   32c46:	8b 45 0c             	mov    0xc(%ebp),%eax
   32c49:	83 e0 0f             	and    $0xf,%eax
   32c4c:	89 45 f4             	mov    %eax,0xfffffff4(%ebp)
   32c4f:	83 7d f4 09          	cmpl   $0x9,0xfffffff4(%ebp)
   32c53:	7f 16                	jg     32c6b <itoa+0x71>
   32c55:	8b 45 f0             	mov    0xfffffff0(%ebp),%eax
   32c58:	89 c2                	mov    %eax,%edx
   32c5a:	03 55 08             	add    0x8(%ebp),%edx
   32c5d:	8b 45 f4             	mov    0xfffffff4(%ebp),%eax
   32c60:	83 c0 30             	add    $0x30,%eax
   32c63:	88 02                	mov    %al,(%edx)
   32c65:	83 6d f0 01          	subl   $0x1,0xfffffff0(%ebp)
   32c69:	eb 14                	jmp    32c7f <itoa+0x85>
   32c6b:	8b 45 f0             	mov    0xfffffff0(%ebp),%eax
   32c6e:	89 c2                	mov    %eax,%edx
   32c70:	03 55 08             	add    0x8(%ebp),%edx
   32c73:	8b 45 f4             	mov    0xfffffff4(%ebp),%eax
   32c76:	83 c0 37             	add    $0x37,%eax
   32c79:	88 02                	mov    %al,(%edx)
   32c7b:	83 6d f0 01          	subl   $0x1,0xfffffff0(%ebp)
   32c7f:	8b 45 f8             	mov    0xfffffff8(%ebp),%eax
   32c82:	89 45 0c             	mov    %eax,0xc(%ebp)
   32c85:	83 7d 0c 00          	cmpl   $0x0,0xc(%ebp)
   32c89:	74 06                	je     32c91 <itoa+0x97>
   32c8b:	83 7d f0 01          	cmpl   $0x1,0xfffffff0(%ebp)
   32c8f:	7f ac                	jg     32c3d <itoa+0x43>
   32c91:	8b 45 08             	mov    0x8(%ebp),%eax
   32c94:	c9                   	leave  
   32c95:	c3                   	ret    

00032c96 <strcpy>:
   32c96:	55                   	push   %ebp
   32c97:	89 e5                	mov    %esp,%ebp
   32c99:	83 ec 10             	sub    $0x10,%esp
   32c9c:	c7 45 fc 00 00 00 00 	movl   $0x0,0xfffffffc(%ebp)
   32ca3:	8b 45 fc             	mov    0xfffffffc(%ebp),%eax
   32ca6:	89 c2                	mov    %eax,%edx
   32ca8:	03 55 08             	add    0x8(%ebp),%edx
   32cab:	8b 45 fc             	mov    0xfffffffc(%ebp),%eax
   32cae:	03 45 0c             	add    0xc(%ebp),%eax
   32cb1:	0f b6 00             	movzbl (%eax),%eax
   32cb4:	88 02                	mov    %al,(%edx)
   32cb6:	83 45 fc 01          	addl   $0x1,0xfffffffc(%ebp)
   32cba:	8b 45 fc             	mov    0xfffffffc(%ebp),%eax
   32cbd:	03 45 0c             	add    0xc(%ebp),%eax
   32cc0:	0f b6 00             	movzbl (%eax),%eax
   32cc3:	84 c0                	test   %al,%al
   32cc5:	74 02                	je     32cc9 <strcpy+0x33>
   32cc7:	eb da                	jmp    32ca3 <strcpy+0xd>
   32cc9:	c9                   	leave  
   32cca:	c3                   	ret    

00032ccb <strlen>:
   32ccb:	55                   	push   %ebp
   32ccc:	89 e5                	mov    %esp,%ebp
   32cce:	83 ec 10             	sub    $0x10,%esp
   32cd1:	c7 45 fc 00 00 00 00 	movl   $0x0,0xfffffffc(%ebp)
   32cd8:	8b 45 fc             	mov    0xfffffffc(%ebp),%eax
   32cdb:	03 45 08             	add    0x8(%ebp),%eax
   32cde:	0f b6 00             	movzbl (%eax),%eax
   32ce1:	84 c0                	test   %al,%al
   32ce3:	74 06                	je     32ceb <strlen+0x20>
   32ce5:	83 45 fc 01          	addl   $0x1,0xfffffffc(%ebp)
   32ce9:	eb ed                	jmp    32cd8 <strlen+0xd>
   32ceb:	8b 45 fc             	mov    0xfffffffc(%ebp),%eax
   32cee:	c9                   	leave  
   32cef:	c3                   	ret    

00032cf0 <init_tasks>:
   32cf0:	55                   	push   %ebp
   32cf1:	89 e5                	mov    %esp,%ebp
   32cf3:	83 ec 08             	sub    $0x8,%esp
   32cf6:	b8 fc 33 03 00       	mov    $0x333fc,%eax
   32cfb:	89 04 24             	mov    %eax,(%esp)
   32cfe:	e8 92 e3 ff ff       	call   31095 <add_system_task>
   32d03:	b8 ac 31 03 00       	mov    $0x331ac,%eax
   32d08:	89 04 24             	mov    %eax,(%esp)
   32d0b:	e8 85 e3 ff ff       	call   31095 <add_system_task>
   32d10:	b8 84 2d 03 00       	mov    $0x32d84,%eax
   32d15:	89 04 24             	mov    %eax,(%esp)
   32d18:	e8 78 e3 ff ff       	call   31095 <add_system_task>
   32d1d:	c9                   	leave  
   32d1e:	c3                   	ret    
   32d1f:	90                   	nop    

00032d20 <get_ticks>:
   32d20:	55                   	push   %ebp
   32d21:	89 e5                	mov    %esp,%ebp
   32d23:	83 ec 48             	sub    $0x48,%esp
   32d26:	8d 45 d0             	lea    0xffffffd0(%ebp),%eax
   32d29:	89 44 24 08          	mov    %eax,0x8(%esp)
   32d2d:	c7 44 24 04 02 00 00 	movl   $0x2,0x4(%esp)
   32d34:	00 
   32d35:	c7 04 24 01 00 00 00 	movl   $0x1,(%esp)
   32d3c:	e8 9d eb ff ff       	call   318de <sendrec>
   32d41:	8d 45 d0             	lea    0xffffffd0(%ebp),%eax
   32d44:	89 44 24 08          	mov    %eax,0x8(%esp)
   32d48:	c7 44 24 04 02 00 00 	movl   $0x2,0x4(%esp)
   32d4f:	00 
   32d50:	c7 04 24 02 00 00 00 	movl   $0x2,(%esp)
   32d57:	e8 82 eb ff ff       	call   318de <sendrec>
   32d5c:	8b 45 d8             	mov    0xffffffd8(%ebp),%eax
   32d5f:	c9                   	leave  
   32d60:	c3                   	ret    
   32d61:	90                   	nop    
   32d62:	90                   	nop    
   32d63:	90                   	nop    

00032d64 <hd_handler>:
   32d64:	55                   	push   %ebp
   32d65:	89 e5                	mov    %esp,%ebp
   32d67:	83 ec 08             	sub    $0x8,%esp
   32d6a:	c7 04 24 40 4c 03 00 	movl   $0x34c40,(%esp)
   32d71:	e8 6a f3 ff ff       	call   320e0 <printf_kernel>
   32d76:	c7 04 24 03 00 00 00 	movl   $0x3,(%esp)
   32d7d:	e8 1f e0 ff ff       	call   30da1 <inform_int>
   32d82:	c9                   	leave  
   32d83:	c3                   	ret    

00032d84 <task_disk>:
   32d84:	55                   	push   %ebp
   32d85:	89 e5                	mov    %esp,%ebp
   32d87:	83 ec 28             	sub    $0x28,%esp
   32d8a:	c7 45 fc 75 04 00 00 	movl   $0x475,0xfffffffc(%ebp)
   32d91:	8b 45 fc             	mov    0xfffffffc(%ebp),%eax
   32d94:	0f b6 00             	movzbl (%eax),%eax
   32d97:	0f b6 c0             	movzbl %al,%eax
   32d9a:	89 44 24 04          	mov    %eax,0x4(%esp)
   32d9e:	c7 04 24 6a 4c 03 00 	movl   $0x34c6a,(%esp)
   32da5:	e8 da f1 ff ff       	call   31f84 <printf>
   32daa:	8b 45 fc             	mov    0xfffffffc(%ebp),%eax
   32dad:	0f b6 00             	movzbl (%eax),%eax
   32db0:	84 c0                	test   %al,%al
   32db2:	75 24                	jne    32dd8 <task_disk+0x54>
   32db4:	c7 44 24 0c 2a 00 00 	movl   $0x2a,0xc(%esp)
   32dbb:	00 
   32dbc:	c7 44 24 08 78 4c 03 	movl   $0x34c78,0x8(%esp)
   32dc3:	00 
   32dc4:	c7 44 24 04 78 4c 03 	movl   $0x34c78,0x4(%esp)
   32dcb:	00 
   32dcc:	c7 04 24 93 4c 03 00 	movl   $0x34c93,(%esp)
   32dd3:	e8 a3 fc ff ff       	call   32a7b <assertion_failure>
   32dd8:	c7 04 24 87 25 03 00 	movl   $0x32587,(%esp)
   32ddf:	e8 fd e8 ff ff       	call   316e1 <set_hd_handler>
   32de4:	e8 52 ed ff ff       	call   31b3b <enable_disk>
   32de9:	c7 04 24 00 00 00 00 	movl   $0x0,(%esp)
   32df0:	e8 0e 00 00 00       	call   32e03 <hd_identify>
   32df5:	c7 04 24 00 00 00 00 	movl   $0x0,(%esp)
   32dfc:	e8 02 00 00 00       	call   32e03 <hd_identify>
   32e01:	eb fe                	jmp    32e01 <task_disk+0x7d>

00032e03 <hd_identify>:
   32e03:	55                   	push   %ebp
   32e04:	89 e5                	mov    %esp,%ebp
   32e06:	83 ec 28             	sub    $0x28,%esp
   32e09:	8b 45 08             	mov    0x8(%ebp),%eax
   32e0c:	c1 e0 04             	shl    $0x4,%eax
   32e0f:	89 c2                	mov    %eax,%edx
   32e11:	b8 a0 ff ff ff       	mov    $0xffffffa0,%eax
   32e16:	09 d0                	or     %edx,%eax
   32e18:	88 45 fe             	mov    %al,0xfffffffe(%ebp)
   32e1b:	c6 45 ff ec          	movb   $0xec,0xffffffff(%ebp)
   32e1f:	8d 45 f8             	lea    0xfffffff8(%ebp),%eax
   32e22:	89 04 24             	mov    %eax,(%esp)
   32e25:	e8 47 00 00 00       	call   32e71 <hd_cmd_out>
   32e2a:	c7 04 24 a0 4c 03 00 	movl   $0x34ca0,(%esp)
   32e31:	e8 4e f1 ff ff       	call   31f84 <printf>
   32e36:	e8 24 f1 ff ff       	call   31f5f <interrupt_wait>
   32e3b:	c7 04 24 c4 4c 03 00 	movl   $0x34cc4,(%esp)
   32e42:	e8 3d f1 ff ff       	call   31f84 <printf>
   32e47:	c7 44 24 08 00 02 00 	movl   $0x200,0x8(%esp)
   32e4e:	00 
   32e4f:	c7 44 24 04 40 78 03 	movl   $0x37840,0x4(%esp)
   32e56:	00 
   32e57:	c7 04 24 f0 01 00 00 	movl   $0x1f0,(%esp)
   32e5e:	e8 62 fb ff ff       	call   329c5 <port_read>
   32e63:	c7 04 24 40 78 03 00 	movl   $0x37840,(%esp)
   32e6a:	e8 52 01 00 00       	call   32fc1 <print_identify_info>
   32e6f:	c9                   	leave  
   32e70:	c3                   	ret    

00032e71 <hd_cmd_out>:
   32e71:	55                   	push   %ebp
   32e72:	89 e5                	mov    %esp,%ebp
   32e74:	83 ec 18             	sub    $0x18,%esp
   32e77:	c7 44 24 08 10 27 00 	movl   $0x2710,0x8(%esp)
   32e7e:	00 
   32e7f:	c7 44 24 04 00 00 00 	movl   $0x0,0x4(%esp)
   32e86:	00 
   32e87:	c7 04 24 80 00 00 00 	movl   $0x80,(%esp)
   32e8e:	e8 dc 00 00 00       	call   32f6f <waitfor>
   32e93:	85 c0                	test   %eax,%eax
   32e95:	75 0c                	jne    32ea3 <hd_cmd_out+0x32>
   32e97:	c7 04 24 e7 4c 03 00 	movl   $0x34ce7,(%esp)
   32e9e:	e8 28 fc ff ff       	call   32acb <panic>
   32ea3:	c7 44 24 04 00 00 00 	movl   $0x0,0x4(%esp)
   32eaa:	00 
   32eab:	c7 04 24 f6 03 00 00 	movl   $0x3f6,(%esp)
   32eb2:	e8 ef fa ff ff       	call   329a6 <out_byte>
   32eb7:	8b 45 08             	mov    0x8(%ebp),%eax
   32eba:	0f b6 40 01          	movzbl 0x1(%eax),%eax
   32ebe:	0f b6 c0             	movzbl %al,%eax
   32ec1:	89 44 24 04          	mov    %eax,0x4(%esp)
   32ec5:	c7 04 24 f1 01 00 00 	movl   $0x1f1,(%esp)
   32ecc:	e8 d5 fa ff ff       	call   329a6 <out_byte>
   32ed1:	8b 45 08             	mov    0x8(%ebp),%eax
   32ed4:	0f b6 40 02          	movzbl 0x2(%eax),%eax
   32ed8:	0f b6 c0             	movzbl %al,%eax
   32edb:	89 44 24 04          	mov    %eax,0x4(%esp)
   32edf:	c7 04 24 f2 01 00 00 	movl   $0x1f2,(%esp)
   32ee6:	e8 bb fa ff ff       	call   329a6 <out_byte>
   32eeb:	8b 45 08             	mov    0x8(%ebp),%eax
   32eee:	0f b6 40 03          	movzbl 0x3(%eax),%eax
   32ef2:	0f b6 c0             	movzbl %al,%eax
   32ef5:	89 44 24 04          	mov    %eax,0x4(%esp)
   32ef9:	c7 04 24 f3 01 00 00 	movl   $0x1f3,(%esp)
   32f00:	e8 a1 fa ff ff       	call   329a6 <out_byte>
   32f05:	8b 45 08             	mov    0x8(%ebp),%eax
   32f08:	0f b6 40 04          	movzbl 0x4(%eax),%eax
   32f0c:	0f b6 c0             	movzbl %al,%eax
   32f0f:	89 44 24 04          	mov    %eax,0x4(%esp)
   32f13:	c7 04 24 f4 01 00 00 	movl   $0x1f4,(%esp)
   32f1a:	e8 87 fa ff ff       	call   329a6 <out_byte>
   32f1f:	8b 45 08             	mov    0x8(%ebp),%eax
   32f22:	0f b6 40 05          	movzbl 0x5(%eax),%eax
   32f26:	0f b6 c0             	movzbl %al,%eax
   32f29:	89 44 24 04          	mov    %eax,0x4(%esp)
   32f2d:	c7 04 24 f5 01 00 00 	movl   $0x1f5,(%esp)
   32f34:	e8 6d fa ff ff       	call   329a6 <out_byte>
   32f39:	8b 45 08             	mov    0x8(%ebp),%eax
   32f3c:	0f b6 40 06          	movzbl 0x6(%eax),%eax
   32f40:	0f b6 c0             	movzbl %al,%eax
   32f43:	89 44 24 04          	mov    %eax,0x4(%esp)
   32f47:	c7 04 24 f6 01 00 00 	movl   $0x1f6,(%esp)
   32f4e:	e8 53 fa ff ff       	call   329a6 <out_byte>
   32f53:	8b 45 08             	mov    0x8(%ebp),%eax
   32f56:	0f b6 40 07          	movzbl 0x7(%eax),%eax
   32f5a:	0f b6 c0             	movzbl %al,%eax
   32f5d:	89 44 24 04          	mov    %eax,0x4(%esp)
   32f61:	c7 04 24 f7 01 00 00 	movl   $0x1f7,(%esp)
   32f68:	e8 39 fa ff ff       	call   329a6 <out_byte>
   32f6d:	c9                   	leave  
   32f6e:	c3                   	ret    

00032f6f <waitfor>:
   32f6f:	55                   	push   %ebp
   32f70:	89 e5                	mov    %esp,%ebp
   32f72:	83 ec 18             	sub    $0x18,%esp
   32f75:	e8 a6 fd ff ff       	call   32d20 <get_ticks>
   32f7a:	89 45 fc             	mov    %eax,0xfffffffc(%ebp)
   32f7d:	eb 1d                	jmp    32f9c <waitfor+0x2d>
   32f7f:	c7 04 24 f7 01 00 00 	movl   $0x1f7,(%esp)
   32f86:	e8 2b fa ff ff       	call   329b6 <in_byte>
   32f8b:	23 45 08             	and    0x8(%ebp),%eax
   32f8e:	3b 45 0c             	cmp    0xc(%ebp),%eax
   32f91:	75 09                	jne    32f9c <waitfor+0x2d>
   32f93:	c7 45 ec 01 00 00 00 	movl   $0x1,0xffffffec(%ebp)
   32f9a:	eb 20                	jmp    32fbc <waitfor+0x4d>
   32f9c:	e8 7f fd ff ff       	call   32d20 <get_ticks>
   32fa1:	89 c2                	mov    %eax,%edx
   32fa3:	2b 55 fc             	sub    0xfffffffc(%ebp),%edx
   32fa6:	89 d0                	mov    %edx,%eax
   32fa8:	c1 e0 02             	shl    $0x2,%eax
   32fab:	01 d0                	add    %edx,%eax
   32fad:	c1 e0 02             	shl    $0x2,%eax
   32fb0:	3b 45 10             	cmp    0x10(%ebp),%eax
   32fb3:	7c ca                	jl     32f7f <waitfor+0x10>
   32fb5:	c7 45 ec 00 00 00 00 	movl   $0x0,0xffffffec(%ebp)
   32fbc:	8b 45 ec             	mov    0xffffffec(%ebp),%eax
   32fbf:	c9                   	leave  
   32fc0:	c3                   	ret    

00032fc1 <print_identify_info>:
   32fc1:	55                   	push   %ebp
   32fc2:	89 e5                	mov    %esp,%ebp
   32fc4:	81 ec 98 00 00 00    	sub    $0x98,%esp
   32fca:	c7 45 88 0a 00 00 00 	movl   $0xa,0xffffff88(%ebp)
   32fd1:	c7 45 8c 14 00 00 00 	movl   $0x14,0xffffff8c(%ebp)
   32fd8:	c7 45 90 f1 4c 03 00 	movl   $0x34cf1,0xffffff90(%ebp)
   32fdf:	c7 45 94 1b 00 00 00 	movl   $0x1b,0xffffff94(%ebp)
   32fe6:	c7 45 98 28 00 00 00 	movl   $0x28,0xffffff98(%ebp)
   32fed:	c7 45 9c f7 4c 03 00 	movl   $0x34cf7,0xffffff9c(%ebp)
   32ff4:	c7 45 e4 00 00 00 00 	movl   $0x0,0xffffffe4(%ebp)
   32ffb:	e9 b7 00 00 00       	jmp    330b7 <print_identify_info+0xf6>
   33000:	8b 55 e4             	mov    0xffffffe4(%ebp),%edx
   33003:	89 d0                	mov    %edx,%eax
   33005:	01 c0                	add    %eax,%eax
   33007:	01 d0                	add    %edx,%eax
   33009:	c1 e0 02             	shl    $0x2,%eax
   3300c:	01 e8                	add    %ebp,%eax
   3300e:	83 e8 78             	sub    $0x78,%eax
   33011:	8b 00                	mov    (%eax),%eax
   33013:	89 45 f4             	mov    %eax,0xfffffff4(%ebp)
   33016:	8b 55 e4             	mov    0xffffffe4(%ebp),%edx
   33019:	89 d0                	mov    %edx,%eax
   3301b:	01 c0                	add    %eax,%eax
   3301d:	01 d0                	add    %edx,%eax
   3301f:	c1 e0 02             	shl    $0x2,%eax
   33022:	01 e8                	add    %ebp,%eax
   33024:	83 e8 74             	sub    $0x74,%eax
   33027:	8b 00                	mov    (%eax),%eax
   33029:	89 45 f8             	mov    %eax,0xfffffff8(%ebp)
   3302c:	8b 45 f4             	mov    0xfffffff4(%ebp),%eax
   3302f:	01 c0                	add    %eax,%eax
   33031:	03 45 08             	add    0x8(%ebp),%eax
   33034:	89 45 fc             	mov    %eax,0xfffffffc(%ebp)
   33037:	c7 45 e0 00 00 00 00 	movl   $0x0,0xffffffe0(%ebp)
   3303e:	eb 2e                	jmp    3306e <print_identify_info+0xad>
   33040:	8b 45 e0             	mov    0xffffffe0(%ebp),%eax
   33043:	01 c0                	add    %eax,%eax
   33045:	8d 50 01             	lea    0x1(%eax),%edx
   33048:	8b 45 fc             	mov    0xfffffffc(%ebp),%eax
   3304b:	0f b6 00             	movzbl (%eax),%eax
   3304e:	88 44 15 a0          	mov    %al,0xffffffa0(%ebp,%edx,1)
   33052:	83 45 fc 01          	addl   $0x1,0xfffffffc(%ebp)
   33056:	8b 45 e0             	mov    0xffffffe0(%ebp),%eax
   33059:	8d 14 00             	lea    (%eax,%eax,1),%edx
   3305c:	8b 45 fc             	mov    0xfffffffc(%ebp),%eax
   3305f:	0f b6 00             	movzbl (%eax),%eax
   33062:	88 44 15 a0          	mov    %al,0xffffffa0(%ebp,%edx,1)
   33066:	83 45 fc 01          	addl   $0x1,0xfffffffc(%ebp)
   3306a:	83 45 e0 01          	addl   $0x1,0xffffffe0(%ebp)
   3306e:	8b 55 f8             	mov    0xfffffff8(%ebp),%edx
   33071:	89 d0                	mov    %edx,%eax
   33073:	c1 e8 1f             	shr    $0x1f,%eax
   33076:	01 d0                	add    %edx,%eax
   33078:	d1 f8                	sar    %eax
   3307a:	3b 45 e0             	cmp    0xffffffe0(%ebp),%eax
   3307d:	7f c1                	jg     33040 <print_identify_info+0x7f>
   3307f:	8b 45 e0             	mov    0xffffffe0(%ebp),%eax
   33082:	01 c0                	add    %eax,%eax
   33084:	c6 44 05 a0 00       	movb   $0x0,0xffffffa0(%ebp,%eax,1)
   33089:	8b 55 e4             	mov    0xffffffe4(%ebp),%edx
   3308c:	89 d0                	mov    %edx,%eax
   3308e:	01 c0                	add    %eax,%eax
   33090:	01 d0                	add    %edx,%eax
   33092:	c1 e0 02             	shl    $0x2,%eax
   33095:	01 e8                	add    %ebp,%eax
   33097:	83 e8 70             	sub    $0x70,%eax
   3309a:	8b 10                	mov    (%eax),%edx
   3309c:	8d 45 a0             	lea    0xffffffa0(%ebp),%eax
   3309f:	89 44 24 08          	mov    %eax,0x8(%esp)
   330a3:	89 54 24 04          	mov    %edx,0x4(%esp)
   330a7:	c7 04 24 00 4d 03 00 	movl   $0x34d00,(%esp)
   330ae:	e8 d1 ee ff ff       	call   31f84 <printf>
   330b3:	83 45 e4 01          	addl   $0x1,0xffffffe4(%ebp)
   330b7:	8b 45 e4             	mov    0xffffffe4(%ebp),%eax
   330ba:	83 f8 01             	cmp    $0x1,%eax
   330bd:	0f 86 3d ff ff ff    	jbe    33000 <print_identify_info+0x3f>
   330c3:	8b 45 08             	mov    0x8(%ebp),%eax
   330c6:	83 c0 62             	add    $0x62,%eax
   330c9:	0f b7 00             	movzwl (%eax),%eax
   330cc:	0f b7 c0             	movzwl %ax,%eax
   330cf:	89 45 e8             	mov    %eax,0xffffffe8(%ebp)
   330d2:	8b 45 e8             	mov    0xffffffe8(%ebp),%eax
   330d5:	25 00 02 00 00       	and    $0x200,%eax
   330da:	85 c0                	test   %eax,%eax
   330dc:	74 0c                	je     330ea <print_identify_info+0x129>
   330de:	c7 85 78 ff ff ff 09 	movl   $0x34d09,0xffffff78(%ebp)
   330e5:	4d 03 00 
   330e8:	eb 0a                	jmp    330f4 <print_identify_info+0x133>
   330ea:	c7 85 78 ff ff ff 0d 	movl   $0x34d0d,0xffffff78(%ebp)
   330f1:	4d 03 00 
   330f4:	8b 85 78 ff ff ff    	mov    0xffffff78(%ebp),%eax
   330fa:	89 44 24 04          	mov    %eax,0x4(%esp)
   330fe:	c7 04 24 10 4d 03 00 	movl   $0x34d10,(%esp)
   33105:	e8 7a ee ff ff       	call   31f84 <printf>
   3310a:	8b 45 08             	mov    0x8(%ebp),%eax
   3310d:	05 a6 00 00 00       	add    $0xa6,%eax
   33112:	0f b7 00             	movzwl (%eax),%eax
   33115:	0f b7 c0             	movzwl %ax,%eax
   33118:	89 45 ec             	mov    %eax,0xffffffec(%ebp)
   3311b:	8b 45 ec             	mov    0xffffffec(%ebp),%eax
   3311e:	25 00 04 00 00       	and    $0x400,%eax
   33123:	85 c0                	test   %eax,%eax
   33125:	74 0c                	je     33133 <print_identify_info+0x172>
   33127:	c7 85 7c ff ff ff 09 	movl   $0x34d09,0xffffff7c(%ebp)
   3312e:	4d 03 00 
   33131:	eb 0a                	jmp    3313d <print_identify_info+0x17c>
   33133:	c7 85 7c ff ff ff 0d 	movl   $0x34d0d,0xffffff7c(%ebp)
   3313a:	4d 03 00 
   3313d:	8b 85 7c ff ff ff    	mov    0xffffff7c(%ebp),%eax
   33143:	89 44 24 04          	mov    %eax,0x4(%esp)
   33147:	c7 04 24 24 4d 03 00 	movl   $0x34d24,(%esp)
   3314e:	e8 31 ee ff ff       	call   31f84 <printf>
   33153:	8b 45 08             	mov    0x8(%ebp),%eax
   33156:	83 c0 7a             	add    $0x7a,%eax
   33159:	0f b7 00             	movzwl (%eax),%eax
   3315c:	0f b7 c0             	movzwl %ax,%eax
   3315f:	89 c2                	mov    %eax,%edx
   33161:	c1 e2 10             	shl    $0x10,%edx
   33164:	8b 45 08             	mov    0x8(%ebp),%eax
   33167:	83 c0 78             	add    $0x78,%eax
   3316a:	0f b7 00             	movzwl (%eax),%eax
   3316d:	0f b7 c0             	movzwl %ax,%eax
   33170:	8d 04 02             	lea    (%edx,%eax,1),%eax
   33173:	89 45 f0             	mov    %eax,0xfffffff0(%ebp)
   33176:	8b 45 f0             	mov    0xfffffff0(%ebp),%eax
   33179:	89 44 24 04          	mov    %eax,0x4(%esp)
   3317d:	c7 04 24 3a 4d 03 00 	movl   $0x34d3a,(%esp)
   33184:	e8 fb ed ff ff       	call   31f84 <printf>
   33189:	8b 55 f0             	mov    0xfffffff0(%ebp),%edx
   3318c:	89 d0                	mov    %edx,%eax
   3318e:	c1 f8 1f             	sar    $0x1f,%eax
   33191:	c1 e8 15             	shr    $0x15,%eax
   33194:	01 d0                	add    %edx,%eax
   33196:	c1 f8 0b             	sar    $0xb,%eax
   33199:	89 44 24 04          	mov    %eax,0x4(%esp)
   3319d:	c7 04 24 4c 4d 03 00 	movl   $0x34d4c,(%esp)
   331a4:	e8 db ed ff ff       	call   31f84 <printf>
   331a9:	c9                   	leave  
   331aa:	c3                   	ret    
   331ab:	90                   	nop    

000331ac <task_tick>:
   331ac:	55                   	push   %ebp
   331ad:	89 e5                	mov    %esp,%ebp
   331af:	83 ec 58             	sub    $0x58,%esp
   331b2:	8d 45 cc             	lea    0xffffffcc(%ebp),%eax
   331b5:	89 44 24 08          	mov    %eax,0x8(%esp)
   331b9:	c7 44 24 04 0f 27 00 	movl   $0x270f,0x4(%esp)
   331c0:	00 
   331c1:	c7 04 24 02 00 00 00 	movl   $0x2,(%esp)
   331c8:	e8 11 e7 ff ff       	call   318de <sendrec>
   331cd:	8b 45 cc             	mov    0xffffffcc(%ebp),%eax
   331d0:	89 45 fc             	mov    %eax,0xfffffffc(%ebp)
   331d3:	c7 45 cc 02 00 00 00 	movl   $0x2,0xffffffcc(%ebp)
   331da:	c7 45 d0 00 00 00 00 	movl   $0x0,0xffffffd0(%ebp)
   331e1:	a1 00 8a 03 00       	mov    0x38a00,%eax
   331e6:	89 45 d4             	mov    %eax,0xffffffd4(%ebp)
   331e9:	83 7d fc 00          	cmpl   $0x0,0xfffffffc(%ebp)
   331ed:	75 24                	jne    33213 <task_tick+0x67>
   331ef:	c7 44 24 0c 16 00 00 	movl   $0x16,0xc(%esp)
   331f6:	00 
   331f7:	c7 44 24 08 5c 4d 03 	movl   $0x34d5c,0x8(%esp)
   331fe:	00 
   331ff:	c7 44 24 04 5c 4d 03 	movl   $0x34d5c,0x4(%esp)
   33206:	00 
   33207:	c7 04 24 77 4d 03 00 	movl   $0x34d77,(%esp)
   3320e:	e8 68 f8 ff ff       	call   32a7b <assertion_failure>
   33213:	8d 45 cc             	lea    0xffffffcc(%ebp),%eax
   33216:	89 44 24 08          	mov    %eax,0x8(%esp)
   3321a:	8b 45 fc             	mov    0xfffffffc(%ebp),%eax
   3321d:	89 44 24 04          	mov    %eax,0x4(%esp)
   33221:	c7 04 24 01 00 00 00 	movl   $0x1,(%esp)
   33228:	e8 b1 e6 ff ff       	call   318de <sendrec>
   3322d:	eb 83                	jmp    331b2 <task_tick+0x6>
   3322f:	90                   	nop    

00033230 <init_tty>:
   33230:	55                   	push   %ebp
   33231:	89 e5                	mov    %esp,%ebp
   33233:	83 ec 08             	sub    $0x8,%esp
   33236:	8b 45 0c             	mov    0xc(%ebp),%eax
   33239:	3b 45 10             	cmp    0x10(%ebp),%eax
   3323c:	7c 0e                	jl     3324c <init_tty+0x1c>
   3323e:	c7 04 24 88 4d 03 00 	movl   $0x34d88,(%esp)
   33245:	e8 fa f6 ff ff       	call   32944 <disp_str>
   3324a:	eb 27                	jmp    33273 <init_tty+0x43>
   3324c:	8b 55 0c             	mov    0xc(%ebp),%edx
   3324f:	8b 45 08             	mov    0x8(%ebp),%eax
   33252:	89 10                	mov    %edx,(%eax)
   33254:	8b 55 10             	mov    0x10(%ebp),%edx
   33257:	8b 45 08             	mov    0x8(%ebp),%eax
   3325a:	89 50 04             	mov    %edx,0x4(%eax)
   3325d:	8b 45 08             	mov    0x8(%ebp),%eax
   33260:	8b 10                	mov    (%eax),%edx
   33262:	8b 45 08             	mov    0x8(%ebp),%eax
   33265:	89 50 08             	mov    %edx,0x8(%eax)
   33268:	8b 45 08             	mov    0x8(%ebp),%eax
   3326b:	8b 10                	mov    (%eax),%edx
   3326d:	8b 45 08             	mov    0x8(%ebp),%eax
   33270:	89 50 0c             	mov    %edx,0xc(%eax)
   33273:	c9                   	leave  
   33274:	c3                   	ret    

00033275 <init_all_ttys>:
   33275:	55                   	push   %ebp
   33276:	89 e5                	mov    %esp,%ebp
   33278:	83 ec 18             	sub    $0x18,%esp
   3327b:	e8 7e 06 00 00       	call   338fe <init_keyboard>
   33280:	c7 04 24 00 00 00 00 	movl   $0x0,(%esp)
   33287:	e8 30 01 00 00       	call   333bc <id2tty>
   3328c:	c7 44 24 08 d0 07 00 	movl   $0x7d0,0x8(%esp)
   33293:	00 
   33294:	c7 44 24 04 00 00 00 	movl   $0x0,0x4(%esp)
   3329b:	00 
   3329c:	89 04 24             	mov    %eax,(%esp)
   3329f:	e8 8c ff ff ff       	call   33230 <init_tty>
   332a4:	8b 15 04 50 03 00    	mov    0x35004,%edx
   332aa:	89 d0                	mov    %edx,%eax
   332ac:	c1 e8 1f             	shr    $0x1f,%eax
   332af:	01 d0                	add    %edx,%eax
   332b1:	d1 f8                	sar    %eax
   332b3:	a3 4c 7c 03 00       	mov    %eax,0x37c4c
   332b8:	c7 44 24 04 b8 4d 03 	movl   $0x34db8,0x4(%esp)
   332bf:	00 
   332c0:	c7 04 24 00 00 00 00 	movl   $0x0,(%esp)
   332c7:	e8 09 0e 00 00       	call   340d5 <printStr>
   332cc:	c7 04 24 01 00 00 00 	movl   $0x1,(%esp)
   332d3:	e8 e4 00 00 00       	call   333bc <id2tty>
   332d8:	c7 44 24 08 90 1a 00 	movl   $0x1a90,0x8(%esp)
   332df:	00 
   332e0:	c7 44 24 04 c0 12 00 	movl   $0x12c0,0x4(%esp)
   332e7:	00 
   332e8:	89 04 24             	mov    %eax,(%esp)
   332eb:	e8 40 ff ff ff       	call   33230 <init_tty>
   332f0:	c7 44 24 04 d8 4d 03 	movl   $0x34dd8,0x4(%esp)
   332f7:	00 
   332f8:	c7 04 24 01 00 00 00 	movl   $0x1,(%esp)
   332ff:	e8 d1 0d 00 00       	call   340d5 <printStr>
   33304:	c7 04 24 02 00 00 00 	movl   $0x2,(%esp)
   3330b:	e8 ac 00 00 00       	call   333bc <id2tty>
   33310:	c7 44 24 08 50 2d 00 	movl   $0x2d50,0x8(%esp)
   33317:	00 
   33318:	c7 44 24 04 80 25 00 	movl   $0x2580,0x4(%esp)
   3331f:	00 
   33320:	89 04 24             	mov    %eax,(%esp)
   33323:	e8 08 ff ff ff       	call   33230 <init_tty>
   33328:	c7 44 24 04 f8 4d 03 	movl   $0x34df8,0x4(%esp)
   3332f:	00 
   33330:	c7 04 24 02 00 00 00 	movl   $0x2,(%esp)
   33337:	e8 99 0d 00 00       	call   340d5 <printStr>
   3333c:	c7 05 88 f1 09 00 00 	movl   $0x0,0x9f188
   33343:	00 00 00 
   33346:	c9                   	leave  
   33347:	c3                   	ret    

00033348 <switch_tty>:
   33348:	55                   	push   %ebp
   33349:	89 e5                	mov    %esp,%ebp
   3334b:	83 ec 08             	sub    $0x8,%esp
   3334e:	8b 45 08             	mov    0x8(%ebp),%eax
   33351:	8b 40 08             	mov    0x8(%eax),%eax
   33354:	89 04 24             	mov    %eax,(%esp)
   33357:	e8 f4 0a 00 00       	call   33e50 <set_disp_addr>
   3335c:	8b 45 08             	mov    0x8(%ebp),%eax
   3335f:	8b 40 0c             	mov    0xc(%eax),%eax
   33362:	89 04 24             	mov    %eax,(%esp)
   33365:	e8 87 0a 00 00       	call   33df1 <set_cursor>
   3336a:	8b 45 08             	mov    0x8(%ebp),%eax
   3336d:	8b 40 0c             	mov    0xc(%eax),%eax
   33370:	01 c0                	add    %eax,%eax
   33372:	a3 04 50 03 00       	mov    %eax,0x35004
   33377:	c9                   	leave  
   33378:	c3                   	ret    

00033379 <tty2id>:
   33379:	55                   	push   %ebp
   3337a:	89 e5                	mov    %esp,%ebp
   3337c:	83 ec 18             	sub    $0x18,%esp
   3337f:	83 7d 08 00          	cmpl   $0x0,0x8(%ebp)
   33383:	75 24                	jne    333a9 <tty2id+0x30>
   33385:	c7 44 24 0c 3a 00 00 	movl   $0x3a,0xc(%esp)
   3338c:	00 
   3338d:	c7 44 24 08 18 4e 03 	movl   $0x34e18,0x8(%esp)
   33394:	00 
   33395:	c7 44 24 04 18 4e 03 	movl   $0x34e18,0x4(%esp)
   3339c:	00 
   3339d:	c7 04 24 2c 4e 03 00 	movl   $0x34e2c,(%esp)
   333a4:	e8 d2 f6 ff ff       	call   32a7b <assertion_failure>
   333a9:	8b 55 08             	mov    0x8(%ebp),%edx
   333ac:	b8 40 7c 03 00       	mov    $0x37c40,%eax
   333b1:	89 d1                	mov    %edx,%ecx
   333b3:	29 c1                	sub    %eax,%ecx
   333b5:	89 c8                	mov    %ecx,%eax
   333b7:	c1 f8 04             	sar    $0x4,%eax
   333ba:	c9                   	leave  
   333bb:	c3                   	ret    

000333bc <id2tty>:
   333bc:	55                   	push   %ebp
   333bd:	89 e5                	mov    %esp,%ebp
   333bf:	83 ec 18             	sub    $0x18,%esp
   333c2:	83 7d 08 00          	cmpl   $0x0,0x8(%ebp)
   333c6:	79 24                	jns    333ec <id2tty+0x30>
   333c8:	c7 44 24 0c 3f 00 00 	movl   $0x3f,0xc(%esp)
   333cf:	00 
   333d0:	c7 44 24 08 18 4e 03 	movl   $0x34e18,0x8(%esp)
   333d7:	00 
   333d8:	c7 44 24 04 18 4e 03 	movl   $0x34e18,0x4(%esp)
   333df:	00 
   333e0:	c7 04 24 2e 4e 03 00 	movl   $0x34e2e,(%esp)
   333e7:	e8 8f f6 ff ff       	call   32a7b <assertion_failure>
   333ec:	8b 45 08             	mov    0x8(%ebp),%eax
   333ef:	c1 e0 04             	shl    $0x4,%eax
   333f2:	05 40 7c 03 00       	add    $0x37c40,%eax
   333f7:	c9                   	leave  
   333f8:	c3                   	ret    
   333f9:	90                   	nop    
   333fa:	90                   	nop    
   333fb:	90                   	nop    

000333fc <task_tty>:
   333fc:	55                   	push   %ebp
   333fd:	89 e5                	mov    %esp,%ebp
   333ff:	53                   	push   %ebx
   33400:	83 ec 24             	sub    $0x24,%esp
   33403:	eb 00                	jmp    33405 <task_tty+0x9>
   33405:	a1 88 f1 09 00       	mov    0x9f188,%eax
   3340a:	89 04 24             	mov    %eax,(%esp)
   3340d:	e8 aa ff ff ff       	call   333bc <id2tty>
   33412:	89 04 24             	mov    %eax,(%esp)
   33415:	e8 34 05 00 00       	call   3394e <keyboard_read>
   3341a:	89 45 f8             	mov    %eax,0xfffffff8(%ebp)
   3341d:	a1 88 f1 09 00       	mov    0x9f188,%eax
   33422:	39 45 f8             	cmp    %eax,0xfffffff8(%ebp)
   33425:	74 de                	je     33405 <task_tty+0x9>
   33427:	83 7d f8 ff          	cmpl   $0xffffffff,0xfffffff8(%ebp)
   3342b:	74 d8                	je     33405 <task_tty+0x9>
   3342d:	83 7d f8 00          	cmpl   $0x0,0xfffffff8(%ebp)
   33431:	78 d2                	js     33405 <task_tty+0x9>
   33433:	83 7d f8 02          	cmpl   $0x2,0xfffffff8(%ebp)
   33437:	7f cc                	jg     33405 <task_tty+0x9>
   33439:	a1 88 f1 09 00       	mov    0x9f188,%eax
   3343e:	89 04 24             	mov    %eax,(%esp)
   33441:	e8 76 ff ff ff       	call   333bc <id2tty>
   33446:	89 c3                	mov    %eax,%ebx
   33448:	8b 45 f8             	mov    0xfffffff8(%ebp),%eax
   3344b:	89 04 24             	mov    %eax,(%esp)
   3344e:	e8 69 ff ff ff       	call   333bc <id2tty>
   33453:	89 5c 24 04          	mov    %ebx,0x4(%esp)
   33457:	89 04 24             	mov    %eax,(%esp)
   3345a:	e8 e9 fe ff ff       	call   33348 <switch_tty>
   3345f:	8b 45 f8             	mov    0xfffffff8(%ebp),%eax
   33462:	a3 88 f1 09 00       	mov    %eax,0x9f188
   33467:	eb 9c                	jmp    33405 <task_tty+0x9>
   33469:	90                   	nop    
   3346a:	90                   	nop    
   3346b:	90                   	nop    

0003346c <init_KB_INPUT>:
   3346c:	55                   	push   %ebp
   3346d:	89 e5                	mov    %esp,%ebp
   3346f:	83 ec 18             	sub    $0x18,%esp
   33472:	83 7d 08 00          	cmpl   $0x0,0x8(%ebp)
   33476:	75 24                	jne    3349c <init_KB_INPUT+0x30>
   33478:	c7 44 24 0c 0b 00 00 	movl   $0xb,0xc(%esp)
   3347f:	00 
   33480:	c7 44 24 08 34 4e 03 	movl   $0x34e34,0x8(%esp)
   33487:	00 
   33488:	c7 44 24 04 34 4e 03 	movl   $0x34e34,0x4(%esp)
   3348f:	00 
   33490:	c7 04 24 48 4e 03 00 	movl   $0x34e48,(%esp)
   33497:	e8 df f5 ff ff       	call   32a7b <assertion_failure>
   3349c:	8b 45 08             	mov    0x8(%ebp),%eax
   3349f:	c7 00 00 00 00 00    	movl   $0x0,(%eax)
   334a5:	8b 45 08             	mov    0x8(%ebp),%eax
   334a8:	c7 40 04 01 00 00 00 	movl   $0x1,0x4(%eax)
   334af:	8b 45 08             	mov    0x8(%ebp),%eax
   334b2:	c7 40 08 00 00 00 00 	movl   $0x0,0x8(%eax)
   334b9:	c9                   	leave  
   334ba:	c3                   	ret    

000334bb <get_scancode>:
   334bb:	55                   	push   %ebp
   334bc:	89 e5                	mov    %esp,%ebp
   334be:	83 ec 28             	sub    $0x28,%esp
   334c1:	83 7d 08 00          	cmpl   $0x0,0x8(%ebp)
   334c5:	75 24                	jne    334eb <get_scancode+0x30>
   334c7:	c7 44 24 0c 14 00 00 	movl   $0x14,0xc(%esp)
   334ce:	00 
   334cf:	c7 44 24 08 34 4e 03 	movl   $0x34e34,0x8(%esp)
   334d6:	00 
   334d7:	c7 44 24 04 34 4e 03 	movl   $0x34e34,0x4(%esp)
   334de:	00 
   334df:	c7 04 24 48 4e 03 00 	movl   $0x34e48,(%esp)
   334e6:	e8 90 f5 ff ff       	call   32a7b <assertion_failure>
   334eb:	8b 45 0c             	mov    0xc(%ebp),%eax
   334ee:	8b 55 08             	mov    0x8(%ebp),%edx
   334f1:	8b 52 08             	mov    0x8(%edx),%edx
   334f4:	39 d0                	cmp    %edx,%eax
   334f6:	77 06                	ja     334fe <get_scancode+0x43>
   334f8:	83 7d 0c 00          	cmpl   $0x0,0xc(%ebp)
   334fc:	7f 0c                	jg     3350a <get_scancode+0x4f>
   334fe:	c7 45 ec ff ff ff ff 	movl   $0xffffffff,0xffffffec(%ebp)
   33505:	e9 83 00 00 00       	jmp    3358d <get_scancode+0xd2>
   3350a:	8b 45 08             	mov    0x8(%ebp),%eax
   3350d:	8b 10                	mov    (%eax),%edx
   3350f:	8b 45 08             	mov    0x8(%ebp),%eax
   33512:	8b 40 04             	mov    0x4(%eax),%eax
   33515:	39 c2                	cmp    %eax,%edx
   33517:	73 1a                	jae    33533 <get_scancode+0x78>
   33519:	8b 45 08             	mov    0x8(%ebp),%eax
   3351c:	8b 10                	mov    (%eax),%edx
   3351e:	8b 45 0c             	mov    0xc(%ebp),%eax
   33521:	01 c2                	add    %eax,%edx
   33523:	8b 45 08             	mov    0x8(%ebp),%eax
   33526:	0f b6 44 10 0c       	movzbl 0xc(%eax,%edx,1),%eax
   3352b:	0f be c0             	movsbl %al,%eax
   3352e:	89 45 ec             	mov    %eax,0xffffffec(%ebp)
   33531:	eb 5a                	jmp    3358d <get_scancode+0xd2>
   33533:	8b 45 08             	mov    0x8(%ebp),%eax
   33536:	8b 10                	mov    (%eax),%edx
   33538:	8b 45 08             	mov    0x8(%ebp),%eax
   3353b:	8b 40 04             	mov    0x4(%eax),%eax
   3353e:	39 c2                	cmp    %eax,%edx
   33540:	76 44                	jbe    33586 <get_scancode+0xcb>
   33542:	8b 45 08             	mov    0x8(%ebp),%eax
   33545:	8b 10                	mov    (%eax),%edx
   33547:	8b 45 0c             	mov    0xc(%ebp),%eax
   3354a:	8d 04 02             	lea    (%edx,%eax,1),%eax
   3354d:	83 f8 1f             	cmp    $0x1f,%eax
   33550:	76 13                	jbe    33565 <get_scancode+0xaa>
   33552:	8b 45 08             	mov    0x8(%ebp),%eax
   33555:	8b 10                	mov    (%eax),%edx
   33557:	8b 45 0c             	mov    0xc(%ebp),%eax
   3355a:	8d 04 02             	lea    (%edx,%eax,1),%eax
   3355d:	83 e8 20             	sub    $0x20,%eax
   33560:	89 45 fc             	mov    %eax,0xfffffffc(%ebp)
   33563:	eb 0e                	jmp    33573 <get_scancode+0xb8>
   33565:	8b 45 08             	mov    0x8(%ebp),%eax
   33568:	8b 10                	mov    (%eax),%edx
   3356a:	8b 45 0c             	mov    0xc(%ebp),%eax
   3356d:	8d 04 02             	lea    (%edx,%eax,1),%eax
   33570:	89 45 fc             	mov    %eax,0xfffffffc(%ebp)
   33573:	8b 55 fc             	mov    0xfffffffc(%ebp),%edx
   33576:	8b 45 08             	mov    0x8(%ebp),%eax
   33579:	0f b6 44 10 0c       	movzbl 0xc(%eax,%edx,1),%eax
   3357e:	0f be c0             	movsbl %al,%eax
   33581:	89 45 ec             	mov    %eax,0xffffffec(%ebp)
   33584:	eb 07                	jmp    3358d <get_scancode+0xd2>
   33586:	c7 45 ec ff ff ff ff 	movl   $0xffffffff,0xffffffec(%ebp)
   3358d:	8b 45 ec             	mov    0xffffffec(%ebp),%eax
   33590:	c9                   	leave  
   33591:	c3                   	ret    

00033592 <shift_out>:
   33592:	55                   	push   %ebp
   33593:	89 e5                	mov    %esp,%ebp
   33595:	83 ec 18             	sub    $0x18,%esp
   33598:	83 7d 08 00          	cmpl   $0x0,0x8(%ebp)
   3359c:	75 24                	jne    335c2 <shift_out+0x30>
   3359e:	c7 44 24 0c 27 00 00 	movl   $0x27,0xc(%esp)
   335a5:	00 
   335a6:	c7 44 24 08 34 4e 03 	movl   $0x34e34,0x8(%esp)
   335ad:	00 
   335ae:	c7 44 24 04 34 4e 03 	movl   $0x34e34,0x4(%esp)
   335b5:	00 
   335b6:	c7 04 24 4f 4e 03 00 	movl   $0x34e4f,(%esp)
   335bd:	e8 b9 f4 ff ff       	call   32a7b <assertion_failure>
   335c2:	8b 45 08             	mov    0x8(%ebp),%eax
   335c5:	8b 40 08             	mov    0x8(%eax),%eax
   335c8:	85 c0                	test   %eax,%eax
   335ca:	75 0c                	jne    335d8 <shift_out+0x46>
   335cc:	c7 45 fc ff ff ff ff 	movl   $0xffffffff,0xfffffffc(%ebp)
   335d3:	e9 b9 00 00 00       	jmp    33691 <shift_out+0xff>
   335d8:	8b 45 08             	mov    0x8(%ebp),%eax
   335db:	8b 10                	mov    (%eax),%edx
   335dd:	8b 45 08             	mov    0x8(%ebp),%eax
   335e0:	8b 40 04             	mov    0x4(%eax),%eax
   335e3:	39 c2                	cmp    %eax,%edx
   335e5:	73 31                	jae    33618 <shift_out+0x86>
   335e7:	8b 45 08             	mov    0x8(%ebp),%eax
   335ea:	8b 00                	mov    (%eax),%eax
   335ec:	8d 50 01             	lea    0x1(%eax),%edx
   335ef:	8b 45 08             	mov    0x8(%ebp),%eax
   335f2:	89 10                	mov    %edx,(%eax)
   335f4:	8b 45 08             	mov    0x8(%ebp),%eax
   335f7:	8b 40 08             	mov    0x8(%eax),%eax
   335fa:	8d 50 ff             	lea    0xffffffff(%eax),%edx
   335fd:	8b 45 08             	mov    0x8(%ebp),%eax
   33600:	89 50 08             	mov    %edx,0x8(%eax)
   33603:	8b 45 08             	mov    0x8(%ebp),%eax
   33606:	8b 10                	mov    (%eax),%edx
   33608:	8b 45 08             	mov    0x8(%ebp),%eax
   3360b:	0f b6 44 10 0c       	movzbl 0xc(%eax,%edx,1),%eax
   33610:	0f be c0             	movsbl %al,%eax
   33613:	89 45 fc             	mov    %eax,0xfffffffc(%ebp)
   33616:	eb 79                	jmp    33691 <shift_out+0xff>
   33618:	8b 45 08             	mov    0x8(%ebp),%eax
   3361b:	8b 10                	mov    (%eax),%edx
   3361d:	8b 45 08             	mov    0x8(%ebp),%eax
   33620:	8b 40 04             	mov    0x4(%eax),%eax
   33623:	39 c2                	cmp    %eax,%edx
   33625:	76 68                	jbe    3368f <shift_out+0xfd>
   33627:	8b 45 08             	mov    0x8(%ebp),%eax
   3362a:	8b 00                	mov    (%eax),%eax
   3362c:	83 f8 1f             	cmp    $0x1f,%eax
   3362f:	75 2d                	jne    3365e <shift_out+0xcc>
   33631:	8b 45 08             	mov    0x8(%ebp),%eax
   33634:	c7 00 00 00 00 00    	movl   $0x0,(%eax)
   3363a:	8b 45 08             	mov    0x8(%ebp),%eax
   3363d:	8b 40 08             	mov    0x8(%eax),%eax
   33640:	8d 50 ff             	lea    0xffffffff(%eax),%edx
   33643:	8b 45 08             	mov    0x8(%ebp),%eax
   33646:	89 50 08             	mov    %edx,0x8(%eax)
   33649:	8b 45 08             	mov    0x8(%ebp),%eax
   3364c:	8b 10                	mov    (%eax),%edx
   3364e:	8b 45 08             	mov    0x8(%ebp),%eax
   33651:	0f b6 44 10 0c       	movzbl 0xc(%eax,%edx,1),%eax
   33656:	0f be c0             	movsbl %al,%eax
   33659:	89 45 fc             	mov    %eax,0xfffffffc(%ebp)
   3365c:	eb 33                	jmp    33691 <shift_out+0xff>
   3365e:	8b 45 08             	mov    0x8(%ebp),%eax
   33661:	8b 00                	mov    (%eax),%eax
   33663:	8d 50 01             	lea    0x1(%eax),%edx
   33666:	8b 45 08             	mov    0x8(%ebp),%eax
   33669:	89 10                	mov    %edx,(%eax)
   3366b:	8b 45 08             	mov    0x8(%ebp),%eax
   3366e:	8b 40 08             	mov    0x8(%eax),%eax
   33671:	8d 50 ff             	lea    0xffffffff(%eax),%edx
   33674:	8b 45 08             	mov    0x8(%ebp),%eax
   33677:	89 50 08             	mov    %edx,0x8(%eax)
   3367a:	8b 45 08             	mov    0x8(%ebp),%eax
   3367d:	8b 10                	mov    (%eax),%edx
   3367f:	8b 45 08             	mov    0x8(%ebp),%eax
   33682:	0f b6 44 10 0c       	movzbl 0xc(%eax,%edx,1),%eax
   33687:	0f be c0             	movsbl %al,%eax
   3368a:	89 45 fc             	mov    %eax,0xfffffffc(%ebp)
   3368d:	eb 02                	jmp    33691 <shift_out+0xff>
   3368f:	eb 06                	jmp    33697 <shift_out+0x105>
   33691:	8b 45 fc             	mov    0xfffffffc(%ebp),%eax
   33694:	89 45 f8             	mov    %eax,0xfffffff8(%ebp)
   33697:	8b 45 f8             	mov    0xfffffff8(%ebp),%eax
   3369a:	c9                   	leave  
   3369b:	c3                   	ret    

0003369c <shift_outM>:
   3369c:	55                   	push   %ebp
   3369d:	89 e5                	mov    %esp,%ebp
   3369f:	83 ec 18             	sub    $0x18,%esp
   336a2:	c7 45 fc 00 00 00 00 	movl   $0x0,0xfffffffc(%ebp)
   336a9:	eb 0f                	jmp    336ba <shift_outM+0x1e>
   336ab:	8b 45 08             	mov    0x8(%ebp),%eax
   336ae:	89 04 24             	mov    %eax,(%esp)
   336b1:	e8 dc fe ff ff       	call   33592 <shift_out>
   336b6:	83 45 fc 01          	addl   $0x1,0xfffffffc(%ebp)
   336ba:	8b 45 fc             	mov    0xfffffffc(%ebp),%eax
   336bd:	3b 45 0c             	cmp    0xc(%ebp),%eax
   336c0:	7c e9                	jl     336ab <shift_outM+0xf>
   336c2:	c9                   	leave  
   336c3:	c3                   	ret    

000336c4 <add_head>:
   336c4:	55                   	push   %ebp
   336c5:	89 e5                	mov    %esp,%ebp
   336c7:	83 ec 18             	sub    $0x18,%esp
   336ca:	8b 45 0c             	mov    0xc(%ebp),%eax
   336cd:	88 45 fc             	mov    %al,0xfffffffc(%ebp)
   336d0:	83 7d 08 00          	cmpl   $0x0,0x8(%ebp)
   336d4:	75 24                	jne    336fa <add_head+0x36>
   336d6:	c7 44 24 0c 45 00 00 	movl   $0x45,0xc(%esp)
   336dd:	00 
   336de:	c7 44 24 08 34 4e 03 	movl   $0x34e34,0x8(%esp)
   336e5:	00 
   336e6:	c7 44 24 04 34 4e 03 	movl   $0x34e34,0x4(%esp)
   336ed:	00 
   336ee:	c7 04 24 4f 4e 03 00 	movl   $0x34e4f,(%esp)
   336f5:	e8 81 f3 ff ff       	call   32a7b <assertion_failure>
   336fa:	8b 45 08             	mov    0x8(%ebp),%eax
   336fd:	8b 40 08             	mov    0x8(%eax),%eax
   33700:	83 f8 1d             	cmp    $0x1d,%eax
   33703:	76 0c                	jbe    33711 <add_head+0x4d>
   33705:	c7 45 f8 00 00 00 00 	movl   $0x0,0xfffffff8(%ebp)
   3370c:	e9 ac 00 00 00       	jmp    337bd <add_head+0xf9>
   33711:	8b 45 08             	mov    0x8(%ebp),%eax
   33714:	8b 10                	mov    (%eax),%edx
   33716:	8b 45 08             	mov    0x8(%ebp),%eax
   33719:	8b 40 04             	mov    0x4(%eax),%eax
   3371c:	39 c2                	cmp    %eax,%edx
   3371e:	73 5b                	jae    3377b <add_head+0xb7>
   33720:	8b 45 08             	mov    0x8(%ebp),%eax
   33723:	8b 00                	mov    (%eax),%eax
   33725:	85 c0                	test   %eax,%eax
   33727:	75 24                	jne    3374d <add_head+0x89>
   33729:	0f b6 55 fc          	movzbl 0xfffffffc(%ebp),%edx
   3372d:	8b 45 08             	mov    0x8(%ebp),%eax
   33730:	88 50 0c             	mov    %dl,0xc(%eax)
   33733:	8b 45 08             	mov    0x8(%ebp),%eax
   33736:	c7 00 1f 00 00 00    	movl   $0x1f,(%eax)
   3373c:	8b 45 08             	mov    0x8(%ebp),%eax
   3373f:	8b 40 08             	mov    0x8(%eax),%eax
   33742:	8d 50 01             	lea    0x1(%eax),%edx
   33745:	8b 45 08             	mov    0x8(%ebp),%eax
   33748:	89 50 08             	mov    %edx,0x8(%eax)
   3374b:	eb 69                	jmp    337b6 <add_head+0xf2>
   3374d:	8b 45 08             	mov    0x8(%ebp),%eax
   33750:	8b 08                	mov    (%eax),%ecx
   33752:	0f b6 55 fc          	movzbl 0xfffffffc(%ebp),%edx
   33756:	8b 45 08             	mov    0x8(%ebp),%eax
   33759:	88 54 08 0c          	mov    %dl,0xc(%eax,%ecx,1)
   3375d:	8b 45 08             	mov    0x8(%ebp),%eax
   33760:	8b 00                	mov    (%eax),%eax
   33762:	8d 50 ff             	lea    0xffffffff(%eax),%edx
   33765:	8b 45 08             	mov    0x8(%ebp),%eax
   33768:	89 10                	mov    %edx,(%eax)
   3376a:	8b 45 08             	mov    0x8(%ebp),%eax
   3376d:	8b 40 08             	mov    0x8(%eax),%eax
   33770:	8d 50 01             	lea    0x1(%eax),%edx
   33773:	8b 45 08             	mov    0x8(%ebp),%eax
   33776:	89 50 08             	mov    %edx,0x8(%eax)
   33779:	eb 3b                	jmp    337b6 <add_head+0xf2>
   3377b:	8b 45 08             	mov    0x8(%ebp),%eax
   3377e:	8b 10                	mov    (%eax),%edx
   33780:	8b 45 08             	mov    0x8(%ebp),%eax
   33783:	8b 40 04             	mov    0x4(%eax),%eax
   33786:	39 c2                	cmp    %eax,%edx
   33788:	76 2c                	jbe    337b6 <add_head+0xf2>
   3378a:	8b 45 08             	mov    0x8(%ebp),%eax
   3378d:	8b 08                	mov    (%eax),%ecx
   3378f:	0f b6 55 fc          	movzbl 0xfffffffc(%ebp),%edx
   33793:	8b 45 08             	mov    0x8(%ebp),%eax
   33796:	88 54 08 0c          	mov    %dl,0xc(%eax,%ecx,1)
   3379a:	8b 45 08             	mov    0x8(%ebp),%eax
   3379d:	8b 00                	mov    (%eax),%eax
   3379f:	8d 50 ff             	lea    0xffffffff(%eax),%edx
   337a2:	8b 45 08             	mov    0x8(%ebp),%eax
   337a5:	89 10                	mov    %edx,(%eax)
   337a7:	8b 45 08             	mov    0x8(%ebp),%eax
   337aa:	8b 40 08             	mov    0x8(%eax),%eax
   337ad:	8d 50 01             	lea    0x1(%eax),%edx
   337b0:	8b 45 08             	mov    0x8(%ebp),%eax
   337b3:	89 50 08             	mov    %edx,0x8(%eax)
   337b6:	c7 45 f8 01 00 00 00 	movl   $0x1,0xfffffff8(%ebp)
   337bd:	8b 45 f8             	mov    0xfffffff8(%ebp),%eax
   337c0:	c9                   	leave  
   337c1:	c3                   	ret    

000337c2 <add_tail>:
   337c2:	55                   	push   %ebp
   337c3:	89 e5                	mov    %esp,%ebp
   337c5:	83 ec 18             	sub    $0x18,%esp
   337c8:	8b 45 0c             	mov    0xc(%ebp),%eax
   337cb:	88 45 fc             	mov    %al,0xfffffffc(%ebp)
   337ce:	83 7d 08 00          	cmpl   $0x0,0x8(%ebp)
   337d2:	75 24                	jne    337f8 <add_tail+0x36>
   337d4:	c7 44 24 0c 5f 00 00 	movl   $0x5f,0xc(%esp)
   337db:	00 
   337dc:	c7 44 24 08 34 4e 03 	movl   $0x34e34,0x8(%esp)
   337e3:	00 
   337e4:	c7 44 24 04 34 4e 03 	movl   $0x34e34,0x4(%esp)
   337eb:	00 
   337ec:	c7 04 24 4f 4e 03 00 	movl   $0x34e4f,(%esp)
   337f3:	e8 83 f2 ff ff       	call   32a7b <assertion_failure>
   337f8:	8b 45 08             	mov    0x8(%ebp),%eax
   337fb:	8b 40 08             	mov    0x8(%eax),%eax
   337fe:	83 f8 1d             	cmp    $0x1d,%eax
   33801:	76 0c                	jbe    3380f <add_tail+0x4d>
   33803:	c7 45 f8 00 00 00 00 	movl   $0x0,0xfffffff8(%ebp)
   3380a:	e9 bc 00 00 00       	jmp    338cb <add_tail+0x109>
   3380f:	8b 45 08             	mov    0x8(%ebp),%eax
   33812:	8b 10                	mov    (%eax),%edx
   33814:	8b 45 08             	mov    0x8(%ebp),%eax
   33817:	8b 40 04             	mov    0x4(%eax),%eax
   3381a:	39 c2                	cmp    %eax,%edx
   3381c:	73 68                	jae    33886 <add_tail+0xc4>
   3381e:	8b 45 08             	mov    0x8(%ebp),%eax
   33821:	8b 40 04             	mov    0x4(%eax),%eax
   33824:	83 f8 1f             	cmp    $0x1f,%eax
   33827:	75 2c                	jne    33855 <add_tail+0x93>
   33829:	8b 45 08             	mov    0x8(%ebp),%eax
   3382c:	8b 48 04             	mov    0x4(%eax),%ecx
   3382f:	0f b6 55 fc          	movzbl 0xfffffffc(%ebp),%edx
   33833:	8b 45 08             	mov    0x8(%ebp),%eax
   33836:	88 54 08 0c          	mov    %dl,0xc(%eax,%ecx,1)
   3383a:	8b 45 08             	mov    0x8(%ebp),%eax
   3383d:	c7 40 04 00 00 00 00 	movl   $0x0,0x4(%eax)
   33844:	8b 45 08             	mov    0x8(%ebp),%eax
   33847:	8b 40 08             	mov    0x8(%eax),%eax
   3384a:	8d 50 01             	lea    0x1(%eax),%edx
   3384d:	8b 45 08             	mov    0x8(%ebp),%eax
   33850:	89 50 08             	mov    %edx,0x8(%eax)
   33853:	eb 6f                	jmp    338c4 <add_tail+0x102>
   33855:	8b 45 08             	mov    0x8(%ebp),%eax
   33858:	8b 48 04             	mov    0x4(%eax),%ecx
   3385b:	0f b6 55 fc          	movzbl 0xfffffffc(%ebp),%edx
   3385f:	8b 45 08             	mov    0x8(%ebp),%eax
   33862:	88 54 08 0c          	mov    %dl,0xc(%eax,%ecx,1)
   33866:	8b 45 08             	mov    0x8(%ebp),%eax
   33869:	8b 40 04             	mov    0x4(%eax),%eax
   3386c:	8d 50 01             	lea    0x1(%eax),%edx
   3386f:	8b 45 08             	mov    0x8(%ebp),%eax
   33872:	89 50 04             	mov    %edx,0x4(%eax)
   33875:	8b 45 08             	mov    0x8(%ebp),%eax
   33878:	8b 40 08             	mov    0x8(%eax),%eax
   3387b:	8d 50 01             	lea    0x1(%eax),%edx
   3387e:	8b 45 08             	mov    0x8(%ebp),%eax
   33881:	89 50 08             	mov    %edx,0x8(%eax)
   33884:	eb 3e                	jmp    338c4 <add_tail+0x102>
   33886:	8b 45 08             	mov    0x8(%ebp),%eax
   33889:	8b 10                	mov    (%eax),%edx
   3388b:	8b 45 08             	mov    0x8(%ebp),%eax
   3388e:	8b 40 04             	mov    0x4(%eax),%eax
   33891:	39 c2                	cmp    %eax,%edx
   33893:	76 2f                	jbe    338c4 <add_tail+0x102>
   33895:	8b 45 08             	mov    0x8(%ebp),%eax
   33898:	8b 48 04             	mov    0x4(%eax),%ecx
   3389b:	0f b6 55 fc          	movzbl 0xfffffffc(%ebp),%edx
   3389f:	8b 45 08             	mov    0x8(%ebp),%eax
   338a2:	88 54 08 0c          	mov    %dl,0xc(%eax,%ecx,1)
   338a6:	8b 45 08             	mov    0x8(%ebp),%eax
   338a9:	8b 40 04             	mov    0x4(%eax),%eax
   338ac:	8d 50 01             	lea    0x1(%eax),%edx
   338af:	8b 45 08             	mov    0x8(%ebp),%eax
   338b2:	89 50 04             	mov    %edx,0x4(%eax)
   338b5:	8b 45 08             	mov    0x8(%ebp),%eax
   338b8:	8b 40 08             	mov    0x8(%eax),%eax
   338bb:	8d 50 01             	lea    0x1(%eax),%edx
   338be:	8b 45 08             	mov    0x8(%ebp),%eax
   338c1:	89 50 08             	mov    %edx,0x8(%eax)
   338c4:	c7 45 f8 01 00 00 00 	movl   $0x1,0xfffffff8(%ebp)
   338cb:	8b 45 f8             	mov    0xfffffff8(%ebp),%eax
   338ce:	c9                   	leave  
   338cf:	c3                   	ret    

000338d0 <key_interrupt>:
   338d0:	55                   	push   %ebp
   338d1:	89 e5                	mov    %esp,%ebp
   338d3:	83 ec 18             	sub    $0x18,%esp
   338d6:	c7 04 24 60 00 00 00 	movl   $0x60,(%esp)
   338dd:	e8 d4 f0 ff ff       	call   329b6 <in_byte>
   338e2:	88 45 ff             	mov    %al,0xffffffff(%ebp)
   338e5:	0f b6 45 ff          	movzbl 0xffffffff(%ebp),%eax
   338e9:	0f be c0             	movsbl %al,%eax
   338ec:	89 44 24 04          	mov    %eax,0x4(%esp)
   338f0:	c7 04 24 80 7c 03 00 	movl   $0x37c80,(%esp)
   338f7:	e8 c6 fe ff ff       	call   337c2 <add_tail>
   338fc:	c9                   	leave  
   338fd:	c3                   	ret    

000338fe <init_keyboard>:
   338fe:	55                   	push   %ebp
   338ff:	89 e5                	mov    %esp,%ebp
   33901:	83 ec 08             	sub    $0x8,%esp
   33904:	c7 04 24 80 7c 03 00 	movl   $0x37c80,(%esp)
   3390b:	e8 5c fb ff ff       	call   3346c <init_KB_INPUT>
   33910:	c7 05 ac 7c 03 00 00 	movl   $0x0,0x37cac
   33917:	00 00 00 
   3391a:	c7 05 b0 7c 03 00 00 	movl   $0x0,0x37cb0
   33921:	00 00 00 
   33924:	c7 05 b4 7c 03 00 00 	movl   $0x0,0x37cb4
   3392b:	00 00 00 
   3392e:	c7 05 b8 7c 03 00 00 	movl   $0x0,0x37cb8
   33935:	00 00 00 
   33938:	c7 05 bc 7c 03 00 00 	movl   $0x0,0x37cbc
   3393f:	00 00 00 
   33942:	c7 05 c0 7c 03 00 00 	movl   $0x0,0x37cc0
   33949:	00 00 00 
   3394c:	c9                   	leave  
   3394d:	c3                   	ret    

0003394e <keyboard_read>:
   3394e:	55                   	push   %ebp
   3394f:	89 e5                	mov    %esp,%ebp
   33951:	83 ec 48             	sub    $0x48,%esp
   33954:	c7 45 f4 00 00 00 00 	movl   $0x0,0xfffffff4(%ebp)
   3395b:	c7 45 f8 00 00 00 00 	movl   $0x0,0xfffffff8(%ebp)
   33962:	c7 44 24 04 01 00 00 	movl   $0x1,0x4(%esp)
   33969:	00 
   3396a:	c7 04 24 80 7c 03 00 	movl   $0x37c80,(%esp)
   33971:	e8 45 fb ff ff       	call   334bb <get_scancode>
   33976:	88 45 fe             	mov    %al,0xfffffffe(%ebp)
   33979:	80 7d fe ff          	cmpb   $0xff,0xfffffffe(%ebp)
   3397d:	75 0c                	jne    3398b <keyboard_read+0x3d>
   3397f:	c7 45 c8 ff ff ff ff 	movl   $0xffffffff,0xffffffc8(%ebp)
   33986:	e9 61 04 00 00       	jmp    33dec <keyboard_read+0x49e>
   3398b:	80 7d fe e1          	cmpb   $0xe1,0xfffffffe(%ebp)
   3398f:	75 3d                	jne    339ce <keyboard_read+0x80>
   33991:	a1 88 7c 03 00       	mov    0x37c88,%eax
   33996:	83 f8 03             	cmp    $0x3,%eax
   33999:	77 0c                	ja     339a7 <keyboard_read+0x59>
   3399b:	c7 45 c8 ff ff ff ff 	movl   $0xffffffff,0xffffffc8(%ebp)
   339a2:	e9 45 04 00 00       	jmp    33dec <keyboard_read+0x49e>
   339a7:	c7 45 f4 1e 01 00 00 	movl   $0x11e,0xfffffff4(%ebp)
   339ae:	c7 45 f8 01 00 00 00 	movl   $0x1,0xfffffff8(%ebp)
   339b5:	c7 44 24 04 06 00 00 	movl   $0x6,0x4(%esp)
   339bc:	00 
   339bd:	c7 04 24 80 7c 03 00 	movl   $0x37c80,(%esp)
   339c4:	e8 d3 fc ff ff       	call   3369c <shift_outM>
   339c9:	e9 dc 02 00 00       	jmp    33caa <keyboard_read+0x35c>
   339ce:	80 7d fe e0          	cmpb   $0xe0,0xfffffffe(%ebp)
   339d2:	0f 85 95 01 00 00    	jne    33b6d <keyboard_read+0x21f>
   339d8:	a1 88 7c 03 00       	mov    0x37c88,%eax
   339dd:	83 f8 01             	cmp    $0x1,%eax
   339e0:	77 0c                	ja     339ee <keyboard_read+0xa0>
   339e2:	c7 45 c8 ff ff ff ff 	movl   $0xffffffff,0xffffffc8(%ebp)
   339e9:	e9 fe 03 00 00       	jmp    33dec <keyboard_read+0x49e>
   339ee:	c7 44 24 04 02 00 00 	movl   $0x2,0x4(%esp)
   339f5:	00 
   339f6:	c7 04 24 80 7c 03 00 	movl   $0x37c80,(%esp)
   339fd:	e8 b9 fa ff ff       	call   334bb <get_scancode>
   33a02:	88 45 ff             	mov    %al,0xffffffff(%ebp)
   33a05:	80 7d ff 00          	cmpb   $0x0,0xffffffff(%ebp)
   33a09:	78 28                	js     33a33 <keyboard_read+0xe5>
   33a0b:	0f b6 45 ff          	movzbl 0xffffffff(%ebp),%eax
   33a0f:	84 c0                	test   %al,%al
   33a11:	78 20                	js     33a33 <keyboard_read+0xe5>
   33a13:	0f be 55 ff          	movsbl 0xffffffff(%ebp),%edx
   33a17:	89 d0                	mov    %edx,%eax
   33a19:	01 c0                	add    %eax,%eax
   33a1b:	01 d0                	add    %edx,%eax
   33a1d:	83 c0 02             	add    $0x2,%eax
   33a20:	8b 04 85 20 50 03 00 	mov    0x35020(,%eax,4),%eax
   33a27:	89 45 f4             	mov    %eax,0xfffffff4(%ebp)
   33a2a:	c7 45 f8 01 00 00 00 	movl   $0x1,0xfffffff8(%ebp)
   33a31:	eb 12                	jmp    33a45 <keyboard_read+0xf7>
   33a33:	0f be 45 ff          	movsbl 0xffffffff(%ebp),%eax
   33a37:	83 e0 01             	and    $0x1,%eax
   33a3a:	84 c0                	test   %al,%al
   33a3c:	74 07                	je     33a45 <keyboard_read+0xf7>
   33a3e:	c7 45 f8 00 00 00 00 	movl   $0x0,0xfffffff8(%ebp)
   33a45:	0f b6 45 ff          	movzbl 0xffffffff(%ebp),%eax
   33a49:	0f b6 c0             	movzbl %al,%eax
   33a4c:	89 45 cc             	mov    %eax,0xffffffcc(%ebp)
   33a4f:	83 7d cc 38          	cmpl   $0x38,0xffffffcc(%ebp)
   33a53:	74 59                	je     33aae <keyboard_read+0x160>
   33a55:	83 7d cc 38          	cmpl   $0x38,0xffffffcc(%ebp)
   33a59:	7f 11                	jg     33a6c <keyboard_read+0x11e>
   33a5b:	83 7d cc 1d          	cmpl   $0x1d,0xffffffcc(%ebp)
   33a5f:	74 2f                	je     33a90 <keyboard_read+0x142>
   33a61:	83 7d cc 2a          	cmpl   $0x2a,0xffffffcc(%ebp)
   33a65:	74 65                	je     33acc <keyboard_read+0x17e>
   33a67:	e9 e8 00 00 00       	jmp    33b54 <keyboard_read+0x206>
   33a6c:	81 7d cc b7 00 00 00 	cmpl   $0xb7,0xffffffcc(%ebp)
   33a73:	0f 84 97 00 00 00    	je     33b10 <keyboard_read+0x1c2>
   33a79:	81 7d cc b8 00 00 00 	cmpl   $0xb8,0xffffffcc(%ebp)
   33a80:	74 3b                	je     33abd <keyboard_read+0x16f>
   33a82:	81 7d cc 9d 00 00 00 	cmpl   $0x9d,0xffffffcc(%ebp)
   33a89:	74 14                	je     33a9f <keyboard_read+0x151>
   33a8b:	e9 c4 00 00 00       	jmp    33b54 <keyboard_read+0x206>
   33a90:	c7 05 b8 7c 03 00 01 	movl   $0x1,0x37cb8
   33a97:	00 00 00 
   33a9a:	e9 b5 00 00 00       	jmp    33b54 <keyboard_read+0x206>
   33a9f:	c7 05 b8 7c 03 00 00 	movl   $0x0,0x37cb8
   33aa6:	00 00 00 
   33aa9:	e9 a6 00 00 00       	jmp    33b54 <keyboard_read+0x206>
   33aae:	c7 05 c0 7c 03 00 01 	movl   $0x1,0x37cc0
   33ab5:	00 00 00 
   33ab8:	e9 97 00 00 00       	jmp    33b54 <keyboard_read+0x206>
   33abd:	c7 05 c0 7c 03 00 00 	movl   $0x0,0x37cc0
   33ac4:	00 00 00 
   33ac7:	e9 88 00 00 00       	jmp    33b54 <keyboard_read+0x206>
   33acc:	a1 88 7c 03 00       	mov    0x37c88,%eax
   33ad1:	83 f8 03             	cmp    $0x3,%eax
   33ad4:	77 0c                	ja     33ae2 <keyboard_read+0x194>
   33ad6:	c7 45 c8 ff ff ff ff 	movl   $0xffffffff,0xffffffc8(%ebp)
   33add:	e9 0a 03 00 00       	jmp    33dec <keyboard_read+0x49e>
   33ae2:	c7 45 f4 1d 01 00 00 	movl   $0x11d,0xfffffff4(%ebp)
   33ae9:	c7 45 f8 01 00 00 00 	movl   $0x1,0xfffffff8(%ebp)
   33af0:	c7 44 24 04 04 00 00 	movl   $0x4,0x4(%esp)
   33af7:	00 
   33af8:	c7 04 24 80 7c 03 00 	movl   $0x37c80,(%esp)
   33aff:	e8 98 fb ff ff       	call   3369c <shift_outM>
   33b04:	c7 45 c8 ff ff ff ff 	movl   $0xffffffff,0xffffffc8(%ebp)
   33b0b:	e9 dc 02 00 00       	jmp    33dec <keyboard_read+0x49e>
   33b10:	a1 88 7c 03 00       	mov    0x37c88,%eax
   33b15:	83 f8 03             	cmp    $0x3,%eax
   33b18:	77 0c                	ja     33b26 <keyboard_read+0x1d8>
   33b1a:	c7 45 c8 ff ff ff ff 	movl   $0xffffffff,0xffffffc8(%ebp)
   33b21:	e9 c6 02 00 00       	jmp    33dec <keyboard_read+0x49e>
   33b26:	c7 45 f4 1d 01 00 00 	movl   $0x11d,0xfffffff4(%ebp)
   33b2d:	c7 45 f8 00 00 00 00 	movl   $0x0,0xfffffff8(%ebp)
   33b34:	c7 44 24 04 04 00 00 	movl   $0x4,0x4(%esp)
   33b3b:	00 
   33b3c:	c7 04 24 80 7c 03 00 	movl   $0x37c80,(%esp)
   33b43:	e8 54 fb ff ff       	call   3369c <shift_outM>
   33b48:	c7 45 c8 ff ff ff ff 	movl   $0xffffffff,0xffffffc8(%ebp)
   33b4f:	e9 98 02 00 00       	jmp    33dec <keyboard_read+0x49e>
   33b54:	c7 44 24 04 02 00 00 	movl   $0x2,0x4(%esp)
   33b5b:	00 
   33b5c:	c7 04 24 80 7c 03 00 	movl   $0x37c80,(%esp)
   33b63:	e8 34 fb ff ff       	call   3369c <shift_outM>
   33b68:	e9 3d 01 00 00       	jmp    33caa <keyboard_read+0x35c>
   33b6d:	80 7d fe 00          	cmpb   $0x0,0xfffffffe(%ebp)
   33b71:	0f 88 b7 00 00 00    	js     33c2e <keyboard_read+0x2e0>
   33b77:	0f b6 45 fe          	movzbl 0xfffffffe(%ebp),%eax
   33b7b:	84 c0                	test   %al,%al
   33b7d:	0f 88 ab 00 00 00    	js     33c2e <keyboard_read+0x2e0>
   33b83:	0f be 45 fe          	movsbl 0xfffffffe(%ebp),%eax
   33b87:	89 45 d0             	mov    %eax,0xffffffd0(%ebp)
   33b8a:	83 7d d0 2a          	cmpl   $0x2a,0xffffffd0(%ebp)
   33b8e:	74 28                	je     33bb8 <keyboard_read+0x26a>
   33b90:	83 7d d0 2a          	cmpl   $0x2a,0xffffffd0(%ebp)
   33b94:	7f 08                	jg     33b9e <keyboard_read+0x250>
   33b96:	83 7d d0 1d          	cmpl   $0x1d,0xffffffd0(%ebp)
   33b9a:	74 28                	je     33bc4 <keyboard_read+0x276>
   33b9c:	eb 3c                	jmp    33bda <keyboard_read+0x28c>
   33b9e:	83 7d d0 36          	cmpl   $0x36,0xffffffd0(%ebp)
   33ba2:	74 08                	je     33bac <keyboard_read+0x25e>
   33ba4:	83 7d d0 38          	cmpl   $0x38,0xffffffd0(%ebp)
   33ba8:	74 26                	je     33bd0 <keyboard_read+0x282>
   33baa:	eb 2e                	jmp    33bda <keyboard_read+0x28c>
   33bac:	c7 05 b0 7c 03 00 01 	movl   $0x1,0x37cb0
   33bb3:	00 00 00 
   33bb6:	eb 22                	jmp    33bda <keyboard_read+0x28c>
   33bb8:	c7 05 ac 7c 03 00 01 	movl   $0x1,0x37cac
   33bbf:	00 00 00 
   33bc2:	eb 16                	jmp    33bda <keyboard_read+0x28c>
   33bc4:	c7 05 b4 7c 03 00 01 	movl   $0x1,0x37cb4
   33bcb:	00 00 00 
   33bce:	eb 0a                	jmp    33bda <keyboard_read+0x28c>
   33bd0:	c7 05 bc 7c 03 00 01 	movl   $0x1,0x37cbc
   33bd7:	00 00 00 
   33bda:	0f be 55 fe          	movsbl 0xfffffffe(%ebp),%edx
   33bde:	89 d0                	mov    %edx,%eax
   33be0:	01 c0                	add    %eax,%eax
   33be2:	01 d0                	add    %edx,%eax
   33be4:	8b 04 85 20 50 03 00 	mov    0x35020(,%eax,4),%eax
   33beb:	89 45 f4             	mov    %eax,0xfffffff4(%ebp)
   33bee:	a1 ac 7c 03 00       	mov    0x37cac,%eax
   33bf3:	83 f8 01             	cmp    $0x1,%eax
   33bf6:	74 0a                	je     33c02 <keyboard_read+0x2b4>
   33bf8:	a1 b0 7c 03 00       	mov    0x37cb0,%eax
   33bfd:	83 f8 01             	cmp    $0x1,%eax
   33c00:	75 17                	jne    33c19 <keyboard_read+0x2cb>
   33c02:	0f be 55 fe          	movsbl 0xfffffffe(%ebp),%edx
   33c06:	89 d0                	mov    %edx,%eax
   33c08:	01 c0                	add    %eax,%eax
   33c0a:	01 d0                	add    %edx,%eax
   33c0c:	83 c0 01             	add    $0x1,%eax
   33c0f:	8b 04 85 20 50 03 00 	mov    0x35020(,%eax,4),%eax
   33c16:	89 45 f4             	mov    %eax,0xfffffff4(%ebp)
   33c19:	c7 45 f8 01 00 00 00 	movl   $0x1,0xfffffff8(%ebp)
   33c20:	c7 04 24 80 7c 03 00 	movl   $0x37c80,(%esp)
   33c27:	e8 66 f9 ff ff       	call   33592 <shift_out>
   33c2c:	eb 7c                	jmp    33caa <keyboard_read+0x35c>
   33c2e:	0f b6 45 fe          	movzbl 0xfffffffe(%ebp),%eax
   33c32:	0f b6 c0             	movzbl %al,%eax
   33c35:	89 45 d4             	mov    %eax,0xffffffd4(%ebp)
   33c38:	81 7d d4 aa 00 00 00 	cmpl   $0xaa,0xffffffd4(%ebp)
   33c3f:	74 34                	je     33c75 <keyboard_read+0x327>
   33c41:	81 7d d4 aa 00 00 00 	cmpl   $0xaa,0xffffffd4(%ebp)
   33c48:	7f 0b                	jg     33c55 <keyboard_read+0x307>
   33c4a:	81 7d d4 9d 00 00 00 	cmpl   $0x9d,0xffffffd4(%ebp)
   33c51:	74 2e                	je     33c81 <keyboard_read+0x333>
   33c53:	eb 42                	jmp    33c97 <keyboard_read+0x349>
   33c55:	81 7d d4 b6 00 00 00 	cmpl   $0xb6,0xffffffd4(%ebp)
   33c5c:	74 0b                	je     33c69 <keyboard_read+0x31b>
   33c5e:	81 7d d4 b8 00 00 00 	cmpl   $0xb8,0xffffffd4(%ebp)
   33c65:	74 26                	je     33c8d <keyboard_read+0x33f>
   33c67:	eb 2e                	jmp    33c97 <keyboard_read+0x349>
   33c69:	c7 05 b0 7c 03 00 00 	movl   $0x0,0x37cb0
   33c70:	00 00 00 
   33c73:	eb 22                	jmp    33c97 <keyboard_read+0x349>
   33c75:	c7 05 ac 7c 03 00 00 	movl   $0x0,0x37cac
   33c7c:	00 00 00 
   33c7f:	eb 16                	jmp    33c97 <keyboard_read+0x349>
   33c81:	c7 05 b4 7c 03 00 00 	movl   $0x0,0x37cb4
   33c88:	00 00 00 
   33c8b:	eb 0a                	jmp    33c97 <keyboard_read+0x349>
   33c8d:	c7 05 bc 7c 03 00 00 	movl   $0x0,0x37cbc
   33c94:	00 00 00 
   33c97:	c7 45 f8 00 00 00 00 	movl   $0x0,0xfffffff8(%ebp)
   33c9e:	c7 04 24 80 7c 03 00 	movl   $0x37c80,(%esp)
   33ca5:	e8 e8 f8 ff ff       	call   33592 <shift_out>
   33caa:	83 7d f8 01          	cmpl   $0x1,0xfffffff8(%ebp)
   33cae:	0f 85 31 01 00 00    	jne    33de5 <keyboard_read+0x497>
   33cb4:	a1 bc 7c 03 00       	mov    0x37cbc,%eax
   33cb9:	83 f8 01             	cmp    $0x1,%eax
   33cbc:	74 0a                	je     33cc8 <keyboard_read+0x37a>
   33cbe:	a1 c0 7c 03 00       	mov    0x37cc0,%eax
   33cc3:	83 f8 01             	cmp    $0x1,%eax
   33cc6:	75 47                	jne    33d0f <keyboard_read+0x3c1>
   33cc8:	8b 45 f4             	mov    0xfffffff4(%ebp),%eax
   33ccb:	89 45 c4             	mov    %eax,0xffffffc4(%ebp)
   33cce:	81 7d c4 12 01 00 00 	cmpl   $0x112,0xffffffc4(%ebp)
   33cd5:	74 20                	je     33cf7 <keyboard_read+0x3a9>
   33cd7:	81 7d c4 13 01 00 00 	cmpl   $0x113,0xffffffc4(%ebp)
   33cde:	74 23                	je     33d03 <keyboard_read+0x3b5>
   33ce0:	81 7d c4 11 01 00 00 	cmpl   $0x111,0xffffffc4(%ebp)
   33ce7:	74 02                	je     33ceb <keyboard_read+0x39d>
   33ce9:	eb 24                	jmp    33d0f <keyboard_read+0x3c1>
   33ceb:	c7 45 c8 00 00 00 00 	movl   $0x0,0xffffffc8(%ebp)
   33cf2:	e9 f5 00 00 00       	jmp    33dec <keyboard_read+0x49e>
   33cf7:	c7 45 c8 01 00 00 00 	movl   $0x1,0xffffffc8(%ebp)
   33cfe:	e9 e9 00 00 00       	jmp    33dec <keyboard_read+0x49e>
   33d03:	c7 45 c8 02 00 00 00 	movl   $0x2,0xffffffc8(%ebp)
   33d0a:	e9 dd 00 00 00       	jmp    33dec <keyboard_read+0x49e>
   33d0f:	a1 ac 7c 03 00       	mov    0x37cac,%eax
   33d14:	85 c0                	test   %eax,%eax
   33d16:	74 09                	je     33d21 <keyboard_read+0x3d3>
   33d18:	c7 45 d8 00 02 00 00 	movl   $0x200,0xffffffd8(%ebp)
   33d1f:	eb 07                	jmp    33d28 <keyboard_read+0x3da>
   33d21:	c7 45 d8 00 00 00 00 	movl   $0x0,0xffffffd8(%ebp)
   33d28:	8b 45 d8             	mov    0xffffffd8(%ebp),%eax
   33d2b:	09 45 f4             	or     %eax,0xfffffff4(%ebp)
   33d2e:	a1 b0 7c 03 00       	mov    0x37cb0,%eax
   33d33:	85 c0                	test   %eax,%eax
   33d35:	74 09                	je     33d40 <keyboard_read+0x3f2>
   33d37:	c7 45 dc 00 04 00 00 	movl   $0x400,0xffffffdc(%ebp)
   33d3e:	eb 07                	jmp    33d47 <keyboard_read+0x3f9>
   33d40:	c7 45 dc 00 00 00 00 	movl   $0x0,0xffffffdc(%ebp)
   33d47:	8b 45 dc             	mov    0xffffffdc(%ebp),%eax
   33d4a:	09 45 f4             	or     %eax,0xfffffff4(%ebp)
   33d4d:	a1 bc 7c 03 00       	mov    0x37cbc,%eax
   33d52:	85 c0                	test   %eax,%eax
   33d54:	74 09                	je     33d5f <keyboard_read+0x411>
   33d56:	c7 45 e0 00 20 00 00 	movl   $0x2000,0xffffffe0(%ebp)
   33d5d:	eb 07                	jmp    33d66 <keyboard_read+0x418>
   33d5f:	c7 45 e0 00 00 00 00 	movl   $0x0,0xffffffe0(%ebp)
   33d66:	8b 45 e0             	mov    0xffffffe0(%ebp),%eax
   33d69:	09 45 f4             	or     %eax,0xfffffff4(%ebp)
   33d6c:	a1 c0 7c 03 00       	mov    0x37cc0,%eax
   33d71:	85 c0                	test   %eax,%eax
   33d73:	74 09                	je     33d7e <keyboard_read+0x430>
   33d75:	c7 45 e4 00 40 00 00 	movl   $0x4000,0xffffffe4(%ebp)
   33d7c:	eb 07                	jmp    33d85 <keyboard_read+0x437>
   33d7e:	c7 45 e4 00 00 00 00 	movl   $0x0,0xffffffe4(%ebp)
   33d85:	8b 45 e4             	mov    0xffffffe4(%ebp),%eax
   33d88:	09 45 f4             	or     %eax,0xfffffff4(%ebp)
   33d8b:	a1 b4 7c 03 00       	mov    0x37cb4,%eax
   33d90:	85 c0                	test   %eax,%eax
   33d92:	74 09                	je     33d9d <keyboard_read+0x44f>
   33d94:	c7 45 e8 00 08 00 00 	movl   $0x800,0xffffffe8(%ebp)
   33d9b:	eb 07                	jmp    33da4 <keyboard_read+0x456>
   33d9d:	c7 45 e8 00 00 00 00 	movl   $0x0,0xffffffe8(%ebp)
   33da4:	8b 45 e8             	mov    0xffffffe8(%ebp),%eax
   33da7:	09 45 f4             	or     %eax,0xfffffff4(%ebp)
   33daa:	a1 b8 7c 03 00       	mov    0x37cb8,%eax
   33daf:	85 c0                	test   %eax,%eax
   33db1:	74 09                	je     33dbc <keyboard_read+0x46e>
   33db3:	c7 45 ec 00 10 00 00 	movl   $0x1000,0xffffffec(%ebp)
   33dba:	eb 07                	jmp    33dc3 <keyboard_read+0x475>
   33dbc:	c7 45 ec 00 00 00 00 	movl   $0x0,0xffffffec(%ebp)
   33dc3:	8b 45 ec             	mov    0xffffffec(%ebp),%eax
   33dc6:	09 45 f4             	or     %eax,0xfffffff4(%ebp)
   33dc9:	8b 45 08             	mov    0x8(%ebp),%eax
   33dcc:	89 04 24             	mov    %eax,(%esp)
   33dcf:	e8 a5 f5 ff ff       	call   33379 <tty2id>
   33dd4:	89 c2                	mov    %eax,%edx
   33dd6:	8b 45 f4             	mov    0xfffffff4(%ebp),%eax
   33dd9:	89 44 24 04          	mov    %eax,0x4(%esp)
   33ddd:	89 14 24             	mov    %edx,(%esp)
   33de0:	e8 ca 00 00 00       	call   33eaf <printChar>
   33de5:	c7 45 c8 ff ff ff ff 	movl   $0xffffffff,0xffffffc8(%ebp)
   33dec:	8b 45 c8             	mov    0xffffffc8(%ebp),%eax
   33def:	c9                   	leave  
   33df0:	c3                   	ret    

00033df1 <set_cursor>:
   33df1:	55                   	push   %ebp
   33df2:	89 e5                	mov    %esp,%ebp
   33df4:	83 ec 08             	sub    $0x8,%esp
   33df7:	c7 44 24 04 0e 00 00 	movl   $0xe,0x4(%esp)
   33dfe:	00 
   33dff:	c7 04 24 d4 03 00 00 	movl   $0x3d4,(%esp)
   33e06:	e8 9b eb ff ff       	call   329a6 <out_byte>
   33e0b:	8b 45 08             	mov    0x8(%ebp),%eax
   33e0e:	c1 f8 08             	sar    $0x8,%eax
   33e11:	0f b6 c0             	movzbl %al,%eax
   33e14:	89 44 24 04          	mov    %eax,0x4(%esp)
   33e18:	c7 04 24 d5 03 00 00 	movl   $0x3d5,(%esp)
   33e1f:	e8 82 eb ff ff       	call   329a6 <out_byte>
   33e24:	c7 44 24 04 0f 00 00 	movl   $0xf,0x4(%esp)
   33e2b:	00 
   33e2c:	c7 04 24 d4 03 00 00 	movl   $0x3d4,(%esp)
   33e33:	e8 6e eb ff ff       	call   329a6 <out_byte>
   33e38:	8b 45 08             	mov    0x8(%ebp),%eax
   33e3b:	0f b6 c0             	movzbl %al,%eax
   33e3e:	89 44 24 04          	mov    %eax,0x4(%esp)
   33e42:	c7 04 24 d5 03 00 00 	movl   $0x3d5,(%esp)
   33e49:	e8 58 eb ff ff       	call   329a6 <out_byte>
   33e4e:	c9                   	leave  
   33e4f:	c3                   	ret    

00033e50 <set_disp_addr>:
   33e50:	55                   	push   %ebp
   33e51:	89 e5                	mov    %esp,%ebp
   33e53:	83 ec 08             	sub    $0x8,%esp
   33e56:	c7 44 24 04 0c 00 00 	movl   $0xc,0x4(%esp)
   33e5d:	00 
   33e5e:	c7 04 24 d4 03 00 00 	movl   $0x3d4,(%esp)
   33e65:	e8 3c eb ff ff       	call   329a6 <out_byte>
   33e6a:	8b 45 08             	mov    0x8(%ebp),%eax
   33e6d:	c1 f8 08             	sar    $0x8,%eax
   33e70:	0f b6 c0             	movzbl %al,%eax
   33e73:	89 44 24 04          	mov    %eax,0x4(%esp)
   33e77:	c7 04 24 d5 03 00 00 	movl   $0x3d5,(%esp)
   33e7e:	e8 23 eb ff ff       	call   329a6 <out_byte>
   33e83:	c7 44 24 04 0d 00 00 	movl   $0xd,0x4(%esp)
   33e8a:	00 
   33e8b:	c7 04 24 d4 03 00 00 	movl   $0x3d4,(%esp)
   33e92:	e8 0f eb ff ff       	call   329a6 <out_byte>
   33e97:	8b 45 08             	mov    0x8(%ebp),%eax
   33e9a:	0f b6 c0             	movzbl %al,%eax
   33e9d:	89 44 24 04          	mov    %eax,0x4(%esp)
   33ea1:	c7 04 24 d5 03 00 00 	movl   $0x3d5,(%esp)
   33ea8:	e8 f9 ea ff ff       	call   329a6 <out_byte>
   33ead:	c9                   	leave  
   33eae:	c3                   	ret    

00033eaf <printChar>:
   33eaf:	55                   	push   %ebp
   33eb0:	89 e5                	mov    %esp,%ebp
   33eb2:	83 ec 48             	sub    $0x48,%esp
   33eb5:	c7 45 dc 51 4e 03 00 	movl   $0x34e51,0xffffffdc(%ebp)
   33ebc:	8b 45 0c             	mov    0xc(%ebp),%eax
   33ebf:	25 00 01 00 00       	and    $0x100,%eax
   33ec4:	89 45 e0             	mov    %eax,0xffffffe0(%ebp)
   33ec7:	83 7d 08 00          	cmpl   $0x0,0x8(%ebp)
   33ecb:	78 08                	js     33ed5 <printChar+0x26>
   33ecd:	83 7d 08 02          	cmpl   $0x2,0x8(%ebp)
   33ed1:	7f 02                	jg     33ed5 <printChar+0x26>
   33ed3:	eb 24                	jmp    33ef9 <printChar+0x4a>
   33ed5:	c7 44 24 0c 47 01 00 	movl   $0x147,0xc(%esp)
   33edc:	00 
   33edd:	c7 44 24 08 34 4e 03 	movl   $0x34e34,0x8(%esp)
   33ee4:	00 
   33ee5:	c7 44 24 04 34 4e 03 	movl   $0x34e34,0x4(%esp)
   33eec:	00 
   33eed:	c7 04 24 53 4e 03 00 	movl   $0x34e53,(%esp)
   33ef4:	e8 82 eb ff ff       	call   32a7b <assertion_failure>
   33ef9:	8b 45 08             	mov    0x8(%ebp),%eax
   33efc:	89 04 24             	mov    %eax,(%esp)
   33eff:	e8 b8 f4 ff ff       	call   333bc <id2tty>
   33f04:	89 45 e4             	mov    %eax,0xffffffe4(%ebp)
   33f07:	8b 45 e4             	mov    0xffffffe4(%ebp),%eax
   33f0a:	8b 50 0c             	mov    0xc(%eax),%edx
   33f0d:	8b 45 e4             	mov    0xffffffe4(%ebp),%eax
   33f10:	8b 40 04             	mov    0x4(%eax),%eax
   33f13:	39 c2                	cmp    %eax,%edx
   33f15:	72 0b                	jb     33f22 <printChar+0x73>
   33f17:	8b 45 e4             	mov    0xffffffe4(%ebp),%eax
   33f1a:	8b 10                	mov    (%eax),%edx
   33f1c:	8b 45 e4             	mov    0xffffffe4(%ebp),%eax
   33f1f:	89 50 0c             	mov    %edx,0xc(%eax)
   33f22:	c7 45 e8 ff ff ff ff 	movl   $0xffffffff,0xffffffe8(%ebp)
   33f29:	8b 45 e4             	mov    0xffffffe4(%ebp),%eax
   33f2c:	8b 40 0c             	mov    0xc(%eax),%eax
   33f2f:	01 c0                	add    %eax,%eax
   33f31:	a3 04 50 03 00       	mov    %eax,0x35004
   33f36:	83 7d e0 00          	cmpl   $0x0,0xffffffe0(%ebp)
   33f3a:	75 1e                	jne    33f5a <printChar+0xab>
   33f3c:	8b 45 0c             	mov    0xc(%ebp),%eax
   33f3f:	89 c2                	mov    %eax,%edx
   33f41:	8b 45 dc             	mov    0xffffffdc(%ebp),%eax
   33f44:	88 10                	mov    %dl,(%eax)
   33f46:	8b 45 dc             	mov    0xffffffdc(%ebp),%eax
   33f49:	89 04 24             	mov    %eax,(%esp)
   33f4c:	e8 f3 e9 ff ff       	call   32944 <disp_str>
   33f51:	c7 45 e8 00 00 00 00 	movl   $0x0,0xffffffe8(%ebp)
   33f58:	eb 6f                	jmp    33fc9 <printChar+0x11a>
   33f5a:	8b 45 0c             	mov    0xc(%ebp),%eax
   33f5d:	25 ff 01 00 00       	and    $0x1ff,%eax
   33f62:	89 45 fc             	mov    %eax,0xfffffffc(%ebp)
   33f65:	8b 45 fc             	mov    0xfffffffc(%ebp),%eax
   33f68:	89 45 cc             	mov    %eax,0xffffffcc(%ebp)
   33f6b:	81 7d cc 04 01 00 00 	cmpl   $0x104,0xffffffcc(%ebp)
   33f72:	74 3d                	je     33fb1 <printChar+0x102>
   33f74:	81 7d cc 04 01 00 00 	cmpl   $0x104,0xffffffcc(%ebp)
   33f7b:	7f 0b                	jg     33f88 <printChar+0xd9>
   33f7d:	81 7d cc 03 01 00 00 	cmpl   $0x103,0xffffffcc(%ebp)
   33f84:	74 16                	je     33f9c <printChar+0xed>
   33f86:	eb 41                	jmp    33fc9 <printChar+0x11a>
   33f88:	81 7d cc 25 01 00 00 	cmpl   $0x125,0xffffffcc(%ebp)
   33f8f:	74 36                	je     33fc7 <printChar+0x118>
   33f91:	81 7d cc 26 01 00 00 	cmpl   $0x126,0xffffffcc(%ebp)
   33f98:	74 2f                	je     33fc9 <printChar+0x11a>
   33f9a:	eb 2d                	jmp    33fc9 <printChar+0x11a>
   33f9c:	c7 04 24 6a 4e 03 00 	movl   $0x34e6a,(%esp)
   33fa3:	e8 9c e9 ff ff       	call   32944 <disp_str>
   33fa8:	c7 45 e8 00 00 00 00 	movl   $0x0,0xffffffe8(%ebp)
   33faf:	eb 18                	jmp    33fc9 <printChar+0x11a>
   33fb1:	a1 04 50 03 00       	mov    0x35004,%eax
   33fb6:	83 e8 02             	sub    $0x2,%eax
   33fb9:	a3 04 50 03 00       	mov    %eax,0x35004
   33fbe:	c7 45 e8 00 00 00 00 	movl   $0x0,0xffffffe8(%ebp)
   33fc5:	eb 02                	jmp    33fc9 <printChar+0x11a>
   33fc7:	eb 00                	jmp    33fc9 <printChar+0x11a>
   33fc9:	8b 15 04 50 03 00    	mov    0x35004,%edx
   33fcf:	89 d0                	mov    %edx,%eax
   33fd1:	c1 e8 1f             	shr    $0x1f,%eax
   33fd4:	01 d0                	add    %edx,%eax
   33fd6:	d1 f8                	sar    %eax
   33fd8:	89 c2                	mov    %eax,%edx
   33fda:	8b 45 e4             	mov    0xffffffe4(%ebp),%eax
   33fdd:	89 50 0c             	mov    %edx,0xc(%eax)
   33fe0:	8b 45 e4             	mov    0xffffffe4(%ebp),%eax
   33fe3:	89 04 24             	mov    %eax,(%esp)
   33fe6:	e8 8e f3 ff ff       	call   33379 <tty2id>
   33feb:	89 c2                	mov    %eax,%edx
   33fed:	a1 88 f1 09 00       	mov    0x9f188,%eax
   33ff2:	39 c2                	cmp    %eax,%edx
   33ff4:	75 17                	jne    3400d <printChar+0x15e>
   33ff6:	8b 15 04 50 03 00    	mov    0x35004,%edx
   33ffc:	89 d0                	mov    %edx,%eax
   33ffe:	c1 e8 1f             	shr    $0x1f,%eax
   34001:	01 d0                	add    %edx,%eax
   34003:	d1 f8                	sar    %eax
   34005:	89 04 24             	mov    %eax,(%esp)
   34008:	e8 e4 fd ff ff       	call   33df1 <set_cursor>
   3400d:	8b 0d 04 50 03 00    	mov    0x35004,%ecx
   34013:	c7 45 c8 67 66 66 66 	movl   $0x66666667,0xffffffc8(%ebp)
   3401a:	8b 45 c8             	mov    0xffffffc8(%ebp),%eax
   3401d:	f7 e9                	imul   %ecx
   3401f:	c1 fa 06             	sar    $0x6,%edx
   34022:	89 c8                	mov    %ecx,%eax
   34024:	c1 f8 1f             	sar    $0x1f,%eax
   34027:	89 d1                	mov    %edx,%ecx
   34029:	29 c1                	sub    %eax,%ecx
   3402b:	89 c8                	mov    %ecx,%eax
   3402d:	89 45 ec             	mov    %eax,0xffffffec(%ebp)
   34030:	8b 45 e4             	mov    0xffffffe4(%ebp),%eax
   34033:	8b 50 08             	mov    0x8(%eax),%edx
   34036:	c7 45 c8 cd cc cc cc 	movl   $0xcccccccd,0xffffffc8(%ebp)
   3403d:	8b 45 c8             	mov    0xffffffc8(%ebp),%eax
   34040:	f7 e2                	mul    %edx
   34042:	89 d0                	mov    %edx,%eax
   34044:	c1 e8 06             	shr    $0x6,%eax
   34047:	89 45 f0             	mov    %eax,0xfffffff0(%ebp)
   3404a:	8b 55 f0             	mov    0xfffffff0(%ebp),%edx
   3404d:	8b 45 ec             	mov    0xffffffec(%ebp),%eax
   34050:	29 d0                	sub    %edx,%eax
   34052:	89 45 f4             	mov    %eax,0xfffffff4(%ebp)
   34055:	8b 45 f4             	mov    0xfffffff4(%ebp),%eax
   34058:	83 e8 18             	sub    $0x18,%eax
   3405b:	89 45 f8             	mov    %eax,0xfffffff8(%ebp)
   3405e:	83 7d f8 00          	cmpl   $0x0,0xfffffff8(%ebp)
   34062:	7e 6c                	jle    340d0 <printChar+0x221>
   34064:	8b 45 e4             	mov    0xffffffe4(%ebp),%eax
   34067:	8b 48 08             	mov    0x8(%eax),%ecx
   3406a:	8b 55 f8             	mov    0xfffffff8(%ebp),%edx
   3406d:	89 d0                	mov    %edx,%eax
   3406f:	c1 e0 02             	shl    $0x2,%eax
   34072:	01 d0                	add    %edx,%eax
   34074:	c1 e0 04             	shl    $0x4,%eax
   34077:	8d 14 01             	lea    (%ecx,%eax,1),%edx
   3407a:	8b 45 e4             	mov    0xffffffe4(%ebp),%eax
   3407d:	89 50 08             	mov    %edx,0x8(%eax)
   34080:	8b 45 e4             	mov    0xffffffe4(%ebp),%eax
   34083:	8b 40 08             	mov    0x8(%eax),%eax
   34086:	8d 90 80 07 00 00    	lea    0x780(%eax),%edx
   3408c:	8b 45 e4             	mov    0xffffffe4(%ebp),%eax
   3408f:	8b 40 04             	mov    0x4(%eax),%eax
   34092:	39 c2                	cmp    %eax,%edx
   34094:	72 16                	jb     340ac <printChar+0x1fd>
   34096:	8b 45 e4             	mov    0xffffffe4(%ebp),%eax
   34099:	8b 10                	mov    (%eax),%edx
   3409b:	8b 45 e4             	mov    0xffffffe4(%ebp),%eax
   3409e:	89 50 08             	mov    %edx,0x8(%eax)
   340a1:	8b 45 e4             	mov    0xffffffe4(%ebp),%eax
   340a4:	8b 10                	mov    (%eax),%edx
   340a6:	8b 45 e4             	mov    0xffffffe4(%ebp),%eax
   340a9:	89 50 0c             	mov    %edx,0xc(%eax)
   340ac:	8b 45 e4             	mov    0xffffffe4(%ebp),%eax
   340af:	89 04 24             	mov    %eax,(%esp)
   340b2:	e8 c2 f2 ff ff       	call   33379 <tty2id>
   340b7:	89 c2                	mov    %eax,%edx
   340b9:	a1 88 f1 09 00       	mov    0x9f188,%eax
   340be:	39 c2                	cmp    %eax,%edx
   340c0:	75 0e                	jne    340d0 <printChar+0x221>
   340c2:	8b 45 e4             	mov    0xffffffe4(%ebp),%eax
   340c5:	8b 40 08             	mov    0x8(%eax),%eax
   340c8:	89 04 24             	mov    %eax,(%esp)
   340cb:	e8 80 fd ff ff       	call   33e50 <set_disp_addr>
   340d0:	8b 45 e8             	mov    0xffffffe8(%ebp),%eax
   340d3:	c9                   	leave  
   340d4:	c3                   	ret    

000340d5 <printStr>:
   340d5:	55                   	push   %ebp
   340d6:	89 e5                	mov    %esp,%ebp
   340d8:	83 ec 18             	sub    $0x18,%esp
   340db:	c7 45 fc 00 00 00 00 	movl   $0x0,0xfffffffc(%ebp)
   340e2:	eb 1f                	jmp    34103 <printStr+0x2e>
   340e4:	8b 45 fc             	mov    0xfffffffc(%ebp),%eax
   340e7:	03 45 0c             	add    0xc(%ebp),%eax
   340ea:	0f b6 00             	movzbl (%eax),%eax
   340ed:	0f be c0             	movsbl %al,%eax
   340f0:	89 44 24 04          	mov    %eax,0x4(%esp)
   340f4:	8b 45 08             	mov    0x8(%ebp),%eax
   340f7:	89 04 24             	mov    %eax,(%esp)
   340fa:	e8 b0 fd ff ff       	call   33eaf <printChar>
   340ff:	83 45 fc 01          	addl   $0x1,0xfffffffc(%ebp)
   34103:	8b 45 fc             	mov    0xfffffffc(%ebp),%eax
   34106:	03 45 0c             	add    0xc(%ebp),%eax
   34109:	0f b6 00             	movzbl (%eax),%eax
   3410c:	84 c0                	test   %al,%al
   3410e:	75 d4                	jne    340e4 <printStr+0xf>
   34110:	c9                   	leave  
   34111:	c3                   	ret    

00034112 <printStrLen>:
   34112:	55                   	push   %ebp
   34113:	89 e5                	mov    %esp,%ebp
   34115:	83 ec 18             	sub    $0x18,%esp
   34118:	c7 45 fc 00 00 00 00 	movl   $0x0,0xfffffffc(%ebp)
   3411f:	eb 1f                	jmp    34140 <printStrLen+0x2e>
   34121:	8b 45 fc             	mov    0xfffffffc(%ebp),%eax
   34124:	03 45 0c             	add    0xc(%ebp),%eax
   34127:	0f b6 00             	movzbl (%eax),%eax
   3412a:	0f be c0             	movsbl %al,%eax
   3412d:	89 44 24 04          	mov    %eax,0x4(%esp)
   34131:	8b 45 08             	mov    0x8(%ebp),%eax
   34134:	89 04 24             	mov    %eax,(%esp)
   34137:	e8 73 fd ff ff       	call   33eaf <printChar>
   3413c:	83 45 fc 01          	addl   $0x1,0xfffffffc(%ebp)
   34140:	8b 45 fc             	mov    0xfffffffc(%ebp),%eax
   34143:	3b 45 10             	cmp    0x10(%ebp),%eax
   34146:	7d 0d                	jge    34155 <printStrLen+0x43>
   34148:	8b 45 fc             	mov    0xfffffffc(%ebp),%eax
   3414b:	03 45 0c             	add    0xc(%ebp),%eax
   3414e:	0f b6 00             	movzbl (%eax),%eax
   34151:	84 c0                	test   %al,%al
   34153:	75 cc                	jne    34121 <printStrLen+0xf>
   34155:	c9                   	leave  
   34156:	c3                   	ret    
   34157:	90                   	nop    

00034158 <milli_delay>:
   34158:	55                   	push   %ebp
   34159:	89 e5                	mov    %esp,%ebp
   3415b:	83 ec 18             	sub    $0x18,%esp
   3415e:	e8 bd eb ff ff       	call   32d20 <get_ticks>
   34163:	89 45 f8             	mov    %eax,0xfffffff8(%ebp)
   34166:	e8 b5 eb ff ff       	call   32d20 <get_ticks>
   3416b:	89 45 fc             	mov    %eax,0xfffffffc(%ebp)
   3416e:	8b 55 f8             	mov    0xfffffff8(%ebp),%edx
   34171:	8b 45 fc             	mov    0xfffffffc(%ebp),%eax
   34174:	89 c1                	mov    %eax,%ecx
   34176:	29 d1                	sub    %edx,%ecx
   34178:	89 ca                	mov    %ecx,%edx
   3417a:	89 d0                	mov    %edx,%eax
   3417c:	c1 e0 02             	shl    $0x2,%eax
   3417f:	01 d0                	add    %edx,%eax
   34181:	01 c0                	add    %eax,%eax
   34183:	89 c2                	mov    %eax,%edx
   34185:	8b 45 08             	mov    0x8(%ebp),%eax
   34188:	39 c2                	cmp    %eax,%edx
   3418a:	77 02                	ja     3418e <milli_delay+0x36>
   3418c:	eb d8                	jmp    34166 <milli_delay+0xe>
   3418e:	c9                   	leave  
   3418f:	c3                   	ret    

00034190 <p1>:
   34190:	55                   	push   %ebp
   34191:	89 e5                	mov    %esp,%ebp
   34193:	83 ec 18             	sub    $0x18,%esp
   34196:	c7 45 f8 6c 4e 03 00 	movl   $0x34e6c,0xfffffff8(%ebp)
   3419d:	c7 45 fc 77 4e 03 00 	movl   $0x34e77,0xfffffffc(%ebp)
   341a4:	e8 77 eb ff ff       	call   32d20 <get_ticks>
   341a9:	89 45 f4             	mov    %eax,0xfffffff4(%ebp)
   341ac:	8b 45 f4             	mov    0xfffffff4(%ebp),%eax
   341af:	89 44 24 04          	mov    %eax,0x4(%esp)
   341b3:	8b 45 fc             	mov    0xfffffffc(%ebp),%eax
   341b6:	89 04 24             	mov    %eax,(%esp)
   341b9:	e8 c6 dd ff ff       	call   31f84 <printf>
   341be:	c7 04 24 e8 03 00 00 	movl   $0x3e8,(%esp)
   341c5:	e8 8e ff ff ff       	call   34158 <milli_delay>
   341ca:	eb d8                	jmp    341a4 <p1+0x14>

000341cc <p2>:
   341cc:	55                   	push   %ebp
   341cd:	89 e5                	mov    %esp,%ebp
   341cf:	83 ec 18             	sub    $0x18,%esp
   341d2:	c7 45 fc 00 00 00 00 	movl   $0x0,0xfffffffc(%ebp)
   341d9:	c7 04 24 7e 4e 03 00 	movl   $0x34e7e,(%esp)
   341e0:	e8 9f dd ff ff       	call   31f84 <printf>
   341e5:	c7 04 24 e8 03 00 00 	movl   $0x3e8,(%esp)
   341ec:	e8 67 ff ff ff       	call   34158 <milli_delay>
   341f1:	eb e6                	jmp    341d9 <p2+0xd>

000341f3 <p3>:
   341f3:	55                   	push   %ebp
   341f4:	89 e5                	mov    %esp,%ebp
   341f6:	83 ec 18             	sub    $0x18,%esp
   341f9:	c7 45 fc 00 00 00 00 	movl   $0x0,0xfffffffc(%ebp)
   34200:	c7 04 24 82 4e 03 00 	movl   $0x34e82,(%esp)
   34207:	e8 78 dd ff ff       	call   31f84 <printf>
   3420c:	c7 04 24 e8 03 00 00 	movl   $0x3e8,(%esp)
   34213:	e8 40 ff ff ff       	call   34158 <milli_delay>
   34218:	eb e6                	jmp    34200 <p3+0xd>

0003421a <init_normal_process>:
   3421a:	55                   	push   %ebp
   3421b:	89 e5                	mov    %esp,%ebp
   3421d:	83 ec 48             	sub    $0x48,%esp
   34220:	c7 45 e0 14 00 00 00 	movl   $0x14,0xffffffe0(%ebp)
   34227:	c7 45 e4 15 00 00 00 	movl   $0x15,0xffffffe4(%ebp)
   3422e:	c7 45 e8 16 00 00 00 	movl   $0x16,0xffffffe8(%ebp)
   34235:	c7 45 ec 00 00 00 00 	movl   $0x0,0xffffffec(%ebp)
   3423c:	8b 45 e0             	mov    0xffffffe0(%ebp),%eax
   3423f:	69 c0 fc 28 00 00    	imul   $0x28fc,%eax,%eax
   34245:	05 20 8a 03 00       	add    $0x38a20,%eax
   3424a:	89 45 f0             	mov    %eax,0xfffffff0(%ebp)
   3424d:	8b 45 e4             	mov    0xffffffe4(%ebp),%eax
   34250:	69 c0 fc 28 00 00    	imul   $0x28fc,%eax,%eax
   34256:	05 20 8a 03 00       	add    $0x38a20,%eax
   3425b:	89 45 f4             	mov    %eax,0xfffffff4(%ebp)
   3425e:	8b 45 e8             	mov    0xffffffe8(%ebp),%eax
   34261:	69 c0 fc 28 00 00    	imul   $0x28fc,%eax,%eax
   34267:	05 20 8a 03 00       	add    $0x38a20,%eax
   3426c:	89 45 f8             	mov    %eax,0xfffffff8(%ebp)
   3426f:	c7 45 fc 02 02 00 00 	movl   $0x202,0xfffffffc(%ebp)
   34276:	8b 45 f0             	mov    0xfffffff0(%ebp),%eax
   34279:	05 d4 00 00 00       	add    $0xd4,%eax
   3427e:	05 ff 27 00 00       	add    $0x27ff,%eax
   34283:	ba 90 41 03 00       	mov    $0x34190,%edx
   34288:	c7 44 24 1c 17 00 00 	movl   $0x17,0x1c(%esp)
   3428f:	00 
   34290:	c7 44 24 18 1f 00 00 	movl   $0x1f,0x18(%esp)
   34297:	00 
   34298:	c7 44 24 14 0f 00 00 	movl   $0xf,0x14(%esp)
   3429f:	00 
   342a0:	89 44 24 10          	mov    %eax,0x10(%esp)
   342a4:	8b 45 fc             	mov    0xfffffffc(%ebp),%eax
   342a7:	89 44 24 0c          	mov    %eax,0xc(%esp)
   342ab:	c7 44 24 08 07 00 00 	movl   $0x7,0x8(%esp)
   342b2:	00 
   342b3:	89 54 24 04          	mov    %edx,0x4(%esp)
   342b7:	8b 45 f0             	mov    0xfffffff0(%ebp),%eax
   342ba:	89 04 24             	mov    %eax,(%esp)
   342bd:	e8 25 cc ff ff       	call   30ee7 <set_process_regs>
   342c2:	8b 45 f4             	mov    0xfffffff4(%ebp),%eax
   342c5:	05 d4 00 00 00       	add    $0xd4,%eax
   342ca:	05 ff 27 00 00       	add    $0x27ff,%eax
   342cf:	ba cc 41 03 00       	mov    $0x341cc,%edx
   342d4:	c7 44 24 1c 17 00 00 	movl   $0x17,0x1c(%esp)
   342db:	00 
   342dc:	c7 44 24 18 0f 00 00 	movl   $0xf,0x18(%esp)
   342e3:	00 
   342e4:	c7 44 24 14 1f 00 00 	movl   $0x1f,0x14(%esp)
   342eb:	00 
   342ec:	89 44 24 10          	mov    %eax,0x10(%esp)
   342f0:	8b 45 fc             	mov    0xfffffffc(%ebp),%eax
   342f3:	89 44 24 0c          	mov    %eax,0xc(%esp)
   342f7:	c7 44 24 08 07 00 00 	movl   $0x7,0x8(%esp)
   342fe:	00 
   342ff:	89 54 24 04          	mov    %edx,0x4(%esp)
   34303:	8b 45 f4             	mov    0xfffffff4(%ebp),%eax
   34306:	89 04 24             	mov    %eax,(%esp)
   34309:	e8 d9 cb ff ff       	call   30ee7 <set_process_regs>
   3430e:	8b 45 f8             	mov    0xfffffff8(%ebp),%eax
   34311:	05 d4 00 00 00       	add    $0xd4,%eax
   34316:	05 ff 27 00 00       	add    $0x27ff,%eax
   3431b:	ba f3 41 03 00       	mov    $0x341f3,%edx
   34320:	c7 44 24 1c 17 00 00 	movl   $0x17,0x1c(%esp)
   34327:	00 
   34328:	c7 44 24 18 0f 00 00 	movl   $0xf,0x18(%esp)
   3432f:	00 
   34330:	c7 44 24 14 1f 00 00 	movl   $0x1f,0x14(%esp)
   34337:	00 
   34338:	89 44 24 10          	mov    %eax,0x10(%esp)
   3433c:	8b 45 fc             	mov    0xfffffffc(%ebp),%eax
   3433f:	89 44 24 0c          	mov    %eax,0xc(%esp)
   34343:	c7 44 24 08 07 00 00 	movl   $0x7,0x8(%esp)
   3434a:	00 
   3434b:	89 54 24 04          	mov    %edx,0x4(%esp)
   3434f:	8b 45 f8             	mov    0xfffffff8(%ebp),%eax
   34352:	89 04 24             	mov    %eax,(%esp)
   34355:	e8 8d cb ff ff       	call   30ee7 <set_process_regs>
   3435a:	c7 44 24 10 00 00 00 	movl   $0x0,0x10(%esp)
   34361:	00 
   34362:	c7 44 24 0c 03 00 00 	movl   $0x3,0xc(%esp)
   34369:	00 
   3436a:	c7 44 24 08 1e 00 00 	movl   $0x1e,0x8(%esp)
   34371:	00 
   34372:	c7 44 24 04 1e 00 00 	movl   $0x1e,0x4(%esp)
   34379:	00 
   3437a:	8b 45 f0             	mov    0xfffffff0(%ebp),%eax
   3437d:	89 04 24             	mov    %eax,(%esp)
   34380:	e8 09 cc ff ff       	call   30f8e <initProcess>
   34385:	c7 44 24 10 01 00 00 	movl   $0x1,0x10(%esp)
   3438c:	00 
   3438d:	c7 44 24 0c 03 00 00 	movl   $0x3,0xc(%esp)
   34394:	00 
   34395:	c7 44 24 08 1e 00 00 	movl   $0x1e,0x8(%esp)
   3439c:	00 
   3439d:	c7 44 24 04 1e 00 00 	movl   $0x1e,0x4(%esp)
   343a4:	00 
   343a5:	8b 45 f4             	mov    0xfffffff4(%ebp),%eax
   343a8:	89 04 24             	mov    %eax,(%esp)
   343ab:	e8 de cb ff ff       	call   30f8e <initProcess>
   343b0:	c7 44 24 10 02 00 00 	movl   $0x2,0x10(%esp)
   343b7:	00 
   343b8:	c7 44 24 0c 03 00 00 	movl   $0x3,0xc(%esp)
   343bf:	00 
   343c0:	c7 44 24 08 1e 00 00 	movl   $0x1e,0x8(%esp)
   343c7:	00 
   343c8:	c7 44 24 04 1e 00 00 	movl   $0x1e,0x4(%esp)
   343cf:	00 
   343d0:	8b 45 f8             	mov    0xfffffff8(%ebp),%eax
   343d3:	89 04 24             	mov    %eax,(%esp)
   343d6:	e8 b3 cb ff ff       	call   30f8e <initProcess>
   343db:	8b 45 f0             	mov    0xfffffff0(%ebp),%eax
   343de:	83 c0 54             	add    $0x54,%eax
   343e1:	c7 44 24 0c e2 40 00 	movl   $0x40e2,0xc(%esp)
   343e8:	00 
   343e9:	c7 44 24 08 7f 00 00 	movl   $0x7f,0x8(%esp)
   343f0:	00 
   343f1:	89 44 24 04          	mov    %eax,0x4(%esp)
   343f5:	c7 04 24 08 00 00 00 	movl   $0x8,(%esp)
   343fc:	e8 73 e0 ff ff       	call   32474 <setGDTEntry>
   34401:	8b 45 f0             	mov    0xfffffff0(%ebp),%eax
   34404:	c7 40 48 43 00 00 00 	movl   $0x43,0x48(%eax)
   3440b:	8b 45 f4             	mov    0xfffffff4(%ebp),%eax
   3440e:	83 c0 54             	add    $0x54,%eax
   34411:	c7 44 24 0c e2 40 00 	movl   $0x40e2,0xc(%esp)
   34418:	00 
   34419:	c7 44 24 08 7f 00 00 	movl   $0x7f,0x8(%esp)
   34420:	00 
   34421:	89 44 24 04          	mov    %eax,0x4(%esp)
   34425:	c7 04 24 09 00 00 00 	movl   $0x9,(%esp)
   3442c:	e8 43 e0 ff ff       	call   32474 <setGDTEntry>
   34431:	8b 45 f4             	mov    0xfffffff4(%ebp),%eax
   34434:	c7 40 48 4b 00 00 00 	movl   $0x4b,0x48(%eax)
   3443b:	8b 45 f8             	mov    0xfffffff8(%ebp),%eax
   3443e:	83 c0 54             	add    $0x54,%eax
   34441:	c7 44 24 0c e2 40 00 	movl   $0x40e2,0xc(%esp)
   34448:	00 
   34449:	c7 44 24 08 7f 00 00 	movl   $0x7f,0x8(%esp)
   34450:	00 
   34451:	89 44 24 04          	mov    %eax,0x4(%esp)
   34455:	c7 04 24 0a 00 00 00 	movl   $0xa,(%esp)
   3445c:	e8 13 e0 ff ff       	call   32474 <setGDTEntry>
   34461:	8b 45 f8             	mov    0xfffffff8(%ebp),%eax
   34464:	c7 40 48 53 00 00 00 	movl   $0x53,0x48(%eax)
   3446b:	8b 45 f0             	mov    0xfffffff0(%ebp),%eax
   3446e:	83 c0 54             	add    $0x54,%eax
   34471:	c7 44 24 10 fa c0 00 	movl   $0xc0fa,0x10(%esp)
   34478:	00 
   34479:	c7 44 24 0c ff ff 00 	movl   $0xffff,0xc(%esp)
   34480:	00 
   34481:	c7 44 24 08 00 00 00 	movl   $0x0,0x8(%esp)
   34488:	00 
   34489:	c7 44 24 04 00 00 00 	movl   $0x0,0x4(%esp)
   34490:	00 
   34491:	89 04 24             	mov    %eax,(%esp)
   34494:	e8 b3 c9 ff ff       	call   30e4c <setLDTEntry>
   34499:	8b 45 f0             	mov    0xfffffff0(%ebp),%eax
   3449c:	83 c0 54             	add    $0x54,%eax
   3449f:	c7 44 24 10 f2 c0 00 	movl   $0xc0f2,0x10(%esp)
   344a6:	00 
   344a7:	c7 44 24 0c ff ff 00 	movl   $0xffff,0xc(%esp)
   344ae:	00 
   344af:	c7 44 24 08 00 00 00 	movl   $0x0,0x8(%esp)
   344b6:	00 
   344b7:	c7 44 24 04 03 00 00 	movl   $0x3,0x4(%esp)
   344be:	00 
   344bf:	89 04 24             	mov    %eax,(%esp)
   344c2:	e8 85 c9 ff ff       	call   30e4c <setLDTEntry>
   344c7:	8b 45 f0             	mov    0xfffffff0(%ebp),%eax
   344ca:	83 c0 54             	add    $0x54,%eax
   344cd:	c7 44 24 10 f2 c0 00 	movl   $0xc0f2,0x10(%esp)
   344d4:	00 
   344d5:	c7 44 24 0c ff ff 00 	movl   $0xffff,0xc(%esp)
   344dc:	00 
   344dd:	c7 44 24 08 00 00 00 	movl   $0x0,0x8(%esp)
   344e4:	00 
   344e5:	c7 44 24 04 02 00 00 	movl   $0x2,0x4(%esp)
   344ec:	00 
   344ed:	89 04 24             	mov    %eax,(%esp)
   344f0:	e8 57 c9 ff ff       	call   30e4c <setLDTEntry>
   344f5:	8b 45 f0             	mov    0xfffffff0(%ebp),%eax
   344f8:	05 d4 00 00 00       	add    $0xd4,%eax
   344fd:	05 ff 27 00 00       	add    $0x27ff,%eax
   34502:	8b 55 f0             	mov    0xfffffff0(%ebp),%edx
   34505:	83 c2 54             	add    $0x54,%edx
   34508:	c7 44 24 10 f2 40 00 	movl   $0x40f2,0x10(%esp)
   3450f:	00 
   34510:	89 44 24 0c          	mov    %eax,0xc(%esp)
   34514:	c7 44 24 08 00 00 00 	movl   $0x0,0x8(%esp)
   3451b:	00 
   3451c:	c7 44 24 04 01 00 00 	movl   $0x1,0x4(%esp)
   34523:	00 
   34524:	89 14 24             	mov    %edx,(%esp)
   34527:	e8 20 c9 ff ff       	call   30e4c <setLDTEntry>
   3452c:	8b 45 f4             	mov    0xfffffff4(%ebp),%eax
   3452f:	83 c0 54             	add    $0x54,%eax
   34532:	c7 44 24 10 fa c0 00 	movl   $0xc0fa,0x10(%esp)
   34539:	00 
   3453a:	c7 44 24 0c ff ff 00 	movl   $0xffff,0xc(%esp)
   34541:	00 
   34542:	c7 44 24 08 00 00 00 	movl   $0x0,0x8(%esp)
   34549:	00 
   3454a:	c7 44 24 04 00 00 00 	movl   $0x0,0x4(%esp)
   34551:	00 
   34552:	89 04 24             	mov    %eax,(%esp)
   34555:	e8 f2 c8 ff ff       	call   30e4c <setLDTEntry>
   3455a:	8b 45 f4             	mov    0xfffffff4(%ebp),%eax
   3455d:	83 c0 54             	add    $0x54,%eax
   34560:	c7 44 24 10 f2 c0 00 	movl   $0xc0f2,0x10(%esp)
   34567:	00 
   34568:	c7 44 24 0c ff ff 00 	movl   $0xffff,0xc(%esp)
   3456f:	00 
   34570:	c7 44 24 08 00 00 00 	movl   $0x0,0x8(%esp)
   34577:	00 
   34578:	c7 44 24 04 01 00 00 	movl   $0x1,0x4(%esp)
   3457f:	00 
   34580:	89 04 24             	mov    %eax,(%esp)
   34583:	e8 c4 c8 ff ff       	call   30e4c <setLDTEntry>
   34588:	8b 45 f4             	mov    0xfffffff4(%ebp),%eax
   3458b:	83 c0 54             	add    $0x54,%eax
   3458e:	c7 44 24 10 f2 c0 00 	movl   $0xc0f2,0x10(%esp)
   34595:	00 
   34596:	c7 44 24 0c ff ff 00 	movl   $0xffff,0xc(%esp)
   3459d:	00 
   3459e:	c7 44 24 08 00 00 00 	movl   $0x0,0x8(%esp)
   345a5:	00 
   345a6:	c7 44 24 04 02 00 00 	movl   $0x2,0x4(%esp)
   345ad:	00 
   345ae:	89 04 24             	mov    %eax,(%esp)
   345b1:	e8 96 c8 ff ff       	call   30e4c <setLDTEntry>
   345b6:	8b 45 f4             	mov    0xfffffff4(%ebp),%eax
   345b9:	05 d4 00 00 00       	add    $0xd4,%eax
   345be:	05 ff 27 00 00       	add    $0x27ff,%eax
   345c3:	8b 55 f4             	mov    0xfffffff4(%ebp),%edx
   345c6:	83 c2 54             	add    $0x54,%edx
   345c9:	c7 44 24 10 f2 40 00 	movl   $0x40f2,0x10(%esp)
   345d0:	00 
   345d1:	89 44 24 0c          	mov    %eax,0xc(%esp)
   345d5:	c7 44 24 08 00 00 00 	movl   $0x0,0x8(%esp)
   345dc:	00 
   345dd:	c7 44 24 04 03 00 00 	movl   $0x3,0x4(%esp)
   345e4:	00 
   345e5:	89 14 24             	mov    %edx,(%esp)
   345e8:	e8 5f c8 ff ff       	call   30e4c <setLDTEntry>
   345ed:	8b 45 f8             	mov    0xfffffff8(%ebp),%eax
   345f0:	83 c0 54             	add    $0x54,%eax
   345f3:	c7 44 24 10 fa c0 00 	movl   $0xc0fa,0x10(%esp)
   345fa:	00 
   345fb:	c7 44 24 0c ff ff 00 	movl   $0xffff,0xc(%esp)
   34602:	00 
   34603:	c7 44 24 08 00 00 00 	movl   $0x0,0x8(%esp)
   3460a:	00 
   3460b:	c7 44 24 04 00 00 00 	movl   $0x0,0x4(%esp)
   34612:	00 
   34613:	89 04 24             	mov    %eax,(%esp)
   34616:	e8 31 c8 ff ff       	call   30e4c <setLDTEntry>
   3461b:	8b 45 f8             	mov    0xfffffff8(%ebp),%eax
   3461e:	83 c0 54             	add    $0x54,%eax
   34621:	c7 44 24 10 f2 c0 00 	movl   $0xc0f2,0x10(%esp)
   34628:	00 
   34629:	c7 44 24 0c ff ff 00 	movl   $0xffff,0xc(%esp)
   34630:	00 
   34631:	c7 44 24 08 00 00 00 	movl   $0x0,0x8(%esp)
   34638:	00 
   34639:	c7 44 24 04 01 00 00 	movl   $0x1,0x4(%esp)
   34640:	00 
   34641:	89 04 24             	mov    %eax,(%esp)
   34644:	e8 03 c8 ff ff       	call   30e4c <setLDTEntry>
   34649:	8b 45 f8             	mov    0xfffffff8(%ebp),%eax
   3464c:	83 c0 54             	add    $0x54,%eax
   3464f:	c7 44 24 10 f2 c0 00 	movl   $0xc0f2,0x10(%esp)
   34656:	00 
   34657:	c7 44 24 0c ff ff 00 	movl   $0xffff,0xc(%esp)
   3465e:	00 
   3465f:	c7 44 24 08 00 00 00 	movl   $0x0,0x8(%esp)
   34666:	00 
   34667:	c7 44 24 04 02 00 00 	movl   $0x2,0x4(%esp)
   3466e:	00 
   3466f:	89 04 24             	mov    %eax,(%esp)
   34672:	e8 d5 c7 ff ff       	call   30e4c <setLDTEntry>
   34677:	8b 45 f8             	mov    0xfffffff8(%ebp),%eax
   3467a:	05 d4 00 00 00       	add    $0xd4,%eax
   3467f:	05 ff 27 00 00       	add    $0x27ff,%eax
   34684:	8b 55 f8             	mov    0xfffffff8(%ebp),%edx
   34687:	83 c2 54             	add    $0x54,%edx
   3468a:	c7 44 24 10 f2 40 00 	movl   $0x40f2,0x10(%esp)
   34691:	00 
   34692:	89 44 24 0c          	mov    %eax,0xc(%esp)
   34696:	c7 44 24 08 00 00 00 	movl   $0x0,0x8(%esp)
   3469d:	00 
   3469e:	c7 44 24 04 03 00 00 	movl   $0x3,0x4(%esp)
   346a5:	00 
   346a6:	89 14 24             	mov    %edx,(%esp)
   346a9:	e8 9e c7 ff ff       	call   30e4c <setLDTEntry>
   346ae:	c9                   	leave  
   346af:	c3                   	ret    